
/home/portalgun/D-Space/FreeRTOS/FreeRTOS/Demo/ThirdParty/Community-Supported-Demos/examples/FreeRTOSBlink/build/src/Blink.elf:     file format elf32-littlearm

Sections:
Idx Name          Size      VMA       LMA       File off  Algn
  0 .text         00012b28  10000000  10000000  00001000  2**3
                  CONTENTS, ALLOC, LOAD, READONLY, CODE
  1 .rodata       00001a4c  10012b28  10012b28  00013b28  2**3
                  CONTENTS, ALLOC, LOAD, READONLY, DATA
  2 .ARM.extab    00000128  10014574  10014574  00015574  2**2
                  CONTENTS, ALLOC, LOAD, READONLY, DATA
  3 .ARM.exidx    000001e8  1001469c  1001469c  0001569c  2**2
                  CONTENTS, ALLOC, LOAD, READONLY, DATA
  4 .binary_info  00000028  10014884  10014884  00015884  2**2
                  CONTENTS, ALLOC, LOAD, READONLY, DATA
  5 .ram_vector_table 00000110  20000000  20000000  00019000  2**2
                  ALLOC
  6 .uninitialized_data 00000000  20000110  20000110  00019000  2**0
                  CONTENTS
  7 .data         00002740  20000110  100148ac  00016110  2**3
                  CONTENTS, ALLOC, LOAD, READONLY, CODE
  8 .tdata        00000000  20002850  20002850  00019000  2**0
                  CONTENTS, ALLOC, LOAD, DATA, THREAD_LOCAL
  9 .tbss         00000000  20002850  20002850  00000000  2**0
                  ALLOC, THREAD_LOCAL
 10 .bss          0002291c  20002850  10016fec  00019850  2**3
                  ALLOC
 11 .heap         0005ae94  2002516c  10016fec  0001916c  2**2
                  ALLOC, READONLY
 12 .scratch_x    00000000  20080000  20080000  00019000  2**0
                  CONTENTS
 13 .scratch_y    00000000  20081000  20081000  00019000  2**0
                  CONTENTS
 14 .stack1_dummy 00000800  20080000  20080000  00019000  2**2
                  ALLOC
 15 .stack_dummy  00000800  20081000  20081000  00019000  2**5
                  CONTENTS, READONLY
 16 .flash_end    00000014  10016fec  10016fec  00018fec  2**0
                  CONTENTS, ALLOC, LOAD, READONLY, DATA
 17 .ARM.attributes 00000034  00000000  00000000  00019800  2**0
                  CONTENTS, READONLY
 18 .comment      00000044  00000000  00000000  00019834  2**0
                  CONTENTS, READONLY
 19 .debug_info   00047e48  00000000  00000000  00019878  2**0
                  CONTENTS, READONLY, DEBUGGING, OCTETS
 20 .debug_abbrev 0000c343  00000000  00000000  000616c0  2**0
                  CONTENTS, READONLY, DEBUGGING, OCTETS
 21 .debug_loclists 00023509  00000000  00000000  0006da03  2**0
                  CONTENTS, READONLY, DEBUGGING, OCTETS
 22 .debug_aranges 00001bf0  00000000  00000000  00090f10  2**3
                  CONTENTS, READONLY, DEBUGGING, OCTETS
 23 .debug_rnglists 00006276  00000000  00000000  00092b00  2**0
                  CONTENTS, READONLY, DEBUGGING, OCTETS
 24 .debug_line   000315f1  00000000  00000000  00098d76  2**0
                  CONTENTS, READONLY, DEBUGGING, OCTETS
 25 .debug_str    0000d67f  00000000  00000000  000ca367  2**0
                  CONTENTS, READONLY, DEBUGGING, OCTETS
 26 .debug_frame  0000714c  00000000  00000000  000d79e8  2**2
                  CONTENTS, READONLY, DEBUGGING, OCTETS
 27 .debug_line_str 000002dd  00000000  00000000  000deb34  2**0
                  CONTENTS, READONLY, DEBUGGING, OCTETS

/home/portalgun/D-Space/FreeRTOS/FreeRTOS/Demo/ThirdParty/Community-Supported-Demos/examples/FreeRTOSBlink/build/src/Blink.elf:     file format elf32-littlearm


Disassembly of section .text:

10000000 <__VECTOR_TABLE>:
10000000:	20082000 	.word	0x20082000
10000004:	1000015d 	.word	0x1000015d
10000008:	10000113 	.word	0x10000113
1000000c:	10000115 	.word	0x10000115
10000010:	10000111 	.word	0x10000111
10000014:	10000111 	.word	0x10000111
10000018:	10000111 	.word	0x10000111
1000001c:	10000111 	.word	0x10000111
10000020:	10000111 	.word	0x10000111
10000024:	10000111 	.word	0x10000111
10000028:	10000111 	.word	0x10000111
1000002c:	10000117 	.word	0x10000117
10000030:	10000111 	.word	0x10000111
10000034:	10000111 	.word	0x10000111
10000038:	10000119 	.word	0x10000119
1000003c:	1000011b 	.word	0x1000011b
10000040:	1000011d 	.word	0x1000011d
10000044:	1000011d 	.word	0x1000011d
10000048:	1000011d 	.word	0x1000011d
1000004c:	1000011d 	.word	0x1000011d
10000050:	1000011d 	.word	0x1000011d
10000054:	1000011d 	.word	0x1000011d
10000058:	1000011d 	.word	0x1000011d
1000005c:	1000011d 	.word	0x1000011d
10000060:	1000011d 	.word	0x1000011d
10000064:	1000011d 	.word	0x1000011d
10000068:	1000011d 	.word	0x1000011d
1000006c:	1000011d 	.word	0x1000011d
10000070:	1000011d 	.word	0x1000011d
10000074:	1000011d 	.word	0x1000011d
10000078:	1000011d 	.word	0x1000011d
1000007c:	1000011d 	.word	0x1000011d
10000080:	1000011d 	.word	0x1000011d
10000084:	1000011d 	.word	0x1000011d
10000088:	1000011d 	.word	0x1000011d
1000008c:	1000011d 	.word	0x1000011d
10000090:	1000011d 	.word	0x1000011d
10000094:	1000011d 	.word	0x1000011d
10000098:	1000011d 	.word	0x1000011d
1000009c:	1000011d 	.word	0x1000011d
100000a0:	1000011d 	.word	0x1000011d
100000a4:	1000011d 	.word	0x1000011d
100000a8:	1000011d 	.word	0x1000011d
100000ac:	1000011d 	.word	0x1000011d
100000b0:	1000011d 	.word	0x1000011d
100000b4:	1000011d 	.word	0x1000011d
100000b8:	1000011d 	.word	0x1000011d
100000bc:	1000011d 	.word	0x1000011d
100000c0:	1000011d 	.word	0x1000011d
100000c4:	1000011d 	.word	0x1000011d
100000c8:	1000011d 	.word	0x1000011d
100000cc:	1000011d 	.word	0x1000011d
100000d0:	1000011d 	.word	0x1000011d
100000d4:	1000011d 	.word	0x1000011d
100000d8:	1000011d 	.word	0x1000011d
100000dc:	1000011d 	.word	0x1000011d
100000e0:	1000011d 	.word	0x1000011d
100000e4:	1000011d 	.word	0x1000011d
100000e8:	1000011d 	.word	0x1000011d
100000ec:	1000011d 	.word	0x1000011d
100000f0:	1000011d 	.word	0x1000011d
100000f4:	1000011d 	.word	0x1000011d
100000f8:	1000011d 	.word	0x1000011d
100000fc:	1000011d 	.word	0x1000011d
10000100:	1000011d 	.word	0x1000011d
10000104:	1000011d 	.word	0x1000011d
10000108:	1000011d 	.word	0x1000011d
1000010c:	1000011d 	.word	0x1000011d

10000110 <isr_invalid>:
10000110:	be00      	bkpt	0x0000

10000112 <isr_nmi>:
10000112:	be00      	bkpt	0x0000

10000114 <isr_hardfault>:
10000114:	be00      	bkpt	0x0000

10000116 <isr_svcall>:
10000116:	be00      	bkpt	0x0000

10000118 <isr_pendsv>:
10000118:	be00      	bkpt	0x0000

1000011a <isr_systick>:
1000011a:	be00      	bkpt	0x0000

1000011c <__unhandled_user_irq>:
1000011c:	f3ef 8005 	mrs	r0, IPSR
10000120:	3810      	subs	r0, #16

10000122 <unhandled_user_irq_num_in_r0>:
10000122:	be00      	bkpt	0x0000

10000124 <binary_info_header>:
10000124:	7188ebf2 	.word	0x7188ebf2
10000128:	10014884 	.word	0x10014884
1000012c:	100148ac 	.word	0x100148ac
10000130:	100001a8 	.word	0x100001a8
10000134:	e71aa390 	.word	0xe71aa390

10000138 <__binary_info_header_end>:
10000138:	ffffded3 	.word	0xffffded3
1000013c:	10210142 	.word	0x10210142
10000140:	000001ff 	.word	0x000001ff
10000144:	00016eb4 	.word	0x00016eb4
10000148:	ab123579 	.word	0xab123579

1000014c <_entry_point>:
1000014c:	f04f 0000 	mov.w	r0, #0

10000150 <_enter_vtable_in_r0>:
10000150:	4920      	ldr	r1, [pc, #128]	@ (100001d4 <data_cpy_table+0x2c>)
10000152:	6008      	str	r0, [r1, #0]
10000154:	c806      	ldmia	r0!, {r1, r2}
10000156:	f381 8808 	msr	MSP, r1
1000015a:	4710      	bx	r2

1000015c <_reset_handler>:
1000015c:	f04f 4050 	mov.w	r0, #3489660928	@ 0xd0000000
10000160:	6800      	ldr	r0, [r0, #0]
10000162:	b110      	cbz	r0, 1000016a <hold_non_core0_in_bootrom+0x6>

10000164 <hold_non_core0_in_bootrom>:
10000164:	f04f 0000 	mov.w	r0, #0
10000168:	e7f2      	b.n	10000150 <_enter_vtable_in_r0>
1000016a:	a40f      	add	r4, pc, #60	@ (adr r4, 100001a8 <data_cpy_table>)
1000016c:	cc0e      	ldmia	r4!, {r1, r2, r3}
1000016e:	2900      	cmp	r1, #0
10000170:	d002      	beq.n	10000178 <hold_non_core0_in_bootrom+0x14>
10000172:	f000 f815 	bl	100001a0 <data_cpy>
10000176:	e7f9      	b.n	1000016c <hold_non_core0_in_bootrom+0x8>
10000178:	4917      	ldr	r1, [pc, #92]	@ (100001d8 <data_cpy_table+0x30>)
1000017a:	4a18      	ldr	r2, [pc, #96]	@ (100001dc <data_cpy_table+0x34>)
1000017c:	2000      	movs	r0, #0
1000017e:	e000      	b.n	10000182 <bss_fill_test>

10000180 <bss_fill_loop>:
10000180:	c101      	stmia	r1!, {r0}

10000182 <bss_fill_test>:
10000182:	4291      	cmp	r1, r2
10000184:	d1fc      	bne.n	10000180 <bss_fill_loop>

10000186 <platform_entry>:
10000186:	2000      	movs	r0, #0
10000188:	f380 880a 	msr	MSPLIM, r0
1000018c:	4914      	ldr	r1, [pc, #80]	@ (100001e0 <data_cpy_table+0x38>)
1000018e:	4788      	blx	r1
10000190:	4914      	ldr	r1, [pc, #80]	@ (100001e4 <data_cpy_table+0x3c>)
10000192:	4788      	blx	r1
10000194:	4914      	ldr	r1, [pc, #80]	@ (100001e8 <data_cpy_table+0x40>)
10000196:	4788      	blx	r1
10000198:	be00      	bkpt	0x0000
1000019a:	e7fd      	b.n	10000198 <platform_entry+0x12>

1000019c <data_cpy_loop>:
1000019c:	c901      	ldmia	r1!, {r0}
1000019e:	c201      	stmia	r2!, {r0}

100001a0 <data_cpy>:
100001a0:	429a      	cmp	r2, r3
100001a2:	d3fb      	bcc.n	1000019c <data_cpy_loop>
100001a4:	4770      	bx	lr
100001a6:	bf00      	nop

100001a8 <data_cpy_table>:
100001a8:	100148ac 	.word	0x100148ac
100001ac:	20000110 	.word	0x20000110
100001b0:	20002850 	.word	0x20002850
100001b4:	10016fec 	.word	0x10016fec
100001b8:	20080000 	.word	0x20080000
100001bc:	20080000 	.word	0x20080000
100001c0:	10016fec 	.word	0x10016fec
100001c4:	20081000 	.word	0x20081000
100001c8:	20081000 	.word	0x20081000
100001cc:	00000000 	.word	0x00000000
100001d0:	4770      	bx	lr
100001d2:	0000      	.short	0x0000
100001d4:	e000ed08 	.word	0xe000ed08
100001d8:	20002850 	.word	0x20002850
100001dc:	2002516c 	.word	0x2002516c
100001e0:	100036dd 	.word	0x100036dd
100001e4:	10000339 	.word	0x10000339
100001e8:	100036d5 	.word	0x100036d5

100001ec <_init>:
100001ec:	b5f8      	push	{r3, r4, r5, r6, r7, lr}
100001ee:	bf00      	nop

100001f0 <register_tm_clones>:
100001f0:	4b06      	ldr	r3, [pc, #24]	@ (1000020c <register_tm_clones+0x1c>)
100001f2:	4907      	ldr	r1, [pc, #28]	@ (10000210 <register_tm_clones+0x20>)
100001f4:	1ac9      	subs	r1, r1, r3
100001f6:	1089      	asrs	r1, r1, #2
100001f8:	bf48      	it	mi
100001fa:	3101      	addmi	r1, #1
100001fc:	1049      	asrs	r1, r1, #1
100001fe:	d003      	beq.n	10000208 <register_tm_clones+0x18>
10000200:	4b04      	ldr	r3, [pc, #16]	@ (10000214 <register_tm_clones+0x24>)
10000202:	b10b      	cbz	r3, 10000208 <register_tm_clones+0x18>
10000204:	4801      	ldr	r0, [pc, #4]	@ (1000020c <register_tm_clones+0x1c>)
10000206:	4718      	bx	r3
10000208:	4770      	bx	lr
1000020a:	bf00      	nop
1000020c:	20002850 	.word	0x20002850
10000210:	20002850 	.word	0x20002850
10000214:	00000000 	.word	0x00000000

10000218 <frame_dummy>:
10000218:	b508      	push	{r3, lr}
1000021a:	4b05      	ldr	r3, [pc, #20]	@ (10000230 <frame_dummy+0x18>)
1000021c:	b11b      	cbz	r3, 10000226 <frame_dummy+0xe>
1000021e:	4905      	ldr	r1, [pc, #20]	@ (10000234 <frame_dummy+0x1c>)
10000220:	4805      	ldr	r0, [pc, #20]	@ (10000238 <frame_dummy+0x20>)
10000222:	f3af 8000 	nop.w
10000226:	e8bd 4008 	ldmia.w	sp!, {r3, lr}
1000022a:	f7ff bfe1 	b.w	100001f0 <register_tm_clones>
1000022e:	bf00      	nop
10000230:	00000000 	.word	0x00000000
10000234:	20003768 	.word	0x20003768
10000238:	10012b28 	.word	0x10012b28

1000023c <_Z12runTimeStatsv>:
1000023c:	b570      	push	{r4, r5, r6, lr}
1000023e:	b08c      	sub	sp, #48	@ 0x30
10000240:	f007 fe66 	bl	10007f10 <uxTaskGetNumberOfTasks>
10000244:	4603      	mov	r3, r0
10000246:	9302      	str	r3, [sp, #8]
10000248:	482c      	ldr	r0, [pc, #176]	@ (100002fc <_Z12runTimeStatsv+0xc0>)
1000024a:	9902      	ldr	r1, [sp, #8]
1000024c:	f003 fc7c 	bl	10003b48 <__wrap_printf>
10000250:	9802      	ldr	r0, [sp, #8]
10000252:	eb00 00c0 	add.w	r0, r0, r0, lsl #3
10000256:	0080      	lsls	r0, r0, #2
10000258:	f006 f818 	bl	1000628c <pvPortMalloc>
1000025c:	2800      	cmp	r0, #0
1000025e:	d048      	beq.n	100002f2 <_Z12runTimeStatsv+0xb6>
10000260:	aa04      	add	r2, sp, #16
10000262:	9902      	ldr	r1, [sp, #8]
10000264:	4604      	mov	r4, r0
10000266:	f008 fa2d 	bl	100086c4 <uxTaskGetSystemState>
1000026a:	2300      	movs	r3, #0
1000026c:	9002      	str	r0, [sp, #8]
1000026e:	9303      	str	r3, [sp, #12]
10000270:	9a03      	ldr	r2, [sp, #12]
10000272:	9b02      	ldr	r3, [sp, #8]
10000274:	429a      	cmp	r2, r3
10000276:	d22c      	bcs.n	100002d2 <_Z12runTimeStatsv+0x96>
10000278:	4d21      	ldr	r5, [pc, #132]	@ (10000300 <_Z12runTimeStatsv+0xc4>)
1000027a:	9a03      	ldr	r2, [sp, #12]
1000027c:	9903      	ldr	r1, [sp, #12]
1000027e:	9803      	ldr	r0, [sp, #12]
10000280:	9b03      	ldr	r3, [sp, #12]
10000282:	9e03      	ldr	r6, [sp, #12]
10000284:	eb00 00c0 	add.w	r0, r0, r0, lsl #3
10000288:	eb06 06c6 	add.w	r6, r6, r6, lsl #3
1000028c:	eb04 0686 	add.w	r6, r4, r6, lsl #2
10000290:	6876      	ldr	r6, [r6, #4]
10000292:	eb01 01c1 	add.w	r1, r1, r1, lsl #3
10000296:	eb02 02c2 	add.w	r2, r2, r2, lsl #3
1000029a:	eb04 0e80 	add.w	lr, r4, r0, lsl #2
1000029e:	eb03 0cc3 	add.w	ip, r3, r3, lsl #3
100002a2:	eb04 0081 	add.w	r0, r4, r1, lsl #2
100002a6:	eb04 0182 	add.w	r1, r4, r2, lsl #2
100002aa:	f8de 3014 	ldr.w	r3, [lr, #20]
100002ae:	6902      	ldr	r2, [r0, #16]
100002b0:	6889      	ldr	r1, [r1, #8]
100002b2:	eb04 0c8c 	add.w	ip, r4, ip, lsl #2
100002b6:	9601      	str	r6, [sp, #4]
100002b8:	f8dc 6020 	ldr.w	r6, [ip, #32]
100002bc:	4628      	mov	r0, r5
100002be:	9600      	str	r6, [sp, #0]
100002c0:	f003 fc42 	bl	10003b48 <__wrap_printf>
100002c4:	9b03      	ldr	r3, [sp, #12]
100002c6:	3301      	adds	r3, #1
100002c8:	9303      	str	r3, [sp, #12]
100002ca:	9a03      	ldr	r2, [sp, #12]
100002cc:	9b02      	ldr	r3, [sp, #8]
100002ce:	429a      	cmp	r2, r3
100002d0:	d3d3      	bcc.n	1000027a <_Z12runTimeStatsv+0x3e>
100002d2:	4620      	mov	r0, r4
100002d4:	f006 f864 	bl	100063a0 <vPortFree>
100002d8:	a805      	add	r0, sp, #20
100002da:	f006 f8b3 	bl	10006444 <vPortGetHeapStats>
100002de:	e9dd 340a 	ldrd	r3, r4, [sp, #40]	@ 0x28
100002e2:	9a08      	ldr	r2, [sp, #32]
100002e4:	9905      	ldr	r1, [sp, #20]
100002e6:	9400      	str	r4, [sp, #0]
100002e8:	4806      	ldr	r0, [pc, #24]	@ (10000304 <_Z12runTimeStatsv+0xc8>)
100002ea:	f003 fc2d 	bl	10003b48 <__wrap_printf>
100002ee:	b00c      	add	sp, #48	@ 0x30
100002f0:	bd70      	pop	{r4, r5, r6, pc}
100002f2:	4805      	ldr	r0, [pc, #20]	@ (10000308 <_Z12runTimeStatsv+0xcc>)
100002f4:	f003 fba6 	bl	10003a44 <__wrap_puts>
100002f8:	e7ee      	b.n	100002d8 <_Z12runTimeStatsv+0x9c>
100002fa:	bf00      	nop
100002fc:	10012b28 	.word	0x10012b28
10000300:	10012b3c 	.word	0x10012b3c
10000304:	10012b8c 	.word	0x10012b8c
10000308:	10012b68 	.word	0x10012b68

1000030c <_Z7vLaunchv>:
1000030c:	b510      	push	{r4, lr}
1000030e:	2401      	movs	r4, #1
10000310:	b084      	sub	sp, #16
10000312:	a803      	add	r0, sp, #12
10000314:	2300      	movs	r3, #0
10000316:	f44f 72fa 	mov.w	r2, #500	@ 0x1f4
1000031a:	4905      	ldr	r1, [pc, #20]	@ (10000330 <_Z7vLaunchv+0x24>)
1000031c:	9001      	str	r0, [sp, #4]
1000031e:	9400      	str	r4, [sp, #0]
10000320:	4804      	ldr	r0, [pc, #16]	@ (10000334 <_Z7vLaunchv+0x28>)
10000322:	f007 fadb 	bl	100078dc <xTaskCreate>
10000326:	f007 fbe7 	bl	10007af8 <vTaskStartScheduler>
1000032a:	b004      	add	sp, #16
1000032c:	bd10      	pop	{r4, pc}
1000032e:	bf00      	nop
10000330:	10012bbc 	.word	0x10012bbc
10000334:	10000371 	.word	0x10000371

10000338 <main>:
10000338:	b508      	push	{r3, lr}
1000033a:	f003 fb39 	bl	100039b0 <stdio_init_all>
1000033e:	f44f 707a 	mov.w	r0, #1000	@ 0x3e8
10000342:	f001 f8db 	bl	100014fc <sleep_ms>
10000346:	4807      	ldr	r0, [pc, #28]	@ (10000364 <main+0x2c>)
10000348:	f003 fb7c 	bl	10003a44 <__wrap_puts>
1000034c:	4906      	ldr	r1, [pc, #24]	@ (10000368 <main+0x30>)
1000034e:	4807      	ldr	r0, [pc, #28]	@ (1000036c <main+0x34>)
10000350:	f003 fbfa 	bl	10003b48 <__wrap_printf>
10000354:	f7ff ffda 	bl	1000030c <_Z7vLaunchv>
10000358:	f640 30b8 	movw	r0, #3000	@ 0xbb8
1000035c:	f001 f8ce 	bl	100014fc <sleep_ms>
10000360:	e7fa      	b.n	10000358 <main+0x20>
10000362:	bf00      	nop
10000364:	10012bc8 	.word	0x10012bc8
10000368:	10012bcc 	.word	0x10012bcc
1000036c:	10012bd8 	.word	0x10012bd8

10000370 <_Z8mainTaskPv>:
10000370:	b500      	push	{lr}
10000372:	b089      	sub	sp, #36	@ 0x24
10000374:	2119      	movs	r1, #25
10000376:	4668      	mov	r0, sp
10000378:	f000 f8be 	bl	100004f8 <_ZN10BlinkAgentC1Eh>
1000037c:	4809      	ldr	r0, [pc, #36]	@ (100003a4 <_Z8mainTaskPv+0x34>)
1000037e:	f003 fb61 	bl	10003a44 <__wrap_puts>
10000382:	2201      	movs	r2, #1
10000384:	4668      	mov	r0, sp
10000386:	4908      	ldr	r1, [pc, #32]	@ (100003a8 <_Z8mainTaskPv+0x38>)
10000388:	f000 f828 	bl	100003dc <_ZN5Agent5startEPKcm>
1000038c:	2064      	movs	r0, #100	@ 0x64
1000038e:	f007 fced 	bl	10007d6c <vTaskDelay>
10000392:	f7ff ff53 	bl	1000023c <_Z12runTimeStatsv>
10000396:	e7f9      	b.n	1000038c <_Z8mainTaskPv+0x1c>
10000398:	4668      	mov	r0, sp
1000039a:	f000 f86f 	bl	1000047c <_ZN10BlinkAgentD1Ev>
1000039e:	f008 fed9 	bl	10009154 <__cxa_end_cleanup>
100003a2:	bf00      	nop
100003a4:	10012bf0 	.word	0x10012bf0
100003a8:	10012c04 	.word	0x10012c04

100003ac <_ZN5Agent7getTaskEv>:
100003ac:	6840      	ldr	r0, [r0, #4]
100003ae:	4770      	bx	lr

100003b0 <_ZN5Agent5vTaskEPv>:
100003b0:	b110      	cbz	r0, 100003b8 <_ZN5Agent5vTaskEPv+0x8>
100003b2:	6803      	ldr	r3, [r0, #0]
100003b4:	699b      	ldr	r3, [r3, #24]
100003b6:	4718      	bx	r3
100003b8:	4770      	bx	lr
100003ba:	bf00      	nop

100003bc <_ZN5Agent4stopEv>:
100003bc:	b510      	push	{r4, lr}
100003be:	4604      	mov	r4, r0
100003c0:	6840      	ldr	r0, [r0, #4]
100003c2:	b118      	cbz	r0, 100003cc <_ZN5Agent4stopEv+0x10>
100003c4:	f007 fb16 	bl	100079f4 <vTaskDelete>
100003c8:	2300      	movs	r3, #0
100003ca:	6063      	str	r3, [r4, #4]
100003cc:	bd10      	pop	{r4, pc}
100003ce:	bf00      	nop

100003d0 <_ZN5Agent16getStakHighWaterEv>:
100003d0:	6840      	ldr	r0, [r0, #4]
100003d2:	b108      	cbz	r0, 100003d8 <_ZN5Agent16getStakHighWaterEv+0x8>
100003d4:	f008 bb5a 	b.w	10008a8c <uxTaskGetStackHighWaterMark>
100003d8:	4770      	bx	lr
100003da:	bf00      	nop

100003dc <_ZN5Agent5startEPKcm>:
100003dc:	b5f0      	push	{r4, r5, r6, r7, lr}
100003de:	4604      	mov	r4, r0
100003e0:	b083      	sub	sp, #12
100003e2:	4608      	mov	r0, r1
100003e4:	460d      	mov	r5, r1
100003e6:	4616      	mov	r6, r2
100003e8:	f011 fdd4 	bl	10011f94 <strlen>
100003ec:	2813      	cmp	r0, #19
100003ee:	d925      	bls.n	1000043c <_ZN5Agent5startEPKcm+0x60>
100003f0:	2300      	movs	r3, #0
100003f2:	68a9      	ldr	r1, [r5, #8]
100003f4:	68ea      	ldr	r2, [r5, #12]
100003f6:	f8d5 c000 	ldr.w	ip, [r5]
100003fa:	6868      	ldr	r0, [r5, #4]
100003fc:	f8c4 c008 	str.w	ip, [r4, #8]
10000400:	60e0      	str	r0, [r4, #12]
10000402:	6121      	str	r1, [r4, #16]
10000404:	6162      	str	r2, [r4, #20]
10000406:	8a29      	ldrh	r1, [r5, #16]
10000408:	7caa      	ldrb	r2, [r5, #18]
1000040a:	f104 0708 	add.w	r7, r4, #8
1000040e:	8321      	strh	r1, [r4, #24]
10000410:	74ba      	strb	r2, [r7, #18]
10000412:	76e3      	strb	r3, [r4, #27]
10000414:	6823      	ldr	r3, [r4, #0]
10000416:	4620      	mov	r0, r4
10000418:	69db      	ldr	r3, [r3, #28]
1000041a:	4798      	blx	r3
1000041c:	1d23      	adds	r3, r4, #4
1000041e:	4602      	mov	r2, r0
10000420:	9301      	str	r3, [sp, #4]
10000422:	4639      	mov	r1, r7
10000424:	4623      	mov	r3, r4
10000426:	9600      	str	r6, [sp, #0]
10000428:	4808      	ldr	r0, [pc, #32]	@ (1000044c <_ZN5Agent5startEPKcm+0x70>)
1000042a:	f007 fa57 	bl	100078dc <xTaskCreate>
1000042e:	f1a0 0001 	sub.w	r0, r0, #1
10000432:	fab0 f080 	clz	r0, r0
10000436:	0940      	lsrs	r0, r0, #5
10000438:	b003      	add	sp, #12
1000043a:	bdf0      	pop	{r4, r5, r6, r7, pc}
1000043c:	f104 0708 	add.w	r7, r4, #8
10000440:	1c42      	adds	r2, r0, #1
10000442:	4629      	mov	r1, r5
10000444:	4638      	mov	r0, r7
10000446:	f011 fd2f 	bl	10011ea8 <memcpy>
1000044a:	e7e3      	b.n	10000414 <_ZN5Agent5startEPKcm+0x38>
1000044c:	100003b1 	.word	0x100003b1

10000450 <_ZN5AgentC1Ev>:
10000450:	2200      	movs	r2, #0
10000452:	4902      	ldr	r1, [pc, #8]	@ (1000045c <_ZN5AgentC1Ev+0xc>)
10000454:	e9c0 1200 	strd	r1, r2, [r0]
10000458:	4770      	bx	lr
1000045a:	bf00      	nop
1000045c:	10013808 	.word	0x10013808

10000460 <_ZN5AgentD1Ev>:
10000460:	b510      	push	{r4, lr}
10000462:	4604      	mov	r4, r0
10000464:	4b03      	ldr	r3, [pc, #12]	@ (10000474 <_ZN5AgentD1Ev+0x14>)
10000466:	6840      	ldr	r0, [r0, #4]
10000468:	6023      	str	r3, [r4, #0]
1000046a:	b108      	cbz	r0, 10000470 <_ZN5AgentD1Ev+0x10>
1000046c:	f007 fac2 	bl	100079f4 <vTaskDelete>
10000470:	4620      	mov	r0, r4
10000472:	bd10      	pop	{r4, pc}
10000474:	10013808 	.word	0x10013808

10000478 <_ZN10BlinkAgent15getMaxStackSizeEv>:
10000478:	2096      	movs	r0, #150	@ 0x96
1000047a:	4770      	bx	lr

1000047c <_ZN10BlinkAgentD1Ev>:
1000047c:	b510      	push	{r4, lr}
1000047e:	4604      	mov	r4, r0
10000480:	4b04      	ldr	r3, [pc, #16]	@ (10000494 <_ZN10BlinkAgentD1Ev+0x18>)
10000482:	6003      	str	r3, [r0, #0]
10000484:	f7ff ff9a 	bl	100003bc <_ZN5Agent4stopEv>
10000488:	4620      	mov	r0, r4
1000048a:	f7ff ffe9 	bl	10000460 <_ZN5AgentD1Ev>
1000048e:	4620      	mov	r0, r4
10000490:	bd10      	pop	{r4, pc}
10000492:	bf00      	nop
10000494:	10013830 	.word	0x10013830

10000498 <_ZN10BlinkAgentD0Ev>:
10000498:	b510      	push	{r4, lr}
1000049a:	4604      	mov	r4, r0
1000049c:	4b06      	ldr	r3, [pc, #24]	@ (100004b8 <_ZN10BlinkAgentD0Ev+0x20>)
1000049e:	6003      	str	r3, [r0, #0]
100004a0:	f7ff ff8c 	bl	100003bc <_ZN5Agent4stopEv>
100004a4:	4620      	mov	r0, r4
100004a6:	f7ff ffdb 	bl	10000460 <_ZN5AgentD1Ev>
100004aa:	4620      	mov	r0, r4
100004ac:	2120      	movs	r1, #32
100004ae:	f008 fe4f 	bl	10009150 <_ZdlPvj>
100004b2:	4620      	mov	r0, r4
100004b4:	bd10      	pop	{r4, pc}
100004b6:	bf00      	nop
100004b8:	10013830 	.word	0x10013830

100004bc <_ZN10BlinkAgent3runEv>:
100004bc:	b570      	push	{r4, r5, r6, lr}
100004be:	4604      	mov	r4, r0
100004c0:	480c      	ldr	r0, [pc, #48]	@ (100004f4 <_ZN10BlinkAgent3runEv+0x38>)
100004c2:	f003 fabf 	bl	10003a44 <__wrap_puts>
100004c6:	7f20      	ldrb	r0, [r4, #28]
100004c8:	f000 f840 	bl	1000054c <gpio_init>
100004cc:	f04f 0501 	mov.w	r5, #1
100004d0:	7f23      	ldrb	r3, [r4, #28]
100004d2:	ec45 3044 	gpioc_bit_oe_put r3, r5
100004d6:	f04f 0600 	mov.w	r6, #0
100004da:	ec45 3040 	gpioc_bit_out_put r3, r5
100004de:	2032      	movs	r0, #50	@ 0x32
100004e0:	f007 fc44 	bl	10007d6c <vTaskDelay>
100004e4:	7f23      	ldrb	r3, [r4, #28]
100004e6:	ec46 3040 	gpioc_bit_out_put r3, r6
100004ea:	2032      	movs	r0, #50	@ 0x32
100004ec:	f007 fc3e 	bl	10007d6c <vTaskDelay>
100004f0:	7f23      	ldrb	r3, [r4, #28]
100004f2:	e7f2      	b.n	100004da <_ZN10BlinkAgent3runEv+0x1e>
100004f4:	10012c0c 	.word	0x10012c0c

100004f8 <_ZN10BlinkAgentC1Eh>:
100004f8:	b538      	push	{r3, r4, r5, lr}
100004fa:	4604      	mov	r4, r0
100004fc:	460d      	mov	r5, r1
100004fe:	f7ff ffa7 	bl	10000450 <_ZN5AgentC1Ev>
10000502:	4b02      	ldr	r3, [pc, #8]	@ (1000050c <_ZN10BlinkAgentC1Eh+0x14>)
10000504:	7725      	strb	r5, [r4, #28]
10000506:	4620      	mov	r0, r4
10000508:	6023      	str	r3, [r4, #0]
1000050a:	bd38      	pop	{r3, r4, r5, pc}
1000050c:	10013830 	.word	0x10013830

10000510 <gpio_set_function>:
10000510:	b410      	push	{r4}
10000512:	f44f 7480 	mov.w	r4, #256	@ 0x100
10000516:	4b0c      	ldr	r3, [pc, #48]	@ (10000548 <gpio_set_function+0x38>)
10000518:	f853 2020 	ldr.w	r2, [r3, r0, lsl #2]
1000051c:	eb03 0380 	add.w	r3, r3, r0, lsl #2
10000520:	00c0      	lsls	r0, r0, #3
10000522:	f082 0240 	eor.w	r2, r2, #64	@ 0x40
10000526:	f100 4080 	add.w	r0, r0, #1073741824	@ 0x40000000
1000052a:	f503 5c80 	add.w	ip, r3, #4096	@ 0x1000
1000052e:	f002 02c0 	and.w	r2, r2, #192	@ 0xc0
10000532:	f500 3020 	add.w	r0, r0, #163840	@ 0x28000
10000536:	f503 5340 	add.w	r3, r3, #12288	@ 0x3000
1000053a:	f8cc 2000 	str.w	r2, [ip]
1000053e:	6041      	str	r1, [r0, #4]
10000540:	601c      	str	r4, [r3, #0]
10000542:	f85d 4b04 	ldr.w	r4, [sp], #4
10000546:	4770      	bx	lr
10000548:	40038004 	.word	0x40038004

1000054c <gpio_init>:
1000054c:	b430      	push	{r4, r5}
1000054e:	f04f 0300 	mov.w	r3, #0
10000552:	ec43 0044 	gpioc_bit_oe_put r0, r3
10000556:	ec43 0040 	gpioc_bit_out_put r0, r3
1000055a:	2505      	movs	r5, #5
1000055c:	f44f 7480 	mov.w	r4, #256	@ 0x100
10000560:	4b0b      	ldr	r3, [pc, #44]	@ (10000590 <gpio_init+0x44>)
10000562:	00c2      	lsls	r2, r0, #3
10000564:	f853 1020 	ldr.w	r1, [r3, r0, lsl #2]
10000568:	eb03 0080 	add.w	r0, r3, r0, lsl #2
1000056c:	f081 0140 	eor.w	r1, r1, #64	@ 0x40
10000570:	f102 4380 	add.w	r3, r2, #1073741824	@ 0x40000000
10000574:	f503 3320 	add.w	r3, r3, #163840	@ 0x28000
10000578:	f001 02c0 	and.w	r2, r1, #192	@ 0xc0
1000057c:	f500 5180 	add.w	r1, r0, #4096	@ 0x1000
10000580:	f500 5040 	add.w	r0, r0, #12288	@ 0x3000
10000584:	600a      	str	r2, [r1, #0]
10000586:	605d      	str	r5, [r3, #4]
10000588:	6004      	str	r4, [r0, #0]
1000058a:	bc30      	pop	{r4, r5}
1000058c:	4770      	bx	lr
1000058e:	bf00      	nop
10000590:	40038004 	.word	0x40038004

10000594 <panic>:
10000594:	b40f      	push	{r0, r1, r2, r3}
10000596:	b500      	push	{lr}
10000598:	b083      	sub	sp, #12
1000059a:	9c04      	ldr	r4, [sp, #16]
1000059c:	4807      	ldr	r0, [pc, #28]	@ (100005bc <panic+0x28>)
1000059e:	f003 fa51 	bl	10003a44 <__wrap_puts>
100005a2:	b13c      	cbz	r4, 100005b4 <panic+0x20>
100005a4:	a905      	add	r1, sp, #20
100005a6:	4620      	mov	r0, r4
100005a8:	9101      	str	r1, [sp, #4]
100005aa:	f003 f82d 	bl	10003608 <weak_raw_vprintf>
100005ae:	4804      	ldr	r0, [pc, #16]	@ (100005c0 <panic+0x2c>)
100005b0:	f003 fa48 	bl	10003a44 <__wrap_puts>
100005b4:	2001      	movs	r0, #1
100005b6:	f003 f83f 	bl	10003638 <_exit>
100005ba:	bf00      	nop
100005bc:	10012c1c 	.word	0x10012c1c
100005c0:	10012c2c 	.word	0x10012c2c

100005c4 <hw_claim_lock>:
100005c4:	f3ef 8010 	mrs	r0, PRIMASK
100005c8:	b672      	cpsid	i
100005ca:	4b06      	ldr	r3, [pc, #24]	@ (100005e4 <hw_claim_lock+0x20>)
100005cc:	e8d3 1fcf 	ldaexb	r1, [r3]
100005d0:	2201      	movs	r2, #1
100005d2:	2900      	cmp	r1, #0
100005d4:	d1fa      	bne.n	100005cc <hw_claim_lock+0x8>
100005d6:	e8c3 2f41 	strexb	r1, r2, [r3]
100005da:	2900      	cmp	r1, #0
100005dc:	d1f6      	bne.n	100005cc <hw_claim_lock+0x8>
100005de:	f3bf 8f5f 	dmb	sy
100005e2:	4770      	bx	lr
100005e4:	2000315f 	.word	0x2000315f

100005e8 <hw_claim_unlock>:
100005e8:	2300      	movs	r3, #0
100005ea:	4a03      	ldr	r2, [pc, #12]	@ (100005f8 <hw_claim_unlock+0x10>)
100005ec:	e8c2 3f8f 	stlb	r3, [r2]
100005f0:	f380 8810 	msr	PRIMASK, r0
100005f4:	4770      	bx	lr
100005f6:	bf00      	nop
100005f8:	2000315f 	.word	0x2000315f

100005fc <hw_claim_or_assert>:
100005fc:	b570      	push	{r4, r5, r6, lr}
100005fe:	4686      	mov	lr, r0
10000600:	f3ef 8510 	mrs	r5, PRIMASK
10000604:	b672      	cpsid	i
10000606:	4c12      	ldr	r4, [pc, #72]	@ (10000650 <hw_claim_or_assert+0x54>)
10000608:	e8d4 6fcf 	ldaexb	r6, [r4]
1000060c:	2001      	movs	r0, #1
1000060e:	2e00      	cmp	r6, #0
10000610:	d1fa      	bne.n	10000608 <hw_claim_or_assert+0xc>
10000612:	e8c4 0f46 	strexb	r6, r0, [r4]
10000616:	2e00      	cmp	r6, #0
10000618:	d1f6      	bne.n	10000608 <hw_claim_or_assert+0xc>
1000061a:	f3bf 8f5f 	dmb	sy
1000061e:	f04f 0c01 	mov.w	ip, #1
10000622:	08c8      	lsrs	r0, r1, #3
10000624:	f001 0307 	and.w	r3, r1, #7
10000628:	fa0c f303 	lsl.w	r3, ip, r3
1000062c:	f81e c000 	ldrb.w	ip, [lr, r0]
10000630:	ea1c 0603 	ands.w	r6, ip, r3
10000634:	d108      	bne.n	10000648 <hw_claim_or_assert+0x4c>
10000636:	ea4c 0c03 	orr.w	ip, ip, r3
1000063a:	f80e c000 	strb.w	ip, [lr, r0]
1000063e:	e8c4 6f8f 	stlb	r6, [r4]
10000642:	f385 8810 	msr	PRIMASK, r5
10000646:	bd70      	pop	{r4, r5, r6, pc}
10000648:	4610      	mov	r0, r2
1000064a:	f7ff ffa3 	bl	10000594 <panic>
1000064e:	bf00      	nop
10000650:	2000315f 	.word	0x2000315f

10000654 <hw_claim_unused_from_range>:
10000654:	b5f8      	push	{r3, r4, r5, r6, r7, lr}
10000656:	f3ef 8510 	mrs	r5, PRIMASK
1000065a:	b672      	cpsid	i
1000065c:	4c23      	ldr	r4, [pc, #140]	@ (100006ec <hw_claim_unused_from_range+0x98>)
1000065e:	e8d4 7fcf 	ldaexb	r7, [r4]
10000662:	2601      	movs	r6, #1
10000664:	2f00      	cmp	r7, #0
10000666:	d1fa      	bne.n	1000065e <hw_claim_unused_from_range+0xa>
10000668:	e8c4 6f47 	strexb	r7, r6, [r4]
1000066c:	2f00      	cmp	r7, #0
1000066e:	d1f6      	bne.n	1000065e <hw_claim_unused_from_range+0xa>
10000670:	f3bf 8f5f 	dmb	sy
10000674:	429a      	cmp	r2, r3
10000676:	d827      	bhi.n	100006c8 <hw_claim_unused_from_range+0x74>
10000678:	2601      	movs	r6, #1
1000067a:	08d7      	lsrs	r7, r2, #3
1000067c:	f810 e007 	ldrb.w	lr, [r0, r7]
10000680:	f002 0c07 	and.w	ip, r2, #7
10000684:	fa06 fc0c 	lsl.w	ip, r6, ip
10000688:	ea1e 0f0c 	tst.w	lr, ip
1000068c:	eb00 07d2 	add.w	r7, r0, r2, lsr #3
10000690:	d10d      	bne.n	100006ae <hw_claim_unused_from_range+0x5a>
10000692:	e025      	b.n	100006e0 <hw_claim_unused_from_range+0x8c>
10000694:	ea4f 0ed2 	mov.w	lr, r2, lsr #3
10000698:	f810 e00e 	ldrb.w	lr, [r0, lr]
1000069c:	f002 0c07 	and.w	ip, r2, #7
100006a0:	fa06 fc0c 	lsl.w	ip, r6, ip
100006a4:	ea1e 0f0c 	tst.w	lr, ip
100006a8:	eb00 07d2 	add.w	r7, r0, r2, lsr #3
100006ac:	d018      	beq.n	100006e0 <hw_claim_unused_from_range+0x8c>
100006ae:	3201      	adds	r2, #1
100006b0:	4293      	cmp	r3, r2
100006b2:	d2ef      	bcs.n	10000694 <hw_claim_unused_from_range+0x40>
100006b4:	f04f 30ff 	mov.w	r0, #4294967295	@ 0xffffffff
100006b8:	2300      	movs	r3, #0
100006ba:	e8c4 3f8f 	stlb	r3, [r4]
100006be:	f385 8810 	msr	PRIMASK, r5
100006c2:	4298      	cmp	r0, r3
100006c4:	db07      	blt.n	100006d6 <hw_claim_unused_from_range+0x82>
100006c6:	bdf8      	pop	{r3, r4, r5, r6, r7, pc}
100006c8:	2300      	movs	r3, #0
100006ca:	e8c4 3f8f 	stlb	r3, [r4]
100006ce:	f385 8810 	msr	PRIMASK, r5
100006d2:	f04f 30ff 	mov.w	r0, #4294967295	@ 0xffffffff
100006d6:	2900      	cmp	r1, #0
100006d8:	d0f5      	beq.n	100006c6 <hw_claim_unused_from_range+0x72>
100006da:	9806      	ldr	r0, [sp, #24]
100006dc:	f7ff ff5a 	bl	10000594 <panic>
100006e0:	ea4e 0e0c 	orr.w	lr, lr, ip
100006e4:	4610      	mov	r0, r2
100006e6:	f887 e000 	strb.w	lr, [r7]
100006ea:	e7e5      	b.n	100006b8 <hw_claim_unused_from_range+0x64>
100006ec:	2000315f 	.word	0x2000315f

100006f0 <next_striped_spin_lock_num>:
100006f0:	4a04      	ldr	r2, [pc, #16]	@ (10000704 <next_striped_spin_lock_num+0x14>)
100006f2:	7810      	ldrb	r0, [r2, #0]
100006f4:	1c43      	adds	r3, r0, #1
100006f6:	b2db      	uxtb	r3, r3
100006f8:	2b18      	cmp	r3, #24
100006fa:	bf28      	it	cs
100006fc:	2310      	movcs	r3, #16
100006fe:	7013      	strb	r3, [r2, #0]
10000700:	4770      	bx	lr
10000702:	bf00      	nop
10000704:	20002238 	.word	0x20002238

10000708 <spin_lock_claim_unused>:
10000708:	b510      	push	{r4, lr}
1000070a:	4c05      	ldr	r4, [pc, #20]	@ (10000720 <spin_lock_claim_unused+0x18>)
1000070c:	b082      	sub	sp, #8
1000070e:	4601      	mov	r1, r0
10000710:	231f      	movs	r3, #31
10000712:	2218      	movs	r2, #24
10000714:	9400      	str	r4, [sp, #0]
10000716:	4803      	ldr	r0, [pc, #12]	@ (10000724 <spin_lock_claim_unused+0x1c>)
10000718:	f7ff ff9c 	bl	10000654 <hw_claim_unused_from_range>
1000071c:	b002      	add	sp, #8
1000071e:	bd10      	pop	{r4, pc}
10000720:	10012c30 	.word	0x10012c30
10000724:	200032e8 	.word	0x200032e8

10000728 <spinlock_set_extexclall>:
10000728:	f04f 22e0 	mov.w	r2, #3758153728	@ 0xe000e000
1000072c:	6893      	ldr	r3, [r2, #8]
1000072e:	f043 5300 	orr.w	r3, r3, #536870912	@ 0x20000000
10000732:	6093      	str	r3, [r2, #8]
10000734:	4770      	bx	lr
10000736:	bf00      	nop

10000738 <spin_locks_reset>:
10000738:	2100      	movs	r1, #0
1000073a:	4b04      	ldr	r3, [pc, #16]	@ (1000074c <spin_locks_reset+0x14>)
1000073c:	f103 0220 	add.w	r2, r3, #32
10000740:	e8c3 1f8f 	stlb	r1, [r3]
10000744:	3301      	adds	r3, #1
10000746:	4293      	cmp	r3, r2
10000748:	d1fa      	bne.n	10000740 <spin_locks_reset+0x8>
1000074a:	4770      	bx	lr
1000074c:	20003154 	.word	0x20003154

10000750 <runtime_init_per_core_irq_priorities>:
10000750:	f04f 23e0 	mov.w	r3, #3758153728	@ 0xe000e000
10000754:	f04f 3280 	mov.w	r2, #2155905152	@ 0x80808080
10000758:	f8c3 2400 	str.w	r2, [r3, #1024]	@ 0x400
1000075c:	f8c3 2404 	str.w	r2, [r3, #1028]	@ 0x404
10000760:	f8c3 2408 	str.w	r2, [r3, #1032]	@ 0x408
10000764:	f8c3 240c 	str.w	r2, [r3, #1036]	@ 0x40c
10000768:	f8c3 2410 	str.w	r2, [r3, #1040]	@ 0x410
1000076c:	f8c3 2414 	str.w	r2, [r3, #1044]	@ 0x414
10000770:	f8c3 2418 	str.w	r2, [r3, #1048]	@ 0x418
10000774:	f8c3 241c 	str.w	r2, [r3, #1052]	@ 0x41c
10000778:	f8c3 2420 	str.w	r2, [r3, #1056]	@ 0x420
1000077c:	f8c3 2424 	str.w	r2, [r3, #1060]	@ 0x424
10000780:	f8c3 2428 	str.w	r2, [r3, #1064]	@ 0x428
10000784:	f8c3 242c 	str.w	r2, [r3, #1068]	@ 0x42c
10000788:	f8c3 2430 	str.w	r2, [r3, #1072]	@ 0x430
1000078c:	4770      	bx	lr
1000078e:	bf00      	nop

10000790 <irq_set_enabled>:
10000790:	2301      	movs	r3, #1
10000792:	f000 021f 	and.w	r2, r0, #31
10000796:	4093      	lsls	r3, r2
10000798:	0940      	lsrs	r0, r0, #5
1000079a:	b141      	cbz	r1, 100007ae <irq_set_enabled+0x1e>
1000079c:	0080      	lsls	r0, r0, #2
1000079e:	f100 4060 	add.w	r0, r0, #3758096384	@ 0xe0000000
100007a2:	f500 4061 	add.w	r0, r0, #57600	@ 0xe100
100007a6:	f8c0 3180 	str.w	r3, [r0, #384]	@ 0x180
100007aa:	6003      	str	r3, [r0, #0]
100007ac:	4770      	bx	lr
100007ae:	4a02      	ldr	r2, [pc, #8]	@ (100007b8 <irq_set_enabled+0x28>)
100007b0:	3020      	adds	r0, #32
100007b2:	f842 3020 	str.w	r3, [r2, r0, lsl #2]
100007b6:	4770      	bx	lr
100007b8:	e000e100 	.word	0xe000e100

100007bc <irq_is_enabled>:
100007bc:	2301      	movs	r3, #1
100007be:	4a06      	ldr	r2, [pc, #24]	@ (100007d8 <irq_is_enabled+0x1c>)
100007c0:	0941      	lsrs	r1, r0, #5
100007c2:	f852 2021 	ldr.w	r2, [r2, r1, lsl #2]
100007c6:	f000 001f 	and.w	r0, r0, #31
100007ca:	4083      	lsls	r3, r0
100007cc:	4213      	tst	r3, r2
100007ce:	bf14      	ite	ne
100007d0:	2001      	movne	r0, #1
100007d2:	2000      	moveq	r0, #0
100007d4:	4770      	bx	lr
100007d6:	bf00      	nop
100007d8:	e000e100 	.word	0xe000e100

100007dc <irq_set_pending>:
100007dc:	2201      	movs	r2, #1
100007de:	0943      	lsrs	r3, r0, #5
100007e0:	4903      	ldr	r1, [pc, #12]	@ (100007f0 <irq_set_pending+0x14>)
100007e2:	f000 001f 	and.w	r0, r0, #31
100007e6:	4082      	lsls	r2, r0
100007e8:	3340      	adds	r3, #64	@ 0x40
100007ea:	f841 2023 	str.w	r2, [r1, r3, lsl #2]
100007ee:	4770      	bx	lr
100007f0:	e000e100 	.word	0xe000e100

100007f4 <irq_has_shared_handler>:
100007f4:	4b06      	ldr	r3, [pc, #24]	@ (10000810 <irq_has_shared_handler+0x1c>)
100007f6:	3010      	adds	r0, #16
100007f8:	689b      	ldr	r3, [r3, #8]
100007fa:	f853 0020 	ldr.w	r0, [r3, r0, lsl #2]
100007fe:	b128      	cbz	r0, 1000080c <irq_has_shared_handler+0x18>
10000800:	4b04      	ldr	r3, [pc, #16]	@ (10000814 <irq_has_shared_handler+0x20>)
10000802:	1ac0      	subs	r0, r0, r3
10000804:	282f      	cmp	r0, #47	@ 0x2f
10000806:	bf8c      	ite	hi
10000808:	2000      	movhi	r0, #0
1000080a:	2001      	movls	r0, #1
1000080c:	4770      	bx	lr
1000080e:	bf00      	nop
10000810:	e000ed00 	.word	0xe000ed00
10000814:	2000223c 	.word	0x2000223c

10000818 <irq_set_exclusive_handler>:
10000818:	b5f8      	push	{r3, r4, r5, r6, r7, lr}
1000081a:	460d      	mov	r5, r1
1000081c:	f3ef 8710 	mrs	r7, PRIMASK
10000820:	b672      	cpsid	i
10000822:	4e12      	ldr	r6, [pc, #72]	@ (1000086c <irq_set_exclusive_handler+0x54>)
10000824:	e8d6 2fcf 	ldaexb	r2, [r6]
10000828:	2301      	movs	r3, #1
1000082a:	2a00      	cmp	r2, #0
1000082c:	d1fa      	bne.n	10000824 <irq_set_exclusive_handler+0xc>
1000082e:	e8c6 3f42 	strexb	r2, r3, [r6]
10000832:	2a00      	cmp	r2, #0
10000834:	d1f6      	bne.n	10000824 <irq_set_exclusive_handler+0xc>
10000836:	f3bf 8f5f 	dmb	sy
1000083a:	4b0d      	ldr	r3, [pc, #52]	@ (10000870 <irq_set_exclusive_handler+0x58>)
1000083c:	f100 0410 	add.w	r4, r0, #16
10000840:	689b      	ldr	r3, [r3, #8]
10000842:	4a0c      	ldr	r2, [pc, #48]	@ (10000874 <irq_set_exclusive_handler+0x5c>)
10000844:	f853 3024 	ldr.w	r3, [r3, r4, lsl #2]
10000848:	4293      	cmp	r3, r2
1000084a:	d003      	beq.n	10000854 <irq_set_exclusive_handler+0x3c>
1000084c:	4299      	cmp	r1, r3
1000084e:	d001      	beq.n	10000854 <irq_set_exclusive_handler+0x3c>
10000850:	f001 f90c 	bl	10001a6c <hard_assertion_failure>
10000854:	4b06      	ldr	r3, [pc, #24]	@ (10000870 <irq_set_exclusive_handler+0x58>)
10000856:	689b      	ldr	r3, [r3, #8]
10000858:	f843 5024 	str.w	r5, [r3, r4, lsl #2]
1000085c:	f3bf 8f5f 	dmb	sy
10000860:	2300      	movs	r3, #0
10000862:	e8c6 3f8f 	stlb	r3, [r6]
10000866:	f387 8810 	msr	PRIMASK, r7
1000086a:	bdf8      	pop	{r3, r4, r5, r6, r7, pc}
1000086c:	2000315d 	.word	0x2000315d
10000870:	e000ed00 	.word	0xe000ed00
10000874:	1000011d 	.word	0x1000011d

10000878 <irq_add_shared_handler>:
10000878:	e92d 4ff0 	stmdb	sp!, {r4, r5, r6, r7, r8, r9, sl, fp, lr}
1000087c:	4681      	mov	r9, r0
1000087e:	468b      	mov	fp, r1
10000880:	4616      	mov	r6, r2
10000882:	b083      	sub	sp, #12
10000884:	f3ef 8310 	mrs	r3, PRIMASK
10000888:	b672      	cpsid	i
1000088a:	f8df a1d0 	ldr.w	sl, [pc, #464]	@ 10000a5c <irq_add_shared_handler+0x1e4>
1000088e:	9300      	str	r3, [sp, #0]
10000890:	e8da 1fcf 	ldaexb	r1, [sl]
10000894:	2301      	movs	r3, #1
10000896:	2900      	cmp	r1, #0
10000898:	d1fa      	bne.n	10000890 <irq_add_shared_handler+0x18>
1000089a:	e8ca 3f41 	strexb	r1, r3, [sl]
1000089e:	2900      	cmp	r1, #0
100008a0:	d1f6      	bne.n	10000890 <irq_add_shared_handler+0x18>
100008a2:	f3bf 8f5f 	dmb	sy
100008a6:	4b66      	ldr	r3, [pc, #408]	@ (10000a40 <irq_add_shared_handler+0x1c8>)
100008a8:	f993 4000 	ldrsb.w	r4, [r3]
100008ac:	2c00      	cmp	r4, #0
100008ae:	f2c0 80a0 	blt.w	100009f2 <irq_add_shared_handler+0x17a>
100008b2:	4d64      	ldr	r5, [pc, #400]	@ (10000a44 <irq_add_shared_handler+0x1cc>)
100008b4:	eb04 0744 	add.w	r7, r4, r4, lsl #1
100008b8:	eb05 0887 	add.w	r8, r5, r7, lsl #2
100008bc:	f898 1006 	ldrb.w	r1, [r8, #6]
100008c0:	f109 0910 	add.w	r9, r9, #16
100008c4:	7019      	strb	r1, [r3, #0]
100008c6:	4b60      	ldr	r3, [pc, #384]	@ (10000a48 <irq_add_shared_handler+0x1d0>)
100008c8:	00bf      	lsls	r7, r7, #2
100008ca:	689b      	ldr	r3, [r3, #8]
100008cc:	f853 0029 	ldr.w	r0, [r3, r9, lsl #2]
100008d0:	0063      	lsls	r3, r4, #1
100008d2:	1b41      	subs	r1, r0, r5
100008d4:	292f      	cmp	r1, #47	@ 0x2f
100008d6:	d92f      	bls.n	10000938 <irq_add_shared_handler+0xc0>
100008d8:	495c      	ldr	r1, [pc, #368]	@ (10000a4c <irq_add_shared_handler+0x1d4>)
100008da:	4288      	cmp	r0, r1
100008dc:	f040 80a4 	bne.w	10000a28 <irq_add_shared_handler+0x1b0>
100008e0:	441c      	add	r4, r3
100008e2:	4b5b      	ldr	r3, [pc, #364]	@ (10000a50 <irq_add_shared_handler+0x1d8>)
100008e4:	3702      	adds	r7, #2
100008e6:	442f      	add	r7, r5
100008e8:	3b04      	subs	r3, #4
100008ea:	1bdb      	subs	r3, r3, r7
100008ec:	f3c3 034a 	ubfx	r3, r3, #1, #11
100008f0:	ea6f 43c3 	mvn.w	r3, r3, lsl #19
100008f4:	f44f 4121 	mov.w	r1, #41216	@ 0xa100
100008f8:	ea6f 43d3 	mvn.w	r3, r3, lsr #19
100008fc:	f825 1024 	strh.w	r1, [r5, r4, lsl #2]
10000900:	eb05 0484 	add.w	r4, r5, r4, lsl #2
10000904:	8063      	strh	r3, [r4, #2]
10000906:	f64b 5301 	movw	r3, #48385	@ 0xbd01
1000090a:	80a3      	strh	r3, [r4, #4]
1000090c:	23ff      	movs	r3, #255	@ 0xff
1000090e:	f048 0001 	orr.w	r0, r8, #1
10000912:	71e6      	strb	r6, [r4, #7]
10000914:	f8c4 b008 	str.w	fp, [r4, #8]
10000918:	71a3      	strb	r3, [r4, #6]
1000091a:	4b4b      	ldr	r3, [pc, #300]	@ (10000a48 <irq_add_shared_handler+0x1d0>)
1000091c:	689b      	ldr	r3, [r3, #8]
1000091e:	f843 0029 	str.w	r0, [r3, r9, lsl #2]
10000922:	f3bf 8f5f 	dmb	sy
10000926:	2300      	movs	r3, #0
10000928:	e8ca 3f8f 	stlb	r3, [sl]
1000092c:	9b00      	ldr	r3, [sp, #0]
1000092e:	f383 8810 	msr	PRIMASK, r3
10000932:	b003      	add	sp, #12
10000934:	e8bd 8ff0 	ldmia.w	sp!, {r4, r5, r6, r7, r8, r9, sl, fp, pc}
10000938:	f020 0e01 	bic.w	lr, r0, #1
1000093c:	f89e 1007 	ldrb.w	r1, [lr, #7]
10000940:	42b1      	cmp	r1, r6
10000942:	d82e      	bhi.n	100009a2 <irq_add_shared_handler+0x12a>
10000944:	f44f 4321 	mov.w	r3, #41216	@ 0xa100
10000948:	53eb      	strh	r3, [r5, r7]
1000094a:	4b41      	ldr	r3, [pc, #260]	@ (10000a50 <irq_add_shared_handler+0x1d8>)
1000094c:	1cb9      	adds	r1, r7, #2
1000094e:	4429      	add	r1, r5
10000950:	3b04      	subs	r3, #4
10000952:	3704      	adds	r7, #4
10000954:	1a5b      	subs	r3, r3, r1
10000956:	442f      	add	r7, r5
10000958:	f1ae 0104 	sub.w	r1, lr, #4
1000095c:	4c3d      	ldr	r4, [pc, #244]	@ (10000a54 <irq_add_shared_handler+0x1dc>)
1000095e:	1bc9      	subs	r1, r1, r7
10000960:	f3c1 014a 	ubfx	r1, r1, #1, #11
10000964:	4321      	orrs	r1, r4
10000966:	f8a8 1004 	strh.w	r1, [r8, #4]
1000096a:	f3c3 034a 	ubfx	r3, r3, #1, #11
1000096e:	493a      	ldr	r1, [pc, #232]	@ (10000a58 <irq_add_shared_handler+0x1e0>)
10000970:	4323      	orrs	r3, r4
10000972:	f8a8 3002 	strh.w	r3, [r8, #2]
10000976:	f64a 20aa 	movw	r0, #43690	@ 0xaaaa
1000097a:	4673      	mov	r3, lr
1000097c:	1b5b      	subs	r3, r3, r5
1000097e:	415b      	adcs	r3, r3
10000980:	4358      	muls	r0, r3
10000982:	0d00      	lsrs	r0, r0, #20
10000984:	f888 6007 	strb.w	r6, [r8, #7]
10000988:	f888 0006 	strb.w	r0, [r8, #6]
1000098c:	f8c8 b008 	str.w	fp, [r8, #8]
10000990:	f048 0001 	orr.w	r0, r8, #1
10000994:	f8ce 1000 	str.w	r1, [lr]
10000998:	e7bf      	b.n	1000091a <irq_add_shared_handler+0xa2>
1000099a:	79d1      	ldrb	r1, [r2, #7]
1000099c:	42b1      	cmp	r1, r6
1000099e:	d92e      	bls.n	100009fe <irq_add_shared_handler+0x186>
100009a0:	4696      	mov	lr, r2
100009a2:	f99e c006 	ldrsb.w	ip, [lr, #6]
100009a6:	eb0c 024c 	add.w	r2, ip, ip, lsl #1
100009aa:	f1bc 0f00 	cmp.w	ip, #0
100009ae:	eb05 0282 	add.w	r2, r5, r2, lsl #2
100009b2:	daf2      	bge.n	1000099a <irq_add_shared_handler+0x122>
100009b4:	f64b 5101 	movw	r1, #48385	@ 0xbd01
100009b8:	f10e 0204 	add.w	r2, lr, #4
100009bc:	f1a8 0704 	sub.w	r7, r8, #4
100009c0:	1abf      	subs	r7, r7, r2
100009c2:	f3c7 074a 	ubfx	r7, r7, #1, #11
100009c6:	ea6f 47c7 	mvn.w	r7, r7, lsl #19
100009ca:	ea6f 47d7 	mvn.w	r7, r7, lsr #19
100009ce:	f88e 4006 	strb.w	r4, [lr, #6]
100009d2:	eb03 0804 	add.w	r8, r3, r4
100009d6:	4c20      	ldr	r4, [pc, #128]	@ (10000a58 <irq_add_shared_handler+0x1e0>)
100009d8:	eb05 0388 	add.w	r3, r5, r8, lsl #2
100009dc:	f8ae 7004 	strh.w	r7, [lr, #4]
100009e0:	f845 4028 	str.w	r4, [r5, r8, lsl #2]
100009e4:	8099      	strh	r1, [r3, #4]
100009e6:	f883 c006 	strb.w	ip, [r3, #6]
100009ea:	71de      	strb	r6, [r3, #7]
100009ec:	f8c3 b008 	str.w	fp, [r3, #8]
100009f0:	e793      	b.n	1000091a <irq_add_shared_handler+0xa2>
100009f2:	f001 f83b 	bl	10001a6c <hard_assertion_failure>
100009f6:	4b12      	ldr	r3, [pc, #72]	@ (10000a40 <irq_add_shared_handler+0x1c8>)
100009f8:	f993 4000 	ldrsb.w	r4, [r3]
100009fc:	e759      	b.n	100008b2 <irq_add_shared_handler+0x3a>
100009fe:	4672      	mov	r2, lr
10000a00:	f832 1f04 	ldrh.w	r1, [r2, #4]!
10000a04:	0549      	lsls	r1, r1, #21
10000a06:	d414      	bmi.n	10000a32 <irq_add_shared_handler+0x1ba>
10000a08:	1549      	asrs	r1, r1, #21
10000a0a:	3102      	adds	r1, #2
10000a0c:	eb02 0141 	add.w	r1, r2, r1, lsl #1
10000a10:	9101      	str	r1, [sp, #4]
10000a12:	f06f 0107 	mvn.w	r1, #7
10000a16:	1bc9      	subs	r1, r1, r7
10000a18:	9f01      	ldr	r7, [sp, #4]
10000a1a:	1b49      	subs	r1, r1, r5
10000a1c:	4439      	add	r1, r7
10000a1e:	f3c1 014a 	ubfx	r1, r1, #1, #11
10000a22:	f441 4160 	orr.w	r1, r1, #57344	@ 0xe000
10000a26:	e7c9      	b.n	100009bc <irq_add_shared_handler+0x144>
10000a28:	9301      	str	r3, [sp, #4]
10000a2a:	f001 f81f 	bl	10001a6c <hard_assertion_failure>
10000a2e:	9b01      	ldr	r3, [sp, #4]
10000a30:	e756      	b.n	100008e0 <irq_add_shared_handler+0x68>
10000a32:	f501 11ff 	add.w	r1, r1, #2088960	@ 0x1fe000
10000a36:	f501 51ff 	add.w	r1, r1, #8160	@ 0x1fe0
10000a3a:	311f      	adds	r1, #31
10000a3c:	e7e4      	b.n	10000a08 <irq_add_shared_handler+0x190>
10000a3e:	bf00      	nop
10000a40:	20025164 	.word	0x20025164
10000a44:	2000223c 	.word	0x2000223c
10000a48:	e000ed00 	.word	0xe000ed00
10000a4c:	1000011d 	.word	0x1000011d
10000a50:	2000226c 	.word	0x2000226c
10000a54:	ffffe000 	.word	0xffffe000
10000a58:	47804801 	.word	0x47804801
10000a5c:	2000315d 	.word	0x2000315d

10000a60 <irq_remove_handler>:
10000a60:	e92d 4ff0 	stmdb	sp!, {r4, r5, r6, r7, r8, r9, sl, fp, lr}
10000a64:	b083      	sub	sp, #12
10000a66:	f3ef 8a10 	mrs	sl, PRIMASK
10000a6a:	b672      	cpsid	i
10000a6c:	4e74      	ldr	r6, [pc, #464]	@ (10000c40 <irq_remove_handler+0x1e0>)
10000a6e:	e8d6 2fcf 	ldaexb	r2, [r6]
10000a72:	2301      	movs	r3, #1
10000a74:	2a00      	cmp	r2, #0
10000a76:	d1fa      	bne.n	10000a6e <irq_remove_handler+0xe>
10000a78:	e8c6 3f42 	strexb	r2, r3, [r6]
10000a7c:	2a00      	cmp	r2, #0
10000a7e:	d1f6      	bne.n	10000a6e <irq_remove_handler+0xe>
10000a80:	f3bf 8f5f 	dmb	sy
10000a84:	4b6f      	ldr	r3, [pc, #444]	@ (10000c44 <irq_remove_handler+0x1e4>)
10000a86:	f100 0810 	add.w	r8, r0, #16
10000a8a:	689b      	ldr	r3, [r3, #8]
10000a8c:	4a6e      	ldr	r2, [pc, #440]	@ (10000c48 <irq_remove_handler+0x1e8>)
10000a8e:	f853 5028 	ldr.w	r5, [r3, r8, lsl #2]
10000a92:	4295      	cmp	r5, r2
10000a94:	d03f      	beq.n	10000b16 <irq_remove_handler+0xb6>
10000a96:	428d      	cmp	r5, r1
10000a98:	460c      	mov	r4, r1
10000a9a:	d04a      	beq.n	10000b32 <irq_remove_handler+0xd2>
10000a9c:	4f6b      	ldr	r7, [pc, #428]	@ (10000c4c <irq_remove_handler+0x1ec>)
10000a9e:	1beb      	subs	r3, r5, r7
10000aa0:	2b2f      	cmp	r3, #47	@ 0x2f
10000aa2:	d838      	bhi.n	10000b16 <irq_remove_handler+0xb6>
10000aa4:	2101      	movs	r1, #1
10000aa6:	ea4f 1950 	mov.w	r9, r0, lsr #5
10000aaa:	ea4f 0989 	mov.w	r9, r9, lsl #2
10000aae:	f109 4960 	add.w	r9, r9, #3758096384	@ 0xe0000000
10000ab2:	f509 4961 	add.w	r9, r9, #57600	@ 0xe100
10000ab6:	f000 031f 	and.w	r3, r0, #31
10000aba:	fa01 f003 	lsl.w	r0, r1, r3
10000abe:	f8d9 3000 	ldr.w	r3, [r9]
10000ac2:	f8c9 0080 	str.w	r0, [r9, #128]	@ 0x80
10000ac6:	ea00 0b03 	and.w	fp, r0, r3
10000aca:	f3bf 8f5f 	dmb	sy
10000ace:	f3ef 8105 	mrs	r1, IPSR
10000ad2:	b2c9      	uxtb	r1, r1
10000ad4:	b379      	cbz	r1, 10000b36 <irq_remove_handler+0xd6>
10000ad6:	4588      	cmp	r8, r1
10000ad8:	d177      	bne.n	10000bca <irq_remove_handler+0x16a>
10000ada:	f025 0e01 	bic.w	lr, r5, #1
10000ade:	f8de c008 	ldr.w	ip, [lr, #8]
10000ae2:	4564      	cmp	r4, ip
10000ae4:	d105      	bne.n	10000af2 <irq_remove_handler+0x92>
10000ae6:	e07c      	b.n	10000be2 <irq_remove_handler+0x182>
10000ae8:	f8d3 c008 	ldr.w	ip, [r3, #8]
10000aec:	4564      	cmp	r4, ip
10000aee:	d032      	beq.n	10000b56 <irq_remove_handler+0xf6>
10000af0:	469e      	mov	lr, r3
10000af2:	f99e 2006 	ldrsb.w	r2, [lr, #6]
10000af6:	eb02 0342 	add.w	r3, r2, r2, lsl #1
10000afa:	2a00      	cmp	r2, #0
10000afc:	eb07 0383 	add.w	r3, r7, r3, lsl #2
10000b00:	daf2      	bge.n	10000ae8 <irq_remove_handler+0x88>
10000b02:	4564      	cmp	r4, ip
10000b04:	f000 8081 	beq.w	10000c0a <irq_remove_handler+0x1aa>
10000b08:	f1bb 0f00 	cmp.w	fp, #0
10000b0c:	d020      	beq.n	10000b50 <irq_remove_handler+0xf0>
10000b0e:	f8c9 0180 	str.w	r0, [r9, #384]	@ 0x180
10000b12:	f8c9 0000 	str.w	r0, [r9]
10000b16:	4b4b      	ldr	r3, [pc, #300]	@ (10000c44 <irq_remove_handler+0x1e4>)
10000b18:	689b      	ldr	r3, [r3, #8]
10000b1a:	f843 5028 	str.w	r5, [r3, r8, lsl #2]
10000b1e:	f3bf 8f5f 	dmb	sy
10000b22:	2300      	movs	r3, #0
10000b24:	e8c6 3f8f 	stlb	r3, [r6]
10000b28:	f38a 8810 	msr	PRIMASK, sl
10000b2c:	b003      	add	sp, #12
10000b2e:	e8bd 8ff0 	ldmia.w	sp!, {r4, r5, r6, r7, r8, r9, sl, fp, pc}
10000b32:	4615      	mov	r5, r2
10000b34:	e7ef      	b.n	10000b16 <irq_remove_handler+0xb6>
10000b36:	f025 0e01 	bic.w	lr, r5, #1
10000b3a:	f8de c008 	ldr.w	ip, [lr, #8]
10000b3e:	4564      	cmp	r4, ip
10000b40:	d1d7      	bne.n	10000af2 <irq_remove_handler+0x92>
10000b42:	f99e 4006 	ldrsb.w	r4, [lr, #6]
10000b46:	4673      	mov	r3, lr
10000b48:	2c00      	cmp	r4, #0
10000b4a:	da08      	bge.n	10000b5e <irq_remove_handler+0xfe>
10000b4c:	4615      	mov	r5, r2
10000b4e:	e066      	b.n	10000c1e <irq_remove_handler+0x1be>
10000b50:	f8c9 0080 	str.w	r0, [r9, #128]	@ 0x80
10000b54:	e7df      	b.n	10000b16 <irq_remove_handler+0xb6>
10000b56:	f993 4006 	ldrsb.w	r4, [r3, #6]
10000b5a:	2c00      	cmp	r4, #0
10000b5c:	db56      	blt.n	10000c0c <irq_remove_handler+0x1ac>
10000b5e:	eb04 0c44 	add.w	ip, r4, r4, lsl #1
10000b62:	eb07 0c8c 	add.w	ip, r7, ip, lsl #2
10000b66:	f8dc 2008 	ldr.w	r2, [ip, #8]
10000b6a:	0061      	lsls	r1, r4, #1
10000b6c:	609a      	str	r2, [r3, #8]
10000b6e:	f89c 2007 	ldrb.w	r2, [ip, #7]
10000b72:	71da      	strb	r2, [r3, #7]
10000b74:	f99c 2006 	ldrsb.w	r2, [ip, #6]
10000b78:	2a00      	cmp	r2, #0
10000b7a:	719a      	strb	r2, [r3, #6]
10000b7c:	db5d      	blt.n	10000c3a <irq_remove_handler+0x1da>
10000b7e:	f8bc 2004 	ldrh.w	r2, [ip, #4]
10000b82:	0552      	lsls	r2, r2, #21
10000b84:	d504      	bpl.n	10000b90 <irq_remove_handler+0x130>
10000b86:	f502 12ff 	add.w	r2, r2, #2088960	@ 0x1fe000
10000b8a:	f502 52ff 	add.w	r2, r2, #8160	@ 0x1fe0
10000b8e:	321f      	adds	r2, #31
10000b90:	1552      	asrs	r2, r2, #21
10000b92:	f102 0c02 	add.w	ip, r2, #2
10000b96:	f04f 0e04 	mov.w	lr, #4
10000b9a:	220c      	movs	r2, #12
10000b9c:	fb12 e204 	smlabb	r2, r2, r4, lr
10000ba0:	eb02 024c 	add.w	r2, r2, ip, lsl #1
10000ba4:	f06f 0c07 	mvn.w	ip, #7
10000ba8:	443a      	add	r2, r7
10000baa:	ebac 0c03 	sub.w	ip, ip, r3
10000bae:	4462      	add	r2, ip
10000bb0:	f3c2 024a 	ubfx	r2, r2, #1, #11
10000bb4:	f442 4260 	orr.w	r2, r2, #57344	@ 0xe000
10000bb8:	809a      	strh	r2, [r3, #4]
10000bba:	4b25      	ldr	r3, [pc, #148]	@ (10000c50 <irq_remove_handler+0x1f0>)
10000bbc:	4421      	add	r1, r4
10000bbe:	781a      	ldrb	r2, [r3, #0]
10000bc0:	eb07 0181 	add.w	r1, r7, r1, lsl #2
10000bc4:	701c      	strb	r4, [r3, #0]
10000bc6:	718a      	strb	r2, [r1, #6]
10000bc8:	e79e      	b.n	10000b08 <irq_remove_handler+0xa8>
10000bca:	e9cd 0100 	strd	r0, r1, [sp]
10000bce:	f000 ff4d 	bl	10001a6c <hard_assertion_failure>
10000bd2:	e9dd 0100 	ldrd	r0, r1, [sp]
10000bd6:	f025 0e01 	bic.w	lr, r5, #1
10000bda:	f8de c008 	ldr.w	ip, [lr, #8]
10000bde:	4564      	cmp	r4, ip
10000be0:	d187      	bne.n	10000af2 <irq_remove_handler+0x92>
10000be2:	f99e 4006 	ldrsb.w	r4, [lr, #6]
10000be6:	4673      	mov	r3, lr
10000be8:	2c00      	cmp	r4, #0
10000bea:	dab8      	bge.n	10000b5e <irq_remove_handler+0xfe>
10000bec:	4a19      	ldr	r2, [pc, #100]	@ (10000c54 <irq_remove_handler+0x1f4>)
10000bee:	4c1a      	ldr	r4, [pc, #104]	@ (10000c58 <irq_remove_handler+0x1f8>)
10000bf0:	1ad2      	subs	r2, r2, r3
10000bf2:	3a08      	subs	r2, #8
10000bf4:	f3c2 310a 	ubfx	r1, r2, #12, #11
10000bf8:	ea6f 5101 	mvn.w	r1, r1, lsl #20
10000bfc:	ea6f 5111 	mvn.w	r1, r1, lsr #20
10000c00:	ea44 0252 	orr.w	r2, r4, r2, lsr #1
10000c04:	80da      	strh	r2, [r3, #6]
10000c06:	8099      	strh	r1, [r3, #4]
10000c08:	e77e      	b.n	10000b08 <irq_remove_handler+0xa8>
10000c0a:	4673      	mov	r3, lr
10000c0c:	2900      	cmp	r1, #0
10000c0e:	d1ed      	bne.n	10000bec <irq_remove_handler+0x18c>
10000c10:	22ff      	movs	r2, #255	@ 0xff
10000c12:	f88e 2006 	strb.w	r2, [lr, #6]
10000c16:	f64b 5201 	movw	r2, #48385	@ 0xbd01
10000c1a:	f8ae 2004 	strh.w	r2, [lr, #4]
10000c1e:	4c0c      	ldr	r4, [pc, #48]	@ (10000c50 <irq_remove_handler+0x1f0>)
10000c20:	f64a 22aa 	movw	r2, #43690	@ 0xaaaa
10000c24:	f894 c000 	ldrb.w	ip, [r4]
10000c28:	4619      	mov	r1, r3
10000c2a:	1bc9      	subs	r1, r1, r7
10000c2c:	4149      	adcs	r1, r1
10000c2e:	434a      	muls	r2, r1
10000c30:	0d12      	lsrs	r2, r2, #20
10000c32:	f883 c006 	strb.w	ip, [r3, #6]
10000c36:	7022      	strb	r2, [r4, #0]
10000c38:	e766      	b.n	10000b08 <irq_remove_handler+0xa8>
10000c3a:	f64b 5201 	movw	r2, #48385	@ 0xbd01
10000c3e:	e7bb      	b.n	10000bb8 <irq_remove_handler+0x158>
10000c40:	2000315d 	.word	0x2000315d
10000c44:	e000ed00 	.word	0xe000ed00
10000c48:	1000011d 	.word	0x1000011d
10000c4c:	2000223c 	.word	0x2000223c
10000c50:	20025164 	.word	0x20025164
10000c54:	20002276 	.word	0x20002276
10000c58:	fffff800 	.word	0xfffff800

10000c5c <irq_set_priority>:
10000c5c:	f04f 0cff 	mov.w	ip, #255	@ 0xff
10000c60:	f020 0303 	bic.w	r3, r0, #3
10000c64:	f103 4360 	add.w	r3, r3, #3758096384	@ 0xe0000000
10000c68:	f503 4364 	add.w	r3, r3, #58368	@ 0xe400
10000c6c:	f000 0003 	and.w	r0, r0, #3
10000c70:	681a      	ldr	r2, [r3, #0]
10000c72:	00c0      	lsls	r0, r0, #3
10000c74:	fa0c fc00 	lsl.w	ip, ip, r0
10000c78:	ea22 020c 	bic.w	r2, r2, ip
10000c7c:	4081      	lsls	r1, r0
10000c7e:	430a      	orrs	r2, r1
10000c80:	601a      	str	r2, [r3, #0]
10000c82:	4770      	bx	lr

10000c84 <irq_add_tail_to_free_list>:
10000c84:	b5f0      	push	{r4, r5, r6, r7, lr}
10000c86:	f3ef 8505 	mrs	r5, IPSR
10000c8a:	b2ed      	uxtb	r5, r5
10000c8c:	f3ef 8c10 	mrs	ip, PRIMASK
10000c90:	b672      	cpsid	i
10000c92:	4926      	ldr	r1, [pc, #152]	@ (10000d2c <irq_add_tail_to_free_list+0xa8>)
10000c94:	e8d1 2fcf 	ldaexb	r2, [r1]
10000c98:	2301      	movs	r3, #1
10000c9a:	2a00      	cmp	r2, #0
10000c9c:	d1fa      	bne.n	10000c94 <irq_add_tail_to_free_list+0x10>
10000c9e:	e8c1 3f42 	strexb	r2, r3, [r1]
10000ca2:	2a00      	cmp	r2, #0
10000ca4:	d1f6      	bne.n	10000c94 <irq_add_tail_to_free_list+0x10>
10000ca6:	f3bf 8f5f 	dmb	sy
10000caa:	4e21      	ldr	r6, [pc, #132]	@ (10000d30 <irq_add_tail_to_free_list+0xac>)
10000cac:	f040 0e01 	orr.w	lr, r0, #1
10000cb0:	68b4      	ldr	r4, [r6, #8]
10000cb2:	f64a 23aa 	movw	r3, #43690	@ 0xaaaa
10000cb6:	f854 7025 	ldr.w	r7, [r4, r5, lsl #2]
10000cba:	4a1e      	ldr	r2, [pc, #120]	@ (10000d34 <irq_add_tail_to_free_list+0xb0>)
10000cbc:	4604      	mov	r4, r0
10000cbe:	1aa4      	subs	r4, r4, r2
10000cc0:	4164      	adcs	r4, r4
10000cc2:	4363      	muls	r3, r4
10000cc4:	0d1b      	lsrs	r3, r3, #20
10000cc6:	4577      	cmp	r7, lr
10000cc8:	b25b      	sxtb	r3, r3
10000cca:	d01b      	beq.n	10000d04 <irq_add_tail_to_free_list+0x80>
10000ccc:	f992 4006 	ldrsb.w	r4, [r2, #6]
10000cd0:	429c      	cmp	r4, r3
10000cd2:	d01c      	beq.n	10000d0e <irq_add_tail_to_free_list+0x8a>
10000cd4:	f992 4012 	ldrsb.w	r4, [r2, #18]
10000cd8:	429c      	cmp	r4, r3
10000cda:	d023      	beq.n	10000d24 <irq_add_tail_to_free_list+0xa0>
10000cdc:	f992 401e 	ldrsb.w	r4, [r2, #30]
10000ce0:	429c      	cmp	r4, r3
10000ce2:	d021      	beq.n	10000d28 <irq_add_tail_to_free_list+0xa4>
10000ce4:	f992 402a 	ldrsb.w	r4, [r2, #42]	@ 0x2a
10000ce8:	429c      	cmp	r4, r3
10000cea:	bf08      	it	eq
10000cec:	2403      	moveq	r4, #3
10000cee:	d00f      	beq.n	10000d10 <irq_add_tail_to_free_list+0x8c>
10000cf0:	4a11      	ldr	r2, [pc, #68]	@ (10000d38 <irq_add_tail_to_free_list+0xb4>)
10000cf2:	2400      	movs	r4, #0
10000cf4:	7815      	ldrb	r5, [r2, #0]
10000cf6:	7013      	strb	r3, [r2, #0]
10000cf8:	7185      	strb	r5, [r0, #6]
10000cfa:	e8c1 4f8f 	stlb	r4, [r1]
10000cfe:	f38c 8810 	msr	PRIMASK, ip
10000d02:	bdf0      	pop	{r4, r5, r6, r7, pc}
10000d04:	68b2      	ldr	r2, [r6, #8]
10000d06:	4c0d      	ldr	r4, [pc, #52]	@ (10000d3c <irq_add_tail_to_free_list+0xb8>)
10000d08:	f842 4025 	str.w	r4, [r2, r5, lsl #2]
10000d0c:	e7f0      	b.n	10000cf0 <irq_add_tail_to_free_list+0x6c>
10000d0e:	2400      	movs	r4, #0
10000d10:	eb04 0444 	add.w	r4, r4, r4, lsl #1
10000d14:	eb02 0284 	add.w	r2, r2, r4, lsl #2
10000d18:	24ff      	movs	r4, #255	@ 0xff
10000d1a:	7194      	strb	r4, [r2, #6]
10000d1c:	f64b 5401 	movw	r4, #48385	@ 0xbd01
10000d20:	8094      	strh	r4, [r2, #4]
10000d22:	e7e5      	b.n	10000cf0 <irq_add_tail_to_free_list+0x6c>
10000d24:	2401      	movs	r4, #1
10000d26:	e7f3      	b.n	10000d10 <irq_add_tail_to_free_list+0x8c>
10000d28:	2402      	movs	r4, #2
10000d2a:	e7f1      	b.n	10000d10 <irq_add_tail_to_free_list+0x8c>
10000d2c:	2000315d 	.word	0x2000315d
10000d30:	e000ed00 	.word	0xe000ed00
10000d34:	2000223c 	.word	0x2000223c
10000d38:	20025164 	.word	0x20025164
10000d3c:	1000011d 	.word	0x1000011d

10000d40 <user_irq_claim_unused>:
10000d40:	b510      	push	{r4, lr}
10000d42:	4c07      	ldr	r4, [pc, #28]	@ (10000d60 <user_irq_claim_unused+0x20>)
10000d44:	b082      	sub	sp, #8
10000d46:	4601      	mov	r1, r0
10000d48:	2305      	movs	r3, #5
10000d4a:	2200      	movs	r2, #0
10000d4c:	9400      	str	r4, [sp, #0]
10000d4e:	4805      	ldr	r0, [pc, #20]	@ (10000d64 <user_irq_claim_unused+0x24>)
10000d50:	f7ff fc80 	bl	10000654 <hw_claim_unused_from_range>
10000d54:	2800      	cmp	r0, #0
10000d56:	bfa8      	it	ge
10000d58:	f1c0 0033 	rsbge	r0, r0, #51	@ 0x33
10000d5c:	b002      	add	sp, #8
10000d5e:	bd10      	pop	{r4, pc}
10000d60:	10012c4c 	.word	0x10012c4c
10000d64:	20025168 	.word	0x20025168

10000d68 <lock_init>:
10000d68:	4b01      	ldr	r3, [pc, #4]	@ (10000d70 <lock_init+0x8>)
10000d6a:	440b      	add	r3, r1
10000d6c:	6003      	str	r3, [r0, #0]
10000d6e:	4770      	bx	lr
10000d70:	20003154 	.word	0x20003154

10000d74 <runtime_init_mutex>:
10000d74:	b5f8      	push	{r3, r4, r5, r6, r7, lr}
10000d76:	4c12      	ldr	r4, [pc, #72]	@ (10000dc0 <runtime_init_mutex+0x4c>)
10000d78:	4d12      	ldr	r5, [pc, #72]	@ (10000dc4 <runtime_init_mutex+0x50>)
10000d7a:	42ac      	cmp	r4, r5
10000d7c:	d211      	bcs.n	10000da2 <runtime_init_mutex+0x2e>
10000d7e:	f04f 36ff 	mov.w	r6, #4294967295	@ 0xffffffff
10000d82:	2700      	movs	r7, #0
10000d84:	6823      	ldr	r3, [r4, #0]
10000d86:	b16b      	cbz	r3, 10000da4 <runtime_init_mutex+0x30>
10000d88:	f7ff fcb2 	bl	100006f0 <next_striped_spin_lock_num>
10000d8c:	4601      	mov	r1, r0
10000d8e:	4620      	mov	r0, r4
10000d90:	f7ff ffea 	bl	10000d68 <lock_init>
10000d94:	6066      	str	r6, [r4, #4]
10000d96:	7227      	strb	r7, [r4, #8]
10000d98:	f3bf 8f5f 	dmb	sy
10000d9c:	340c      	adds	r4, #12
10000d9e:	42ac      	cmp	r4, r5
10000da0:	d3f0      	bcc.n	10000d84 <runtime_init_mutex+0x10>
10000da2:	bdf8      	pop	{r3, r4, r5, r6, r7, pc}
10000da4:	f7ff fca4 	bl	100006f0 <next_striped_spin_lock_num>
10000da8:	4601      	mov	r1, r0
10000daa:	4620      	mov	r0, r4
10000dac:	f7ff ffdc 	bl	10000d68 <lock_init>
10000db0:	6066      	str	r6, [r4, #4]
10000db2:	f3bf 8f5f 	dmb	sy
10000db6:	3408      	adds	r4, #8
10000db8:	42ac      	cmp	r4, r5
10000dba:	d3e3      	bcc.n	10000d84 <runtime_init_mutex+0x10>
10000dbc:	bdf8      	pop	{r3, r4, r5, r6, r7, pc}
10000dbe:	bf00      	nop
10000dc0:	20002840 	.word	0x20002840
10000dc4:	20002850 	.word	0x20002850

10000dc8 <mutex_init>:
10000dc8:	b510      	push	{r4, lr}
10000dca:	4604      	mov	r4, r0
10000dcc:	f7ff fc90 	bl	100006f0 <next_striped_spin_lock_num>
10000dd0:	4601      	mov	r1, r0
10000dd2:	4620      	mov	r0, r4
10000dd4:	f7ff ffc8 	bl	10000d68 <lock_init>
10000dd8:	f04f 33ff 	mov.w	r3, #4294967295	@ 0xffffffff
10000ddc:	6063      	str	r3, [r4, #4]
10000dde:	f3bf 8f5f 	dmb	sy
10000de2:	bd10      	pop	{r4, pc}

10000de4 <critical_section_init>:
10000de4:	b510      	push	{r4, lr}
10000de6:	4604      	mov	r4, r0
10000de8:	2001      	movs	r0, #1
10000dea:	f7ff fc8d 	bl	10000708 <spin_lock_claim_unused>
10000dee:	4b03      	ldr	r3, [pc, #12]	@ (10000dfc <critical_section_init+0x18>)
10000df0:	4403      	add	r3, r0
10000df2:	6023      	str	r3, [r4, #0]
10000df4:	f3bf 8f5f 	dmb	sy
10000df8:	bd10      	pop	{r4, pc}
10000dfa:	bf00      	nop
10000dfc:	20003154 	.word	0x20003154

10000e00 <critical_section_init_with_lock_num>:
10000e00:	4b02      	ldr	r3, [pc, #8]	@ (10000e0c <critical_section_init_with_lock_num+0xc>)
10000e02:	440b      	add	r3, r1
10000e04:	6003      	str	r3, [r0, #0]
10000e06:	f3bf 8f5f 	dmb	sy
10000e0a:	4770      	bx	lr
10000e0c:	20003154 	.word	0x20003154

10000e10 <alarm_pool_irq_handler>:
10000e10:	e92d 4ff0 	stmdb	sp!, {r4, r5, r6, r7, r8, r9, sl, fp, lr}
10000e14:	b085      	sub	sp, #20
10000e16:	f3ef 8305 	mrs	r3, IPSR
10000e1a:	b2db      	uxtb	r3, r3
10000e1c:	3b10      	subs	r3, #16
10000e1e:	089a      	lsrs	r2, r3, #2
10000e20:	bf1a      	itte	ne
10000e22:	2201      	movne	r2, #1
10000e24:	4daa      	ldrne	r5, [pc, #680]	@ (100010d0 <alarm_pool_irq_handler+0x2c0>)
10000e26:	4dab      	ldreq	r5, [pc, #684]	@ (100010d4 <alarm_pool_irq_handler+0x2c4>)
10000e28:	f003 0403 	and.w	r4, r3, #3
10000e2c:	49aa      	ldr	r1, [pc, #680]	@ (100010d8 <alarm_pool_irq_handler+0x2c8>)
10000e2e:	eb04 0282 	add.w	r2, r4, r2, lsl #2
10000e32:	4628      	mov	r0, r5
10000e34:	f851 6022 	ldr.w	r6, [r1, r2, lsl #2]
10000e38:	9400      	str	r4, [sp, #0]
10000e3a:	f000 fc1b 	bl	10001674 <timer_time_us_64>
10000e3e:	2301      	movs	r3, #1
10000e40:	40a3      	lsls	r3, r4
10000e42:	f505 5441 	add.w	r4, r5, #12352	@ 0x3040
10000e46:	6063      	str	r3, [r4, #4]
10000e48:	f9b6 4008 	ldrsh.w	r4, [r6, #8]
10000e4c:	9301      	str	r3, [sp, #4]
10000e4e:	2c00      	cmp	r4, #0
10000e50:	63eb      	str	r3, [r5, #60]	@ 0x3c
10000e52:	f280 8135 	bge.w	100010c0 <alarm_pool_irq_handler+0x2b0>
10000e56:	88b3      	ldrh	r3, [r6, #4]
10000e58:	041b      	lsls	r3, r3, #16
10000e5a:	f140 8084 	bpl.w	10000f66 <alarm_pool_irq_handler+0x156>
10000e5e:	79b3      	ldrb	r3, [r6, #6]
10000e60:	2b00      	cmp	r3, #0
10000e62:	f040 80cd 	bne.w	10001000 <alarm_pool_irq_handler+0x1f0>
10000e66:	4628      	mov	r0, r5
10000e68:	f000 fc04 	bl	10001674 <timer_time_us_64>
10000e6c:	f9b6 4008 	ldrsh.w	r4, [r6, #8]
10000e70:	4602      	mov	r2, r0
10000e72:	2c00      	cmp	r4, #0
10000e74:	460b      	mov	r3, r1
10000e76:	f2c0 8110 	blt.w	1000109a <alarm_pool_irq_handler+0x28a>
10000e7a:	f8d6 8014 	ldr.w	r8, [r6, #20]
10000e7e:	eb04 0744 	add.w	r7, r4, r4, lsl #1
10000e82:	eb08 07c7 	add.w	r7, r8, r7, lsl #3
10000e86:	e9d7 ec02 	ldrd	lr, ip, [r7, #8]
10000e8a:	9f00      	ldr	r7, [sp, #0]
10000e8c:	4570      	cmp	r0, lr
10000e8e:	f107 0904 	add.w	r9, r7, #4
10000e92:	eb71 0c0c 	sbcs.w	ip, r1, ip
10000e96:	ea4f 0a44 	mov.w	sl, r4, lsl #1
10000e9a:	f845 e029 	str.w	lr, [r5, r9, lsl #2]
10000e9e:	f2c0 80fc 	blt.w	1000109a <alarm_pool_irq_handler+0x28a>
10000ea2:	9901      	ldr	r1, [sp, #4]
10000ea4:	63e9      	str	r1, [r5, #60]	@ 0x3c
10000ea6:	eb0a 0704 	add.w	r7, sl, r4
10000eaa:	eb08 09c7 	add.w	r9, r8, r7, lsl #3
10000eae:	e9d9 ba02 	ldrd	fp, sl, [r9, #8]
10000eb2:	455a      	cmp	r2, fp
10000eb4:	eb73 030a 	sbcs.w	r3, r3, sl
10000eb8:	ea4f 07c7 	mov.w	r7, r7, lsl #3
10000ebc:	dbcb      	blt.n	10000e56 <alarm_pool_irq_handler+0x46>
10000ebe:	f1ba 0f00 	cmp.w	sl, #0
10000ec2:	f2c0 80cd 	blt.w	10001060 <alarm_pool_irq_handler+0x250>
10000ec6:	f8d9 3010 	ldr.w	r3, [r9, #16]
10000eca:	4a84      	ldr	r2, [pc, #528]	@ (100010dc <alarm_pool_irq_handler+0x2cc>)
10000ecc:	f8d9 1014 	ldr.w	r1, [r9, #20]
10000ed0:	4293      	cmp	r3, r2
10000ed2:	f000 80bf 	beq.w	10001054 <alarm_pool_irq_handler+0x244>
10000ed6:	f8b9 0002 	ldrh.w	r0, [r9, #2]
10000eda:	b280      	uxth	r0, r0
10000edc:	ea40 4004 	orr.w	r0, r0, r4, lsl #16
10000ee0:	4798      	blx	r3
10000ee2:	4602      	mov	r2, r0
10000ee4:	460b      	mov	r3, r1
10000ee6:	ea52 0103 	orrs.w	r1, r2, r3
10000eea:	f000 80b9 	beq.w	10001060 <alarm_pool_irq_handler+0x250>
10000eee:	2b00      	cmp	r3, #0
10000ef0:	f280 80d6 	bge.w	100010a0 <alarm_pool_irq_handler+0x290>
10000ef4:	ebbb 0b02 	subs.w	fp, fp, r2
10000ef8:	eb6a 0a03 	sbc.w	sl, sl, r3
10000efc:	f938 3007 	ldrsh.w	r3, [r8, r7]
10000f00:	e9c9 ba02 	strd	fp, sl, [r9, #8]
10000f04:	2b00      	cmp	r3, #0
10000f06:	dba6      	blt.n	10000e56 <alarm_pool_irq_handler+0x46>
10000f08:	6970      	ldr	r0, [r6, #20]
10000f0a:	eb03 0243 	add.w	r2, r3, r3, lsl #1
10000f0e:	eb00 02c2 	add.w	r2, r0, r2, lsl #3
10000f12:	e9d2 c102 	ldrd	ip, r1, [r2, #8]
10000f16:	45e3      	cmp	fp, ip
10000f18:	eb7a 0e01 	sbcs.w	lr, sl, r1
10000f1c:	ea4f 0243 	mov.w	r2, r3, lsl #1
10000f20:	db99      	blt.n	10000e56 <alarm_pool_irq_handler+0x46>
10000f22:	468e      	mov	lr, r1
10000f24:	46b1      	mov	r9, r6
10000f26:	4661      	mov	r1, ip
10000f28:	f829 3f08 	strh.w	r3, [r9, #8]!
10000f2c:	46f4      	mov	ip, lr
10000f2e:	e00b      	b.n	10000f48 <alarm_pool_irq_handler+0x138>
10000f30:	f930 3032 	ldrsh.w	r3, [r0, r2, lsl #3]
10000f34:	46f1      	mov	r9, lr
10000f36:	2b00      	cmp	r3, #0
10000f38:	db0d      	blt.n	10000f56 <alarm_pool_irq_handler+0x146>
10000f3a:	eb03 0243 	add.w	r2, r3, r3, lsl #1
10000f3e:	eb00 02c2 	add.w	r2, r0, r2, lsl #3
10000f42:	e9d2 1c02 	ldrd	r1, ip, [r2, #8]
10000f46:	005a      	lsls	r2, r3, #1
10000f48:	458b      	cmp	fp, r1
10000f4a:	441a      	add	r2, r3
10000f4c:	eb7a 0c0c 	sbcs.w	ip, sl, ip
10000f50:	eb00 0ec2 	add.w	lr, r0, r2, lsl #3
10000f54:	daec      	bge.n	10000f30 <alarm_pool_irq_handler+0x120>
10000f56:	f828 3007 	strh.w	r3, [r8, r7]
10000f5a:	f8a9 4000 	strh.w	r4, [r9]
10000f5e:	88b3      	ldrh	r3, [r6, #4]
10000f60:	041b      	lsls	r3, r3, #16
10000f62:	f53f af7c 	bmi.w	10000e5e <alarm_pool_irq_handler+0x4e>
10000f66:	6933      	ldr	r3, [r6, #16]
10000f68:	f3ef 8210 	mrs	r2, PRIMASK
10000f6c:	b672      	cpsid	i
10000f6e:	e8d3 0fcf 	ldaexb	r0, [r3]
10000f72:	2101      	movs	r1, #1
10000f74:	2800      	cmp	r0, #0
10000f76:	d1fa      	bne.n	10000f6e <alarm_pool_irq_handler+0x15e>
10000f78:	e8c3 1f40 	strexb	r0, r1, [r3]
10000f7c:	2800      	cmp	r0, #0
10000f7e:	d1f6      	bne.n	10000f6e <alarm_pool_irq_handler+0x15e>
10000f80:	f3bf 8f5f 	dmb	sy
10000f84:	f64f 74ff 	movw	r4, #65535	@ 0xffff
10000f88:	88b0      	ldrh	r0, [r6, #4]
10000f8a:	2300      	movs	r3, #0
10000f8c:	6931      	ldr	r1, [r6, #16]
10000f8e:	b200      	sxth	r0, r0
10000f90:	80b4      	strh	r4, [r6, #4]
10000f92:	e8c1 3f8f 	stlb	r3, [r1]
10000f96:	f382 8810 	msr	PRIMASK, r2
10000f9a:	4298      	cmp	r0, r3
10000f9c:	f6ff af5f 	blt.w	10000e5e <alarm_pool_irq_handler+0x4e>
10000fa0:	4607      	mov	r7, r0
10000fa2:	46a9      	mov	r9, r5
10000fa4:	6974      	ldr	r4, [r6, #20]
10000fa6:	f106 0808 	add.w	r8, r6, #8
10000faa:	f9b6 3008 	ldrsh.w	r3, [r6, #8]
10000fae:	eb07 0e47 	add.w	lr, r7, r7, lsl #1
10000fb2:	eb04 02ce 	add.w	r2, r4, lr, lsl #3
10000fb6:	2b00      	cmp	r3, #0
10000fb8:	46c4      	mov	ip, r8
10000fba:	e9d2 5002 	ldrd	r5, r0, [r2, #8]
10000fbe:	bfa8      	it	ge
10000fc0:	46b3      	movge	fp, r6
10000fc2:	da05      	bge.n	10000fd0 <alarm_pool_irq_handler+0x1c0>
10000fc4:	e00f      	b.n	10000fe6 <alarm_pool_irq_handler+0x1d6>
10000fc6:	f934 303a 	ldrsh.w	r3, [r4, sl, lsl #3]
10000fca:	4694      	mov	ip, r2
10000fcc:	2b00      	cmp	r3, #0
10000fce:	db09      	blt.n	10000fe4 <alarm_pool_irq_handler+0x1d4>
10000fd0:	eb03 0a43 	add.w	sl, r3, r3, lsl #1
10000fd4:	eb04 02ca 	add.w	r2, r4, sl, lsl #3
10000fd8:	e9d2 6102 	ldrd	r6, r1, [r2, #8]
10000fdc:	42b5      	cmp	r5, r6
10000fde:	eb70 0101 	sbcs.w	r1, r0, r1
10000fe2:	daf0      	bge.n	10000fc6 <alarm_pool_irq_handler+0x1b6>
10000fe4:	465e      	mov	r6, fp
10000fe6:	f8ac 7000 	strh.w	r7, [ip]
10000fea:	f934 703e 	ldrsh.w	r7, [r4, lr, lsl #3]
10000fee:	f824 303e 	strh.w	r3, [r4, lr, lsl #3]
10000ff2:	2f00      	cmp	r7, #0
10000ff4:	dad9      	bge.n	10000faa <alarm_pool_irq_handler+0x19a>
10000ff6:	79b3      	ldrb	r3, [r6, #6]
10000ff8:	464d      	mov	r5, r9
10000ffa:	2b00      	cmp	r3, #0
10000ffc:	f43f af33 	beq.w	10000e66 <alarm_pool_irq_handler+0x56>
10001000:	2300      	movs	r3, #0
10001002:	71b3      	strb	r3, [r6, #6]
10001004:	f9b6 3008 	ldrsh.w	r3, [r6, #8]
10001008:	f106 0c08 	add.w	ip, r6, #8
1000100c:	1c5f      	adds	r7, r3, #1
1000100e:	f43f af2a 	beq.w	10000e66 <alarm_pool_irq_handler+0x56>
10001012:	f04f 38ff 	mov.w	r8, #4294967295	@ 0xffffffff
10001016:	f04f 39ff 	mov.w	r9, #4294967295	@ 0xffffffff
1000101a:	6970      	ldr	r0, [r6, #20]
1000101c:	e003      	b.n	10001026 <alarm_pool_irq_handler+0x216>
1000101e:	468c      	mov	ip, r1
10001020:	1c5a      	adds	r2, r3, #1
10001022:	f43f af20 	beq.w	10000e66 <alarm_pool_irq_handler+0x56>
10001026:	eb03 0243 	add.w	r2, r3, r3, lsl #1
1000102a:	eb00 01c2 	add.w	r1, r0, r2, lsl #3
1000102e:	884c      	ldrh	r4, [r1, #2]
10001030:	461f      	mov	r7, r3
10001032:	0424      	lsls	r4, r4, #16
10001034:	f930 3032 	ldrsh.w	r3, [r0, r2, lsl #3]
10001038:	d5f1      	bpl.n	1000101e <alarm_pool_irq_handler+0x20e>
1000103a:	f9b6 4008 	ldrsh.w	r4, [r6, #8]
1000103e:	e9c1 8902 	strd	r8, r9, [r1, #8]
10001042:	42bc      	cmp	r4, r7
10001044:	d0ec      	beq.n	10001020 <alarm_pool_irq_handler+0x210>
10001046:	f8ac 3000 	strh.w	r3, [ip]
1000104a:	8931      	ldrh	r1, [r6, #8]
1000104c:	f820 1032 	strh.w	r1, [r0, r2, lsl #3]
10001050:	8137      	strh	r7, [r6, #8]
10001052:	e7e5      	b.n	10001020 <alarm_pool_irq_handler+0x210>
10001054:	4608      	mov	r0, r1
10001056:	690b      	ldr	r3, [r1, #16]
10001058:	9102      	str	r1, [sp, #8]
1000105a:	4798      	blx	r3
1000105c:	2800      	cmp	r0, #0
1000105e:	d12b      	bne.n	100010b8 <alarm_pool_irq_handler+0x2a8>
10001060:	f838 2007 	ldrh.w	r2, [r8, r7]
10001064:	6933      	ldr	r3, [r6, #16]
10001066:	8132      	strh	r2, [r6, #8]
10001068:	f3ef 8210 	mrs	r2, PRIMASK
1000106c:	b672      	cpsid	i
1000106e:	e8d3 0fcf 	ldaexb	r0, [r3]
10001072:	2101      	movs	r1, #1
10001074:	2800      	cmp	r0, #0
10001076:	d1fa      	bne.n	1000106e <alarm_pool_irq_handler+0x25e>
10001078:	e8c3 1f40 	strexb	r0, r1, [r3]
1000107c:	2800      	cmp	r0, #0
1000107e:	d1f6      	bne.n	1000106e <alarm_pool_irq_handler+0x25e>
10001080:	f3bf 8f5f 	dmb	sy
10001084:	8871      	ldrh	r1, [r6, #2]
10001086:	2300      	movs	r3, #0
10001088:	f828 1007 	strh.w	r1, [r8, r7]
1000108c:	6931      	ldr	r1, [r6, #16]
1000108e:	8074      	strh	r4, [r6, #2]
10001090:	e8c1 3f8f 	stlb	r3, [r1]
10001094:	f382 8810 	msr	PRIMASK, r2
10001098:	e6dd      	b.n	10000e56 <alarm_pool_irq_handler+0x46>
1000109a:	b005      	add	sp, #20
1000109c:	e8bd 8ff0 	ldmia.w	sp!, {r4, r5, r6, r7, r8, r9, sl, fp, pc}
100010a0:	4628      	mov	r0, r5
100010a2:	e9cd 2302 	strd	r2, r3, [sp, #8]
100010a6:	f000 fae5 	bl	10001674 <timer_time_us_64>
100010aa:	9a02      	ldr	r2, [sp, #8]
100010ac:	9b03      	ldr	r3, [sp, #12]
100010ae:	eb10 0b02 	adds.w	fp, r0, r2
100010b2:	eb43 0a01 	adc.w	sl, r3, r1
100010b6:	e721      	b.n	10000efc <alarm_pool_irq_handler+0xec>
100010b8:	9902      	ldr	r1, [sp, #8]
100010ba:	e9d1 2300 	ldrd	r2, r3, [r1]
100010be:	e712      	b.n	10000ee6 <alarm_pool_irq_handler+0xd6>
100010c0:	4602      	mov	r2, r0
100010c2:	460b      	mov	r3, r1
100010c4:	f8d6 8014 	ldr.w	r8, [r6, #20]
100010c8:	ea4f 0a44 	mov.w	sl, r4, lsl #1
100010cc:	e6eb      	b.n	10000ea6 <alarm_pool_irq_handler+0x96>
100010ce:	bf00      	nop
100010d0:	400b8000 	.word	0x400b8000
100010d4:	400b0000 	.word	0x400b0000
100010d8:	20003788 	.word	0x20003788
100010dc:	10000e11 	.word	0x10000e11

100010e0 <sleep_until_callback>:
100010e0:	480b      	ldr	r0, [pc, #44]	@ (10001110 <sleep_until_callback+0x30>)
100010e2:	b508      	push	{r3, lr}
100010e4:	6803      	ldr	r3, [r0, #0]
100010e6:	f3ef 8110 	mrs	r1, PRIMASK
100010ea:	b672      	cpsid	i
100010ec:	e8d3 cfcf 	ldaexb	ip, [r3]
100010f0:	2201      	movs	r2, #1
100010f2:	f1bc 0f00 	cmp.w	ip, #0
100010f6:	d1f9      	bne.n	100010ec <sleep_until_callback+0xc>
100010f8:	e8c3 2f4c 	strexb	ip, r2, [r3]
100010fc:	f1bc 0f00 	cmp.w	ip, #0
10001100:	d1f4      	bne.n	100010ec <sleep_until_callback+0xc>
10001102:	f3bf 8f5f 	dmb	sy
10001106:	f005 fc47 	bl	10006998 <vPortLockInternalSpinUnlockWithNotify>
1000110a:	2000      	movs	r0, #0
1000110c:	2100      	movs	r1, #0
1000110e:	bd08      	pop	{r3, pc}
10001110:	20003a4c 	.word	0x20003a4c

10001114 <runtime_init_default_alarm_pool>:
10001114:	e92d 4ff8 	stmdb	sp!, {r3, r4, r5, r6, r7, r8, r9, sl, fp, lr}
10001118:	4c36      	ldr	r4, [pc, #216]	@ (100011f4 <runtime_init_default_alarm_pool+0xe0>)
1000111a:	6925      	ldr	r5, [r4, #16]
1000111c:	b12d      	cbz	r5, 1000112a <runtime_init_default_alarm_pool+0x16>
1000111e:	e8bd 4ff8 	ldmia.w	sp!, {r3, r4, r5, r6, r7, r8, r9, sl, fp, lr}
10001122:	210a      	movs	r1, #10
10001124:	4834      	ldr	r0, [pc, #208]	@ (100011f8 <runtime_init_default_alarm_pool+0xe4>)
10001126:	f7ff be1f 	b.w	10000d68 <lock_init>
1000112a:	f8df 80e4 	ldr.w	r8, [pc, #228]	@ 10001210 <runtime_init_default_alarm_pool+0xfc>
1000112e:	2103      	movs	r1, #3
10001130:	4640      	mov	r0, r8
10001132:	f000 fa8d 	bl	10001650 <timer_hardware_alarm_claim>
10001136:	2603      	movs	r6, #3
10001138:	f8c4 800c 	str.w	r8, [r4, #12]
1000113c:	f7ff fad8 	bl	100006f0 <next_striped_spin_lock_num>
10001140:	f04f 4c50 	mov.w	ip, #3489660928	@ 0xd0000000
10001144:	4b2d      	ldr	r3, [pc, #180]	@ (100011fc <runtime_init_default_alarm_pool+0xe8>)
10001146:	7026      	strb	r6, [r4, #0]
10001148:	4403      	add	r3, r0
1000114a:	6123      	str	r3, [r4, #16]
1000114c:	f8dc 3000 	ldr.w	r3, [ip]
10001150:	210f      	movs	r1, #15
10001152:	7063      	strb	r3, [r4, #1]
10001154:	6963      	ldr	r3, [r4, #20]
10001156:	8061      	strh	r1, [r4, #2]
10001158:	831d      	strh	r5, [r3, #24]
1000115a:	f04f 0504 	mov.w	r5, #4
1000115e:	f8a3 5078 	strh.w	r5, [r3, #120]	@ 0x78
10001162:	f04f 0505 	mov.w	r5, #5
10001166:	f8a3 5090 	strh.w	r5, [r3, #144]	@ 0x90
1000116a:	f04f 0506 	mov.w	r5, #6
1000116e:	f8a3 50a8 	strh.w	r5, [r3, #168]	@ 0xa8
10001172:	f04f 0507 	mov.w	r5, #7
10001176:	210e      	movs	r1, #14
10001178:	f64f 72ff 	movw	r2, #65535	@ 0xffff
1000117c:	2708      	movs	r7, #8
1000117e:	f04f 0e0a 	mov.w	lr, #10
10001182:	f8a3 50c0 	strh.w	r5, [r3, #192]	@ 0xc0
10001186:	f04f 0901 	mov.w	r9, #1
1000118a:	f04f 0c0c 	mov.w	ip, #12
1000118e:	f04f 0b02 	mov.w	fp, #2
10001192:	f04f 0a09 	mov.w	sl, #9
10001196:	200d      	movs	r0, #13
10001198:	f04f 050b 	mov.w	r5, #11
1000119c:	f8a3 1168 	strh.w	r1, [r3, #360]	@ 0x168
100011a0:	4917      	ldr	r1, [pc, #92]	@ (10001200 <runtime_init_default_alarm_pool+0xec>)
100011a2:	80a2      	strh	r2, [r4, #4]
100011a4:	f8a3 e108 	strh.w	lr, [r3, #264]	@ 0x108
100011a8:	60a1      	str	r1, [r4, #8]
100011aa:	f8a3 b048 	strh.w	fp, [r3, #72]	@ 0x48
100011ae:	f8a3 a0f0 	strh.w	sl, [r3, #240]	@ 0xf0
100011b2:	f8a3 5120 	strh.w	r5, [r3, #288]	@ 0x120
100011b6:	f8a3 c138 	strh.w	ip, [r3, #312]	@ 0x138
100011ba:	f8a3 0150 	strh.w	r0, [r3, #336]	@ 0x150
100011be:	f8a3 9030 	strh.w	r9, [r3, #48]	@ 0x30
100011c2:	f8a3 6060 	strh.w	r6, [r3, #96]	@ 0x60
100011c6:	f8a3 70d8 	strh.w	r7, [r3, #216]	@ 0xd8
100011ca:	801a      	strh	r2, [r3, #0]
100011cc:	4b0d      	ldr	r3, [pc, #52]	@ (10001204 <runtime_init_default_alarm_pool+0xf0>)
100011ce:	4630      	mov	r0, r6
100011d0:	f8c8 7020 	str.w	r7, [r8, #32]
100011d4:	490c      	ldr	r1, [pc, #48]	@ (10001208 <runtime_init_default_alarm_pool+0xf4>)
100011d6:	60dc      	str	r4, [r3, #12]
100011d8:	f7ff fb1e 	bl	10000818 <irq_set_exclusive_handler>
100011dc:	4649      	mov	r1, r9
100011de:	4630      	mov	r0, r6
100011e0:	f7ff fad6 	bl	10000790 <irq_set_enabled>
100011e4:	4b09      	ldr	r3, [pc, #36]	@ (1000120c <runtime_init_default_alarm_pool+0xf8>)
100011e6:	210a      	movs	r1, #10
100011e8:	641f      	str	r7, [r3, #64]	@ 0x40
100011ea:	4803      	ldr	r0, [pc, #12]	@ (100011f8 <runtime_init_default_alarm_pool+0xe4>)
100011ec:	e8bd 4ff8 	ldmia.w	sp!, {r3, r4, r5, r6, r7, r8, r9, sl, fp, lr}
100011f0:	f7ff bdba 	b.w	10000d68 <lock_init>
100011f4:	20002284 	.word	0x20002284
100011f8:	20003a4c 	.word	0x20003a4c
100011fc:	20003154 	.word	0x20003154
10001200:	0010ffff 	.word	0x0010ffff
10001204:	20003788 	.word	0x20003788
10001208:	10000e11 	.word	0x10000e11
1000120c:	400b2000 	.word	0x400b2000
10001210:	400b0000 	.word	0x400b0000

10001214 <alarm_pool_get_default>:
10001214:	4800      	ldr	r0, [pc, #0]	@ (10001218 <alarm_pool_get_default+0x4>)
10001216:	4770      	bx	lr
10001218:	20002284 	.word	0x20002284

1000121c <alarm_pool_add_alarm_at>:
1000121c:	b5f8      	push	{r3, r4, r5, r6, r7, lr}
1000121e:	f89d 7020 	ldrb.w	r7, [sp, #32]
10001222:	4604      	mov	r4, r0
10001224:	4616      	mov	r6, r2
10001226:	461d      	mov	r5, r3
10001228:	b937      	cbnz	r7, 10001238 <alarm_pool_add_alarm_at+0x1c>
1000122a:	f000 fa2b 	bl	10001684 <time_us_64>
1000122e:	4286      	cmp	r6, r0
10001230:	eb65 0101 	sbc.w	r1, r5, r1
10001234:	2900      	cmp	r1, #0
10001236:	db5c      	blt.n	100012f2 <alarm_pool_add_alarm_at+0xd6>
10001238:	6923      	ldr	r3, [r4, #16]
1000123a:	f3ef 8710 	mrs	r7, PRIMASK
1000123e:	b672      	cpsid	i
10001240:	e8d3 1fcf 	ldaexb	r1, [r3]
10001244:	2201      	movs	r2, #1
10001246:	2900      	cmp	r1, #0
10001248:	d1fa      	bne.n	10001240 <alarm_pool_add_alarm_at+0x24>
1000124a:	e8c3 2f41 	strexb	r1, r2, [r3]
1000124e:	2900      	cmp	r1, #0
10001250:	d1f6      	bne.n	10001240 <alarm_pool_add_alarm_at+0x24>
10001252:	f3bf 8f5f 	dmb	sy
10001256:	f9b4 c002 	ldrsh.w	ip, [r4, #2]
1000125a:	6963      	ldr	r3, [r4, #20]
1000125c:	eb0c 014c 	add.w	r1, ip, ip, lsl #1
10001260:	f1bc 0f00 	cmp.w	ip, #0
10001264:	ea4f 02c1 	mov.w	r2, r1, lsl #3
10001268:	eb03 01c1 	add.w	r1, r3, r1, lsl #3
1000126c:	db38      	blt.n	100012e0 <alarm_pool_add_alarm_at+0xc4>
1000126e:	5a98      	ldrh	r0, [r3, r2]
10001270:	f04f 0e00 	mov.w	lr, #0
10001274:	8060      	strh	r0, [r4, #2]
10001276:	6920      	ldr	r0, [r4, #16]
10001278:	e8c0 ef8f 	stlb	lr, [r0]
1000127c:	f387 8810 	msr	PRIMASK, r7
10001280:	9806      	ldr	r0, [sp, #24]
10001282:	e9c1 6502 	strd	r6, r5, [r1, #8]
10001286:	6108      	str	r0, [r1, #16]
10001288:	9807      	ldr	r0, [sp, #28]
1000128a:	6148      	str	r0, [r1, #20]
1000128c:	8848      	ldrh	r0, [r1, #2]
1000128e:	3001      	adds	r0, #1
10001290:	f3c0 000e 	ubfx	r0, r0, #0, #15
10001294:	2801      	cmp	r0, #1
10001296:	bf38      	it	cc
10001298:	2001      	movcc	r0, #1
1000129a:	8048      	strh	r0, [r1, #2]
1000129c:	ea40 400c 	orr.w	r0, r0, ip, lsl #16
100012a0:	6921      	ldr	r1, [r4, #16]
100012a2:	f3ef 8510 	mrs	r5, PRIMASK
100012a6:	b672      	cpsid	i
100012a8:	e8d1 7fcf 	ldaexb	r7, [r1]
100012ac:	2601      	movs	r6, #1
100012ae:	2f00      	cmp	r7, #0
100012b0:	d1fa      	bne.n	100012a8 <alarm_pool_add_alarm_at+0x8c>
100012b2:	e8c1 6f47 	strexb	r7, r6, [r1]
100012b6:	2f00      	cmp	r7, #0
100012b8:	d1f6      	bne.n	100012a8 <alarm_pool_add_alarm_at+0x8c>
100012ba:	f3bf 8f5f 	dmb	sy
100012be:	88a1      	ldrh	r1, [r4, #4]
100012c0:	5299      	strh	r1, [r3, r2]
100012c2:	f8a4 c004 	strh.w	ip, [r4, #4]
100012c6:	6923      	ldr	r3, [r4, #16]
100012c8:	e8c3 ef8f 	stlb	lr, [r3]
100012cc:	f385 8810 	msr	PRIMASK, r5
100012d0:	2201      	movs	r2, #1
100012d2:	68e3      	ldr	r3, [r4, #12]
100012d4:	7821      	ldrb	r1, [r4, #0]
100012d6:	f503 5301 	add.w	r3, r3, #8256	@ 0x2040
100012da:	408a      	lsls	r2, r1
100012dc:	605a      	str	r2, [r3, #4]
100012de:	bdf8      	pop	{r3, r4, r5, r6, r7, pc}
100012e0:	2300      	movs	r3, #0
100012e2:	6922      	ldr	r2, [r4, #16]
100012e4:	e8c2 3f8f 	stlb	r3, [r2]
100012e8:	f387 8810 	msr	PRIMASK, r7
100012ec:	f04f 30ff 	mov.w	r0, #4294967295	@ 0xffffffff
100012f0:	bdf8      	pop	{r3, r4, r5, r6, r7, pc}
100012f2:	4638      	mov	r0, r7
100012f4:	bdf8      	pop	{r3, r4, r5, r6, r7, pc}
100012f6:	bf00      	nop

100012f8 <alarm_pool_add_alarm_at_force_in_context>:
100012f8:	4601      	mov	r1, r0
100012fa:	b5f0      	push	{r4, r5, r6, r7, lr}
100012fc:	6900      	ldr	r0, [r0, #16]
100012fe:	f3ef 8710 	mrs	r7, PRIMASK
10001302:	b672      	cpsid	i
10001304:	e8d0 5fcf 	ldaexb	r5, [r0]
10001308:	2401      	movs	r4, #1
1000130a:	2d00      	cmp	r5, #0
1000130c:	d1fa      	bne.n	10001304 <alarm_pool_add_alarm_at_force_in_context+0xc>
1000130e:	e8c0 4f45 	strexb	r5, r4, [r0]
10001312:	2d00      	cmp	r5, #0
10001314:	d1f6      	bne.n	10001304 <alarm_pool_add_alarm_at_force_in_context+0xc>
10001316:	f3bf 8f5f 	dmb	sy
1000131a:	f9b1 e002 	ldrsh.w	lr, [r1, #2]
1000131e:	694c      	ldr	r4, [r1, #20]
10001320:	eb0e 0c4e 	add.w	ip, lr, lr, lsl #1
10001324:	f1be 0f00 	cmp.w	lr, #0
10001328:	ea4f 05cc 	mov.w	r5, ip, lsl #3
1000132c:	eb04 0ccc 	add.w	ip, r4, ip, lsl #3
10001330:	db3d      	blt.n	100013ae <alarm_pool_add_alarm_at_force_in_context+0xb6>
10001332:	5b60      	ldrh	r0, [r4, r5]
10001334:	2600      	movs	r6, #0
10001336:	8048      	strh	r0, [r1, #2]
10001338:	6908      	ldr	r0, [r1, #16]
1000133a:	e8c0 6f8f 	stlb	r6, [r0]
1000133e:	f387 8810 	msr	PRIMASK, r7
10001342:	f8bc 0002 	ldrh.w	r0, [ip, #2]
10001346:	e9cc 2302 	strd	r2, r3, [ip, #8]
1000134a:	3001      	adds	r0, #1
1000134c:	f3c0 000e 	ubfx	r0, r0, #0, #15
10001350:	2801      	cmp	r0, #1
10001352:	bf38      	it	cc
10001354:	2001      	movcc	r0, #1
10001356:	9b05      	ldr	r3, [sp, #20]
10001358:	f8ac 0002 	strh.w	r0, [ip, #2]
1000135c:	f8cc 3010 	str.w	r3, [ip, #16]
10001360:	9b06      	ldr	r3, [sp, #24]
10001362:	ea40 400e 	orr.w	r0, r0, lr, lsl #16
10001366:	f8cc 3014 	str.w	r3, [ip, #20]
1000136a:	690b      	ldr	r3, [r1, #16]
1000136c:	f3ef 8210 	mrs	r2, PRIMASK
10001370:	b672      	cpsid	i
10001372:	e8d3 cfcf 	ldaexb	ip, [r3]
10001376:	2701      	movs	r7, #1
10001378:	f1bc 0f00 	cmp.w	ip, #0
1000137c:	d1f9      	bne.n	10001372 <alarm_pool_add_alarm_at_force_in_context+0x7a>
1000137e:	e8c3 7f4c 	strexb	ip, r7, [r3]
10001382:	f1bc 0f00 	cmp.w	ip, #0
10001386:	d1f4      	bne.n	10001372 <alarm_pool_add_alarm_at_force_in_context+0x7a>
10001388:	f3bf 8f5f 	dmb	sy
1000138c:	888b      	ldrh	r3, [r1, #4]
1000138e:	5363      	strh	r3, [r4, r5]
10001390:	f8a1 e004 	strh.w	lr, [r1, #4]
10001394:	690b      	ldr	r3, [r1, #16]
10001396:	e8c3 6f8f 	stlb	r6, [r3]
1000139a:	f382 8810 	msr	PRIMASK, r2
1000139e:	2201      	movs	r2, #1
100013a0:	68cb      	ldr	r3, [r1, #12]
100013a2:	7809      	ldrb	r1, [r1, #0]
100013a4:	f503 5301 	add.w	r3, r3, #8256	@ 0x2040
100013a8:	408a      	lsls	r2, r1
100013aa:	605a      	str	r2, [r3, #4]
100013ac:	bdf0      	pop	{r4, r5, r6, r7, pc}
100013ae:	2300      	movs	r3, #0
100013b0:	690a      	ldr	r2, [r1, #16]
100013b2:	e8c2 3f8f 	stlb	r3, [r2]
100013b6:	f387 8810 	msr	PRIMASK, r7
100013ba:	f04f 30ff 	mov.w	r0, #4294967295	@ 0xffffffff
100013be:	bdf0      	pop	{r4, r5, r6, r7, pc}

100013c0 <alarm_pool_cancel_alarm>:
100013c0:	4603      	mov	r3, r0
100013c2:	8940      	ldrh	r0, [r0, #10]
100013c4:	ebb0 4f21 	cmp.w	r0, r1, asr #16
100013c8:	dd37      	ble.n	1000143a <alarm_pool_cancel_alarm+0x7a>
100013ca:	6958      	ldr	r0, [r3, #20]
100013cc:	140a      	asrs	r2, r1, #16
100013ce:	eb02 0242 	add.w	r2, r2, r2, lsl #1
100013d2:	b510      	push	{r4, lr}
100013d4:	eb00 00c2 	add.w	r0, r0, r2, lsl #3
100013d8:	691c      	ldr	r4, [r3, #16]
100013da:	f3ef 8c10 	mrs	ip, PRIMASK
100013de:	b672      	cpsid	i
100013e0:	e8d4 efcf 	ldaexb	lr, [r4]
100013e4:	2201      	movs	r2, #1
100013e6:	f1be 0f00 	cmp.w	lr, #0
100013ea:	d1f9      	bne.n	100013e0 <alarm_pool_cancel_alarm+0x20>
100013ec:	e8c4 2f4e 	strexb	lr, r2, [r4]
100013f0:	f1be 0f00 	cmp.w	lr, #0
100013f4:	d1f4      	bne.n	100013e0 <alarm_pool_cancel_alarm+0x20>
100013f6:	f3bf 8f5f 	dmb	sy
100013fa:	8842      	ldrh	r2, [r0, #2]
100013fc:	b289      	uxth	r1, r1
100013fe:	b292      	uxth	r2, r2
10001400:	428a      	cmp	r2, r1
10001402:	d007      	beq.n	10001414 <alarm_pool_cancel_alarm+0x54>
10001404:	2200      	movs	r2, #0
10001406:	691b      	ldr	r3, [r3, #16]
10001408:	e8c3 2f8f 	stlb	r2, [r3]
1000140c:	f38c 8810 	msr	PRIMASK, ip
10001410:	2000      	movs	r0, #0
10001412:	bd10      	pop	{r4, pc}
10001414:	f442 4200 	orr.w	r2, r2, #32768	@ 0x8000
10001418:	8042      	strh	r2, [r0, #2]
1000141a:	2101      	movs	r1, #1
1000141c:	2200      	movs	r2, #0
1000141e:	6918      	ldr	r0, [r3, #16]
10001420:	7199      	strb	r1, [r3, #6]
10001422:	e8c0 2f8f 	stlb	r2, [r0]
10001426:	f38c 8810 	msr	PRIMASK, ip
1000142a:	781c      	ldrb	r4, [r3, #0]
1000142c:	68da      	ldr	r2, [r3, #12]
1000142e:	4608      	mov	r0, r1
10001430:	f502 5301 	add.w	r3, r2, #8256	@ 0x2040
10001434:	40a1      	lsls	r1, r4
10001436:	6059      	str	r1, [r3, #4]
10001438:	bd10      	pop	{r4, pc}
1000143a:	2000      	movs	r0, #0
1000143c:	4770      	bx	lr
1000143e:	bf00      	nop

10001440 <alarm_pool_core_num>:
10001440:	7840      	ldrb	r0, [r0, #1]
10001442:	4770      	bx	lr

10001444 <sleep_until>:
10001444:	e92d 43f0 	stmdb	sp!, {r4, r5, r6, r7, r8, r9, lr}
10001448:	f1b0 0696 	subs.w	r6, r0, #150	@ 0x96
1000144c:	f141 35ff 	adc.w	r5, r1, #4294967295	@ 0xffffffff
10001450:	42b0      	cmp	r0, r6
10001452:	eb71 0305 	sbcs.w	r3, r1, r5
10001456:	bf38      	it	cc
10001458:	2600      	movcc	r6, #0
1000145a:	b083      	sub	sp, #12
1000145c:	bf38      	it	cc
1000145e:	4635      	movcc	r5, r6
10001460:	4604      	mov	r4, r0
10001462:	460f      	mov	r7, r1
10001464:	f000 f90e 	bl	10001684 <time_us_64>
10001468:	1a30      	subs	r0, r6, r0
1000146a:	eb65 0301 	sbc.w	r3, r5, r1
1000146e:	2801      	cmp	r0, #1
10001470:	f173 0300 	sbcs.w	r3, r3, #0
10001474:	da06      	bge.n	10001484 <sleep_until+0x40>
10001476:	4620      	mov	r0, r4
10001478:	4639      	mov	r1, r7
1000147a:	b003      	add	sp, #12
1000147c:	e8bd 43f0 	ldmia.w	sp!, {r4, r5, r6, r7, r8, r9, lr}
10001480:	f000 b93c 	b.w	100016fc <busy_wait_until>
10001484:	f000 f8fe 	bl	10001684 <time_us_64>
10001488:	4286      	cmp	r6, r0
1000148a:	eb65 0101 	sbc.w	r1, r5, r1
1000148e:	2900      	cmp	r1, #0
10001490:	db0a      	blt.n	100014a8 <sleep_until+0x64>
10001492:	2100      	movs	r1, #0
10001494:	4b15      	ldr	r3, [pc, #84]	@ (100014ec <sleep_until+0xa8>)
10001496:	4632      	mov	r2, r6
10001498:	9300      	str	r3, [sp, #0]
1000149a:	4815      	ldr	r0, [pc, #84]	@ (100014f0 <sleep_until+0xac>)
1000149c:	462b      	mov	r3, r5
1000149e:	9101      	str	r1, [sp, #4]
100014a0:	f7ff ff2a 	bl	100012f8 <alarm_pool_add_alarm_at_force_in_context>
100014a4:	2800      	cmp	r0, #0
100014a6:	dbe6      	blt.n	10001476 <sleep_until+0x32>
100014a8:	f8df 804c 	ldr.w	r8, [pc, #76]	@ 100014f8 <sleep_until+0xb4>
100014ac:	f8df 9044 	ldr.w	r9, [pc, #68]	@ 100014f4 <sleep_until+0xb0>
100014b0:	f8d8 3024 	ldr.w	r3, [r8, #36]	@ 0x24
100014b4:	429d      	cmp	r5, r3
100014b6:	d805      	bhi.n	100014c4 <sleep_until+0x80>
100014b8:	f8d8 2028 	ldr.w	r2, [r8, #40]	@ 0x28
100014bc:	42b2      	cmp	r2, r6
100014be:	d2da      	bcs.n	10001476 <sleep_until+0x32>
100014c0:	429d      	cmp	r5, r3
100014c2:	d1d8      	bne.n	10001476 <sleep_until+0x32>
100014c4:	f8d9 3000 	ldr.w	r3, [r9]
100014c8:	f3ef 8110 	mrs	r1, PRIMASK
100014cc:	b672      	cpsid	i
100014ce:	e8d3 0fcf 	ldaexb	r0, [r3]
100014d2:	2201      	movs	r2, #1
100014d4:	2800      	cmp	r0, #0
100014d6:	d1fa      	bne.n	100014ce <sleep_until+0x8a>
100014d8:	e8c3 2f40 	strexb	r0, r2, [r3]
100014dc:	2800      	cmp	r0, #0
100014de:	d1f6      	bne.n	100014ce <sleep_until+0x8a>
100014e0:	f3bf 8f5f 	dmb	sy
100014e4:	4803      	ldr	r0, [pc, #12]	@ (100014f4 <sleep_until+0xb0>)
100014e6:	f005 fa21 	bl	1000692c <vPortLockInternalSpinUnlockWithWait>
100014ea:	e7e1      	b.n	100014b0 <sleep_until+0x6c>
100014ec:	100010e1 	.word	0x100010e1
100014f0:	20002284 	.word	0x20002284
100014f4:	20003a4c 	.word	0x20003a4c
100014f8:	400b0000 	.word	0x400b0000

100014fc <sleep_ms>:
100014fc:	b510      	push	{r4, lr}
100014fe:	4604      	mov	r4, r0
10001500:	f000 f8c0 	bl	10001684 <time_us_64>
10001504:	f44f 737a 	mov.w	r3, #1000	@ 0x3e8
10001508:	f04f 3cff 	mov.w	ip, #4294967295	@ 0xffffffff
1000150c:	f06f 4200 	mvn.w	r2, #2147483648	@ 0x80000000
10001510:	fbe4 0103 	umlal	r0, r1, r4, r3
10001514:	e8bd 4010 	ldmia.w	sp!, {r4, lr}
10001518:	4584      	cmp	ip, r0
1000151a:	eb72 0301 	sbcs.w	r3, r2, r1
1000151e:	bf3c      	itt	cc
10001520:	4660      	movcc	r0, ip
10001522:	4611      	movcc	r1, r2
10001524:	f7ff bf8e 	b.w	10001444 <sleep_until>

10001528 <best_effort_wfe_or_timeout>:
10001528:	e92d 43f8 	stmdb	sp!, {r3, r4, r5, r6, r7, r8, r9, lr}
1000152c:	4605      	mov	r5, r0
1000152e:	460c      	mov	r4, r1
10001530:	f3ef 8605 	mrs	r6, IPSR
10001534:	b2f6      	uxtb	r6, r6
10001536:	b18e      	cbz	r6, 1000155c <best_effort_wfe_or_timeout+0x34>
10001538:	4b42      	ldr	r3, [pc, #264]	@ (10001644 <best_effort_wfe_or_timeout+0x11c>)
1000153a:	6a58      	ldr	r0, [r3, #36]	@ 0x24
1000153c:	42a0      	cmp	r0, r4
1000153e:	d305      	bcc.n	1000154c <best_effort_wfe_or_timeout+0x24>
10001540:	6a9b      	ldr	r3, [r3, #40]	@ 0x28
10001542:	42ab      	cmp	r3, r5
10001544:	d305      	bcc.n	10001552 <best_effort_wfe_or_timeout+0x2a>
10001546:	2001      	movs	r0, #1
10001548:	e8bd 83f8 	ldmia.w	sp!, {r3, r4, r5, r6, r7, r8, r9, pc}
1000154c:	2000      	movs	r0, #0
1000154e:	e8bd 83f8 	ldmia.w	sp!, {r3, r4, r5, r6, r7, r8, r9, pc}
10001552:	1b00      	subs	r0, r0, r4
10001554:	bf18      	it	ne
10001556:	2001      	movne	r0, #1
10001558:	e8bd 83f8 	ldmia.w	sp!, {r3, r4, r5, r6, r7, r8, r9, pc}
1000155c:	f000 f892 	bl	10001684 <time_us_64>
10001560:	4285      	cmp	r5, r0
10001562:	eb64 0101 	sbc.w	r1, r4, r1
10001566:	2900      	cmp	r1, #0
10001568:	dbe6      	blt.n	10001538 <best_effort_wfe_or_timeout+0x10>
1000156a:	4b37      	ldr	r3, [pc, #220]	@ (10001648 <best_effort_wfe_or_timeout+0x120>)
1000156c:	691a      	ldr	r2, [r3, #16]
1000156e:	f3ef 8e10 	mrs	lr, PRIMASK
10001572:	b672      	cpsid	i
10001574:	e8d2 0fcf 	ldaexb	r0, [r2]
10001578:	2101      	movs	r1, #1
1000157a:	2800      	cmp	r0, #0
1000157c:	d1fa      	bne.n	10001574 <best_effort_wfe_or_timeout+0x4c>
1000157e:	e8c2 1f40 	strexb	r0, r1, [r2]
10001582:	2800      	cmp	r0, #0
10001584:	d1f6      	bne.n	10001574 <best_effort_wfe_or_timeout+0x4c>
10001586:	f3bf 8f5f 	dmb	sy
1000158a:	f9b3 0002 	ldrsh.w	r0, [r3, #2]
1000158e:	695f      	ldr	r7, [r3, #20]
10001590:	eb00 0240 	add.w	r2, r0, r0, lsl #1
10001594:	2800      	cmp	r0, #0
10001596:	ea4f 0cc2 	mov.w	ip, r2, lsl #3
1000159a:	eb07 02c2 	add.w	r2, r7, r2, lsl #3
1000159e:	db4a      	blt.n	10001636 <best_effort_wfe_or_timeout+0x10e>
100015a0:	f837 100c 	ldrh.w	r1, [r7, ip]
100015a4:	8059      	strh	r1, [r3, #2]
100015a6:	6919      	ldr	r1, [r3, #16]
100015a8:	e8c1 6f8f 	stlb	r6, [r1]
100015ac:	f38e 8810 	msr	PRIMASK, lr
100015b0:	8851      	ldrh	r1, [r2, #2]
100015b2:	f8df e098 	ldr.w	lr, [pc, #152]	@ 1000164c <best_effort_wfe_or_timeout+0x124>
100015b6:	3101      	adds	r1, #1
100015b8:	f3c1 010e 	ubfx	r1, r1, #0, #15
100015bc:	2901      	cmp	r1, #1
100015be:	bf38      	it	cc
100015c0:	2101      	movcc	r1, #1
100015c2:	e9c2 5402 	strd	r5, r4, [r2, #8]
100015c6:	8051      	strh	r1, [r2, #2]
100015c8:	6156      	str	r6, [r2, #20]
100015ca:	f8c2 e010 	str.w	lr, [r2, #16]
100015ce:	ea41 4100 	orr.w	r1, r1, r0, lsl #16
100015d2:	691a      	ldr	r2, [r3, #16]
100015d4:	f3ef 8e10 	mrs	lr, PRIMASK
100015d8:	b672      	cpsid	i
100015da:	e8d2 9fcf 	ldaexb	r9, [r2]
100015de:	f05f 0801 	movs.w	r8, #1
100015e2:	f1b9 0f00 	cmp.w	r9, #0
100015e6:	d1f8      	bne.n	100015da <best_effort_wfe_or_timeout+0xb2>
100015e8:	e8c2 8f49 	strexb	r9, r8, [r2]
100015ec:	f1b9 0f00 	cmp.w	r9, #0
100015f0:	d1f3      	bne.n	100015da <best_effort_wfe_or_timeout+0xb2>
100015f2:	f3bf 8f5f 	dmb	sy
100015f6:	889a      	ldrh	r2, [r3, #4]
100015f8:	f827 200c 	strh.w	r2, [r7, ip]
100015fc:	691a      	ldr	r2, [r3, #16]
100015fe:	8098      	strh	r0, [r3, #4]
10001600:	e8c2 6f8f 	stlb	r6, [r2]
10001604:	f38e 8810 	msr	PRIMASK, lr
10001608:	2201      	movs	r2, #1
1000160a:	7818      	ldrb	r0, [r3, #0]
1000160c:	68db      	ldr	r3, [r3, #12]
1000160e:	4082      	lsls	r2, r0
10001610:	f503 5301 	add.w	r3, r3, #8256	@ 0x2040
10001614:	605a      	str	r2, [r3, #4]
10001616:	bf40      	sev
10001618:	bf20      	wfe
1000161a:	4b0a      	ldr	r3, [pc, #40]	@ (10001644 <best_effort_wfe_or_timeout+0x11c>)
1000161c:	6a5a      	ldr	r2, [r3, #36]	@ 0x24
1000161e:	42a2      	cmp	r2, r4
10001620:	d304      	bcc.n	1000162c <best_effort_wfe_or_timeout+0x104>
10001622:	6a9b      	ldr	r3, [r3, #40]	@ 0x28
10001624:	42ab      	cmp	r3, r5
10001626:	d202      	bcs.n	1000162e <best_effort_wfe_or_timeout+0x106>
10001628:	42a2      	cmp	r2, r4
1000162a:	d100      	bne.n	1000162e <best_effort_wfe_or_timeout+0x106>
1000162c:	bf20      	wfe
1000162e:	4806      	ldr	r0, [pc, #24]	@ (10001648 <best_effort_wfe_or_timeout+0x120>)
10001630:	f7ff fec6 	bl	100013c0 <alarm_pool_cancel_alarm>
10001634:	e780      	b.n	10001538 <best_effort_wfe_or_timeout+0x10>
10001636:	691b      	ldr	r3, [r3, #16]
10001638:	e8c3 6f8f 	stlb	r6, [r3]
1000163c:	f38e 8810 	msr	PRIMASK, lr
10001640:	e77a      	b.n	10001538 <best_effort_wfe_or_timeout+0x10>
10001642:	bf00      	nop
10001644:	400b0000 	.word	0x400b0000
10001648:	20002284 	.word	0x20002284
1000164c:	100010e1 	.word	0x100010e1

10001650 <timer_hardware_alarm_claim>:
10001650:	b410      	push	{r4}
10001652:	4b05      	ldr	r3, [pc, #20]	@ (10001668 <timer_hardware_alarm_claim+0x18>)
10001654:	4c05      	ldr	r4, [pc, #20]	@ (1000166c <timer_hardware_alarm_claim+0x1c>)
10001656:	4a06      	ldr	r2, [pc, #24]	@ (10001670 <timer_hardware_alarm_claim+0x20>)
10001658:	42a0      	cmp	r0, r4
1000165a:	bf14      	ite	ne
1000165c:	4618      	movne	r0, r3
1000165e:	1c58      	addeq	r0, r3, #1
10001660:	f85d 4b04 	ldr.w	r4, [sp], #4
10001664:	f7fe bfca 	b.w	100005fc <hw_claim_or_assert>
10001668:	200032ec 	.word	0x200032ec
1000166c:	400b8000 	.word	0x400b8000
10001670:	10012c68 	.word	0x10012c68

10001674 <timer_time_us_64>:
10001674:	4603      	mov	r3, r0
10001676:	6a41      	ldr	r1, [r0, #36]	@ 0x24
10001678:	460a      	mov	r2, r1
1000167a:	6a98      	ldr	r0, [r3, #40]	@ 0x28
1000167c:	6a59      	ldr	r1, [r3, #36]	@ 0x24
1000167e:	428a      	cmp	r2, r1
10001680:	d1fa      	bne.n	10001678 <timer_time_us_64+0x4>
10001682:	4770      	bx	lr

10001684 <time_us_64>:
10001684:	4b03      	ldr	r3, [pc, #12]	@ (10001694 <time_us_64+0x10>)
10001686:	6a59      	ldr	r1, [r3, #36]	@ 0x24
10001688:	460a      	mov	r2, r1
1000168a:	6a98      	ldr	r0, [r3, #40]	@ 0x28
1000168c:	6a59      	ldr	r1, [r3, #36]	@ 0x24
1000168e:	4291      	cmp	r1, r2
10001690:	d1fa      	bne.n	10001688 <time_us_64+0x4>
10001692:	4770      	bx	lr
10001694:	400b0000 	.word	0x400b0000

10001698 <busy_wait_us>:
10001698:	b410      	push	{r4}
1000169a:	4a17      	ldr	r2, [pc, #92]	@ (100016f8 <busy_wait_us+0x60>)
1000169c:	6a53      	ldr	r3, [r2, #36]	@ 0x24
1000169e:	469c      	mov	ip, r3
100016a0:	6a94      	ldr	r4, [r2, #40]	@ 0x28
100016a2:	6a53      	ldr	r3, [r2, #36]	@ 0x24
100016a4:	4563      	cmp	r3, ip
100016a6:	d1fa      	bne.n	1000169e <busy_wait_us+0x6>
100016a8:	1900      	adds	r0, r0, r4
100016aa:	4159      	adcs	r1, r3
100016ac:	f04f 0200 	mov.w	r2, #0
100016b0:	bf28      	it	cs
100016b2:	2201      	movcs	r2, #1
100016b4:	4603      	mov	r3, r0
100016b6:	b1ca      	cbz	r2, 100016ec <busy_wait_us+0x54>
100016b8:	4b0f      	ldr	r3, [pc, #60]	@ (100016f8 <busy_wait_us+0x60>)
100016ba:	6a59      	ldr	r1, [r3, #36]	@ 0x24
100016bc:	1c4b      	adds	r3, r1, #1
100016be:	bf08      	it	eq
100016c0:	460b      	moveq	r3, r1
100016c2:	d008      	beq.n	100016d6 <busy_wait_us+0x3e>
100016c4:	f04f 31ff 	mov.w	r1, #4294967295	@ 0xffffffff
100016c8:	460b      	mov	r3, r1
100016ca:	480b      	ldr	r0, [pc, #44]	@ (100016f8 <busy_wait_us+0x60>)
100016cc:	6a42      	ldr	r2, [r0, #36]	@ 0x24
100016ce:	428a      	cmp	r2, r1
100016d0:	d3fc      	bcc.n	100016cc <busy_wait_us+0x34>
100016d2:	428a      	cmp	r2, r1
100016d4:	d107      	bne.n	100016e6 <busy_wait_us+0x4e>
100016d6:	4a08      	ldr	r2, [pc, #32]	@ (100016f8 <busy_wait_us+0x60>)
100016d8:	e002      	b.n	100016e0 <busy_wait_us+0x48>
100016da:	6a50      	ldr	r0, [r2, #36]	@ 0x24
100016dc:	4288      	cmp	r0, r1
100016de:	d102      	bne.n	100016e6 <busy_wait_us+0x4e>
100016e0:	6a90      	ldr	r0, [r2, #40]	@ 0x28
100016e2:	4298      	cmp	r0, r3
100016e4:	d3f9      	bcc.n	100016da <busy_wait_us+0x42>
100016e6:	f85d 4b04 	ldr.w	r4, [sp], #4
100016ea:	4770      	bx	lr
100016ec:	4a02      	ldr	r2, [pc, #8]	@ (100016f8 <busy_wait_us+0x60>)
100016ee:	6a52      	ldr	r2, [r2, #36]	@ 0x24
100016f0:	4291      	cmp	r1, r2
100016f2:	d8ea      	bhi.n	100016ca <busy_wait_us+0x32>
100016f4:	e7ed      	b.n	100016d2 <busy_wait_us+0x3a>
100016f6:	bf00      	nop
100016f8:	400b0000 	.word	0x400b0000

100016fc <busy_wait_until>:
100016fc:	4a07      	ldr	r2, [pc, #28]	@ (1000171c <busy_wait_until+0x20>)
100016fe:	6a53      	ldr	r3, [r2, #36]	@ 0x24
10001700:	4299      	cmp	r1, r3
10001702:	d8fc      	bhi.n	100016fe <busy_wait_until+0x2>
10001704:	4299      	cmp	r1, r3
10001706:	d107      	bne.n	10001718 <busy_wait_until+0x1c>
10001708:	4b04      	ldr	r3, [pc, #16]	@ (1000171c <busy_wait_until+0x20>)
1000170a:	e002      	b.n	10001712 <busy_wait_until+0x16>
1000170c:	6a5a      	ldr	r2, [r3, #36]	@ 0x24
1000170e:	4291      	cmp	r1, r2
10001710:	d102      	bne.n	10001718 <busy_wait_until+0x1c>
10001712:	6a9a      	ldr	r2, [r3, #40]	@ 0x28
10001714:	4282      	cmp	r2, r0
10001716:	d3f9      	bcc.n	1000170c <busy_wait_until+0x10>
10001718:	4770      	bx	lr
1000171a:	bf00      	nop
1000171c:	400b0000 	.word	0x400b0000

10001720 <uart_init>:
10001720:	b5f8      	push	{r3, r4, r5, r6, r7, lr}
10001722:	4605      	mov	r5, r0
10001724:	2006      	movs	r0, #6
10001726:	460e      	mov	r6, r1
10001728:	f000 f8e4 	bl	100018f4 <clock_get_hz>
1000172c:	2800      	cmp	r0, #0
1000172e:	d042      	beq.n	100017b6 <uart_init+0x96>
10001730:	4a35      	ldr	r2, [pc, #212]	@ (10001808 <uart_init+0xe8>)
10001732:	4836      	ldr	r0, [pc, #216]	@ (1000180c <uart_init+0xec>)
10001734:	4295      	cmp	r5, r2
10001736:	bf14      	ite	ne
10001738:	f04f 6280 	movne.w	r2, #67108864	@ 0x4000000
1000173c:	f04f 6200 	moveq.w	r2, #134217728	@ 0x8000000
10001740:	4b33      	ldr	r3, [pc, #204]	@ (10001810 <uart_init+0xf0>)
10001742:	4934      	ldr	r1, [pc, #208]	@ (10001814 <uart_init+0xf4>)
10001744:	6002      	str	r2, [r0, #0]
10001746:	601a      	str	r2, [r3, #0]
10001748:	688c      	ldr	r4, [r1, #8]
1000174a:	ea32 0404 	bics.w	r4, r2, r4
1000174e:	d1fb      	bne.n	10001748 <uart_init+0x28>
10001750:	4b2d      	ldr	r3, [pc, #180]	@ (10001808 <uart_init+0xe8>)
10001752:	f44f 7180 	mov.w	r1, #256	@ 0x100
10001756:	1aeb      	subs	r3, r5, r3
10001758:	fab3 f383 	clz	r3, r3
1000175c:	4a2e      	ldr	r2, [pc, #184]	@ (10001818 <uart_init+0xf8>)
1000175e:	095b      	lsrs	r3, r3, #5
10001760:	2006      	movs	r0, #6
10001762:	f822 1013 	strh.w	r1, [r2, r3, lsl #1]
10001766:	f000 f8c5 	bl	100018f4 <clock_get_hz>
1000176a:	00c3      	lsls	r3, r0, #3
1000176c:	fbb3 f3f6 	udiv	r3, r3, r6
10001770:	3301      	adds	r3, #1
10001772:	09da      	lsrs	r2, r3, #7
10001774:	d120      	bne.n	100017b8 <uart_init+0x98>
10001776:	2640      	movs	r6, #64	@ 0x40
10001778:	2101      	movs	r1, #1
1000177a:	6269      	str	r1, [r5, #36]	@ 0x24
1000177c:	62aa      	str	r2, [r5, #40]	@ 0x28
1000177e:	6b2f      	ldr	r7, [r5, #48]	@ 0x30
10001780:	07fb      	lsls	r3, r7, #31
10001782:	d422      	bmi.n	100017ca <uart_init+0xaa>
10001784:	462b      	mov	r3, r5
10001786:	2200      	movs	r2, #0
10001788:	f853 1f2c 	ldr.w	r1, [r3, #44]!
1000178c:	2006      	movs	r0, #6
1000178e:	f503 5480 	add.w	r4, r3, #4096	@ 0x1000
10001792:	6022      	str	r2, [r4, #0]
10001794:	632f      	str	r7, [r5, #48]	@ 0x30
10001796:	f000 f8ad 	bl	100018f4 <clock_get_hz>
1000179a:	f240 3101 	movw	r1, #769	@ 0x301
1000179e:	2203      	movs	r2, #3
100017a0:	0080      	lsls	r0, r0, #2
100017a2:	fbb0 f0f6 	udiv	r0, r0, r6
100017a6:	6aeb      	ldr	r3, [r5, #44]	@ 0x2c
100017a8:	f083 0370 	eor.w	r3, r3, #112	@ 0x70
100017ac:	f003 037e 	and.w	r3, r3, #126	@ 0x7e
100017b0:	6023      	str	r3, [r4, #0]
100017b2:	6329      	str	r1, [r5, #48]	@ 0x30
100017b4:	64aa      	str	r2, [r5, #72]	@ 0x48
100017b6:	bdf8      	pop	{r3, r4, r5, r6, r7, pc}
100017b8:	f64f 71fe 	movw	r1, #65534	@ 0xfffe
100017bc:	428a      	cmp	r2, r1
100017be:	d91b      	bls.n	100017f8 <uart_init+0xd8>
100017c0:	4622      	mov	r2, r4
100017c2:	f64f 71ff 	movw	r1, #65535	@ 0xffff
100017c6:	4e15      	ldr	r6, [pc, #84]	@ (1000181c <uart_init+0xfc>)
100017c8:	e7d7      	b.n	1000177a <uart_init+0x5a>
100017ca:	f240 3201 	movw	r2, #769	@ 0x301
100017ce:	f505 5340 	add.w	r3, r5, #12288	@ 0x3000
100017d2:	631a      	str	r2, [r3, #48]	@ 0x30
100017d4:	6a6b      	ldr	r3, [r5, #36]	@ 0x24
100017d6:	6aac      	ldr	r4, [r5, #40]	@ 0x28
100017d8:	2006      	movs	r0, #6
100017da:	eb04 1483 	add.w	r4, r4, r3, lsl #6
100017de:	f000 f889 	bl	100018f4 <clock_get_hz>
100017e2:	4b0f      	ldr	r3, [pc, #60]	@ (10001820 <uart_init+0x100>)
100017e4:	02a4      	lsls	r4, r4, #10
100017e6:	fba3 2300 	umull	r2, r3, r3, r0
100017ea:	0adb      	lsrs	r3, r3, #11
100017ec:	2100      	movs	r1, #0
100017ee:	fbb4 f0f3 	udiv	r0, r4, r3
100017f2:	f7ff ff51 	bl	10001698 <busy_wait_us>
100017f6:	e7c5      	b.n	10001784 <uart_init+0x64>
100017f8:	f3c3 0345 	ubfx	r3, r3, #1, #6
100017fc:	4611      	mov	r1, r2
100017fe:	eb03 1682 	add.w	r6, r3, r2, lsl #6
10001802:	461a      	mov	r2, r3
10001804:	e7b9      	b.n	1000177a <uart_init+0x5a>
10001806:	bf00      	nop
10001808:	40078000 	.word	0x40078000
1000180c:	40022000 	.word	0x40022000
10001810:	40023000 	.word	0x40023000
10001814:	40020000 	.word	0x40020000
10001818:	20003a58 	.word	0x20003a58
1000181c:	003fffc0 	.word	0x003fffc0
10001820:	8f2b7b75 	.word	0x8f2b7b75

10001824 <clock_configure_undivided>:
10001824:	eb00 0c40 	add.w	ip, r0, r0, lsl #1
10001828:	ea4f 0c8c 	mov.w	ip, ip, lsl #2
1000182c:	f10c 4c80 	add.w	ip, ip, #1073741824	@ 0x40000000
10001830:	f50c 3c80 	add.w	ip, ip, #65536	@ 0x10000
10001834:	b5f0      	push	{r4, r5, r6, r7, lr}
10001836:	4616      	mov	r6, r2
10001838:	f8dc 2004 	ldr.w	r2, [ip, #4]
1000183c:	1f05      	subs	r5, r0, #4
1000183e:	f5b2 3f80 	cmp.w	r2, #65536	@ 0x10000
10001842:	bf38      	it	cc
10001844:	f44f 3280 	movcc.w	r2, #65536	@ 0x10000
10001848:	b2ed      	uxtb	r5, r5
1000184a:	bf38      	it	cc
1000184c:	f8cc 2004 	strcc.w	r2, [ip, #4]
10001850:	2d01      	cmp	r5, #1
10001852:	d92a      	bls.n	100018aa <clock_configure_undivided+0x86>
10001854:	f44f 6700 	mov.w	r7, #2048	@ 0x800
10001858:	4c25      	ldr	r4, [pc, #148]	@ (100018f0 <clock_configure_undivided+0xcc>)
1000185a:	f50c 5240 	add.w	r2, ip, #12288	@ 0x3000
1000185e:	6017      	str	r7, [r2, #0]
10001860:	f854 2020 	ldr.w	r2, [r4, r0, lsl #2]
10001864:	b9b2      	cbnz	r2, 10001894 <clock_configure_undivided+0x70>
10001866:	f8dc 2000 	ldr.w	r2, [ip]
1000186a:	2d01      	cmp	r5, #1
1000186c:	ea82 1246 	eor.w	r2, r2, r6, lsl #5
10001870:	f002 02e0 	and.w	r2, r2, #224	@ 0xe0
10001874:	f50c 5680 	add.w	r6, ip, #4096	@ 0x1000
10001878:	6032      	str	r2, [r6, #0]
1000187a:	d92a      	bls.n	100018d2 <clock_configure_undivided+0xae>
1000187c:	f44f 6100 	mov.w	r1, #2048	@ 0x800
10001880:	f844 3020 	str.w	r3, [r4, r0, lsl #2]
10001884:	f44f 3380 	mov.w	r3, #65536	@ 0x10000
10001888:	f50c 5200 	add.w	r2, ip, #8192	@ 0x2000
1000188c:	6011      	str	r1, [r2, #0]
1000188e:	f8cc 3004 	str.w	r3, [ip, #4]
10001892:	bdf0      	pop	{r4, r5, r6, r7, pc}
10001894:	6967      	ldr	r7, [r4, #20]
10001896:	fbb7 fef2 	udiv	lr, r7, r2
1000189a:	f10e 0e01 	add.w	lr, lr, #1
1000189e:	eb0e 0e4e 	add.w	lr, lr, lr, lsl #1
100018a2:	f1be 0e03 	subs.w	lr, lr, #3
100018a6:	d2fc      	bcs.n	100018a2 <clock_configure_undivided+0x7e>
100018a8:	e7dd      	b.n	10001866 <clock_configure_undivided+0x42>
100018aa:	2901      	cmp	r1, #1
100018ac:	d1d2      	bne.n	10001854 <clock_configure_undivided+0x30>
100018ae:	2403      	movs	r4, #3
100018b0:	f50c 5240 	add.w	r2, ip, #12288	@ 0x3000
100018b4:	6014      	str	r4, [r2, #0]
100018b6:	f8dc 2008 	ldr.w	r2, [ip, #8]
100018ba:	07d2      	lsls	r2, r2, #31
100018bc:	d5fb      	bpl.n	100018b6 <clock_configure_undivided+0x92>
100018be:	f8dc 2000 	ldr.w	r2, [ip]
100018c2:	4c0b      	ldr	r4, [pc, #44]	@ (100018f0 <clock_configure_undivided+0xcc>)
100018c4:	ea82 1246 	eor.w	r2, r2, r6, lsl #5
100018c8:	f002 02e0 	and.w	r2, r2, #224	@ 0xe0
100018cc:	f50c 5680 	add.w	r6, ip, #4096	@ 0x1000
100018d0:	6032      	str	r2, [r6, #0]
100018d2:	2201      	movs	r2, #1
100018d4:	f8dc 5000 	ldr.w	r5, [ip]
100018d8:	404d      	eors	r5, r1
100018da:	f005 0503 	and.w	r5, r5, #3
100018de:	6035      	str	r5, [r6, #0]
100018e0:	fa02 f101 	lsl.w	r1, r2, r1
100018e4:	f8dc 2008 	ldr.w	r2, [ip, #8]
100018e8:	420a      	tst	r2, r1
100018ea:	d0fb      	beq.n	100018e4 <clock_configure_undivided+0xc0>
100018ec:	e7c6      	b.n	1000187c <clock_configure_undivided+0x58>
100018ee:	bf00      	nop
100018f0:	200032f0 	.word	0x200032f0

100018f4 <clock_get_hz>:
100018f4:	4b01      	ldr	r3, [pc, #4]	@ (100018fc <clock_get_hz+0x8>)
100018f6:	f853 0020 	ldr.w	r0, [r3, r0, lsl #2]
100018fa:	4770      	bx	lr
100018fc:	200032f0 	.word	0x200032f0

10001900 <pll_init>:
10001900:	b470      	push	{r4, r5, r6}
10001902:	9d03      	ldr	r5, [sp, #12]
10001904:	6804      	ldr	r4, [r0, #0]
10001906:	032d      	lsls	r5, r5, #12
10001908:	ea45 4503 	orr.w	r5, r5, r3, lsl #16
1000190c:	4b1b      	ldr	r3, [pc, #108]	@ (1000197c <pll_init+0x7c>)
1000190e:	2c00      	cmp	r4, #0
10001910:	fbb3 f3f1 	udiv	r3, r3, r1
10001914:	fbb2 f6f3 	udiv	r6, r2, r3
10001918:	db1f      	blt.n	1000195a <pll_init+0x5a>
1000191a:	4a19      	ldr	r2, [pc, #100]	@ (10001980 <pll_init+0x80>)
1000191c:	4b19      	ldr	r3, [pc, #100]	@ (10001984 <pll_init+0x84>)
1000191e:	4290      	cmp	r0, r2
10001920:	bf14      	ite	ne
10001922:	f44f 4280 	movne.w	r2, #16384	@ 0x4000
10001926:	f44f 4200 	moveq.w	r2, #32768	@ 0x8000
1000192a:	4c17      	ldr	r4, [pc, #92]	@ (10001988 <pll_init+0x88>)
1000192c:	601a      	str	r2, [r3, #0]
1000192e:	f503 5380 	add.w	r3, r3, #4096	@ 0x1000
10001932:	601a      	str	r2, [r3, #0]
10001934:	68a3      	ldr	r3, [r4, #8]
10001936:	ea32 0303 	bics.w	r3, r2, r3
1000193a:	d1fb      	bne.n	10001934 <pll_init+0x34>
1000193c:	2221      	movs	r2, #33	@ 0x21
1000193e:	f500 5340 	add.w	r3, r0, #12288	@ 0x3000
10001942:	3304      	adds	r3, #4
10001944:	6001      	str	r1, [r0, #0]
10001946:	6086      	str	r6, [r0, #8]
10001948:	601a      	str	r2, [r3, #0]
1000194a:	6802      	ldr	r2, [r0, #0]
1000194c:	2a00      	cmp	r2, #0
1000194e:	dafc      	bge.n	1000194a <pll_init+0x4a>
10001950:	2208      	movs	r2, #8
10001952:	60c5      	str	r5, [r0, #12]
10001954:	601a      	str	r2, [r3, #0]
10001956:	bc70      	pop	{r4, r5, r6}
10001958:	4770      	bx	lr
1000195a:	6803      	ldr	r3, [r0, #0]
1000195c:	f003 033f 	and.w	r3, r3, #63	@ 0x3f
10001960:	428b      	cmp	r3, r1
10001962:	d1da      	bne.n	1000191a <pll_init+0x1a>
10001964:	6883      	ldr	r3, [r0, #8]
10001966:	f3c3 030b 	ubfx	r3, r3, #0, #12
1000196a:	42b3      	cmp	r3, r6
1000196c:	d1d5      	bne.n	1000191a <pll_init+0x1a>
1000196e:	68c3      	ldr	r3, [r0, #12]
10001970:	f403 23ee 	and.w	r3, r3, #487424	@ 0x77000
10001974:	42ab      	cmp	r3, r5
10001976:	d1d0      	bne.n	1000191a <pll_init+0x1a>
10001978:	e7ed      	b.n	10001956 <pll_init+0x56>
1000197a:	bf00      	nop
1000197c:	00b71b00 	.word	0x00b71b00
10001980:	40058000 	.word	0x40058000
10001984:	40022000 	.word	0x40022000
10001988:	40020000 	.word	0x40020000

1000198c <watchdog_reboot>:
1000198c:	b430      	push	{r4, r5}
1000198e:	f04f 4480 	mov.w	r4, #1073741824	@ 0x40000000
10001992:	4b1c      	ldr	r3, [pc, #112]	@ (10001a04 <watchdog_reboot+0x78>)
10001994:	601c      	str	r4, [r3, #0]
10001996:	b1e0      	cbz	r0, 100019d2 <watchdog_reboot+0x46>
10001998:	4c1b      	ldr	r4, [pc, #108]	@ (10001a08 <watchdog_reboot+0x7c>)
1000199a:	f5a3 5340 	sub.w	r3, r3, #12288	@ 0x3000
1000199e:	61dc      	str	r4, [r3, #28]
100019a0:	4c1a      	ldr	r4, [pc, #104]	@ (10001a0c <watchdog_reboot+0x80>)
100019a2:	f040 0001 	orr.w	r0, r0, #1
100019a6:	4044      	eors	r4, r0
100019a8:	621c      	str	r4, [r3, #32]
100019aa:	6259      	str	r1, [r3, #36]	@ 0x24
100019ac:	6298      	str	r0, [r3, #40]	@ 0x28
100019ae:	f04f 4580 	mov.w	r5, #1073741824	@ 0x40000000
100019b2:	f04f 61e0 	mov.w	r1, #117440512	@ 0x7000000
100019b6:	4b13      	ldr	r3, [pc, #76]	@ (10001a04 <watchdog_reboot+0x78>)
100019b8:	4815      	ldr	r0, [pc, #84]	@ (10001a10 <watchdog_reboot+0x84>)
100019ba:	4c16      	ldr	r4, [pc, #88]	@ (10001a14 <watchdog_reboot+0x88>)
100019bc:	601d      	str	r5, [r3, #0]
100019be:	6084      	str	r4, [r0, #8]
100019c0:	6019      	str	r1, [r3, #0]
100019c2:	b94a      	cbnz	r2, 100019d8 <watchdog_reboot+0x4c>
100019c4:	bc30      	pop	{r4, r5}
100019c6:	f04f 4200 	mov.w	r2, #2147483648	@ 0x80000000
100019ca:	f5a3 5380 	sub.w	r3, r3, #4096	@ 0x1000
100019ce:	601a      	str	r2, [r3, #0]
100019d0:	4770      	bx	lr
100019d2:	4b11      	ldr	r3, [pc, #68]	@ (10001a18 <watchdog_reboot+0x8c>)
100019d4:	61d8      	str	r0, [r3, #28]
100019d6:	e7ea      	b.n	100019ae <watchdog_reboot+0x22>
100019d8:	f44f 737a 	mov.w	r3, #1000	@ 0x3e8
100019dc:	fb03 f202 	mul.w	r2, r3, r2
100019e0:	f1b2 7f80 	cmp.w	r2, #16777216	@ 0x1000000
100019e4:	bf2a      	itet	cs
100019e6:	f06f 437f 	mvncs.w	r3, #4278190080	@ 0xff000000
100019ea:	4613      	movcc	r3, r2
100019ec:	461a      	movcs	r2, r3
100019ee:	f04f 4180 	mov.w	r1, #1073741824	@ 0x40000000
100019f2:	4c0a      	ldr	r4, [pc, #40]	@ (10001a1c <watchdog_reboot+0x90>)
100019f4:	4808      	ldr	r0, [pc, #32]	@ (10001a18 <watchdog_reboot+0x8c>)
100019f6:	6023      	str	r3, [r4, #0]
100019f8:	4b09      	ldr	r3, [pc, #36]	@ (10001a20 <watchdog_reboot+0x94>)
100019fa:	6042      	str	r2, [r0, #4]
100019fc:	bc30      	pop	{r4, r5}
100019fe:	6019      	str	r1, [r3, #0]
10001a00:	4770      	bx	lr
10001a02:	bf00      	nop
10001a04:	400db000 	.word	0x400db000
10001a08:	b007c0d3 	.word	0xb007c0d3
10001a0c:	4ff83f2d 	.word	0x4ff83f2d
10001a10:	4001a000 	.word	0x4001a000
10001a14:	01fffff3 	.word	0x01fffff3
10001a18:	400d8000 	.word	0x400d8000
10001a1c:	20003760 	.word	0x20003760
10001a20:	400da000 	.word	0x400da000

10001a24 <tick_start>:
10001a24:	2301      	movs	r3, #1
10001a26:	eb00 0040 	add.w	r0, r0, r0, lsl #1
10001a2a:	0080      	lsls	r0, r0, #2
10001a2c:	f100 4080 	add.w	r0, r0, #1073741824	@ 0x40000000
10001a30:	f500 1084 	add.w	r0, r0, #1081344	@ 0x108000
10001a34:	6041      	str	r1, [r0, #4]
10001a36:	6003      	str	r3, [r0, #0]
10001a38:	4770      	bx	lr
10001a3a:	bf00      	nop

10001a3c <xosc_init>:
10001a3c:	b410      	push	{r4}
10001a3e:	202f      	movs	r0, #47	@ 0x2f
10001a40:	f44f 642a 	mov.w	r4, #2720	@ 0xaa0
10001a44:	4a05      	ldr	r2, [pc, #20]	@ (10001a5c <xosc_init+0x20>)
10001a46:	4b06      	ldr	r3, [pc, #24]	@ (10001a60 <xosc_init+0x24>)
10001a48:	4906      	ldr	r1, [pc, #24]	@ (10001a64 <xosc_init+0x28>)
10001a4a:	6014      	str	r4, [r2, #0]
10001a4c:	60d0      	str	r0, [r2, #12]
10001a4e:	6019      	str	r1, [r3, #0]
10001a50:	6853      	ldr	r3, [r2, #4]
10001a52:	2b00      	cmp	r3, #0
10001a54:	dafc      	bge.n	10001a50 <xosc_init+0x14>
10001a56:	f85d 4b04 	ldr.w	r4, [sp], #4
10001a5a:	4770      	bx	lr
10001a5c:	40048000 	.word	0x40048000
10001a60:	4004a000 	.word	0x4004a000
10001a64:	00fab000 	.word	0x00fab000

10001a68 <first_per_core_initializer>:
10001a68:	4770      	bx	lr
10001a6a:	bf00      	nop

10001a6c <hard_assertion_failure>:
10001a6c:	b508      	push	{r3, lr}
10001a6e:	4801      	ldr	r0, [pc, #4]	@ (10001a74 <hard_assertion_failure+0x8>)
10001a70:	f7fe fd90 	bl	10000594 <panic>
10001a74:	10012c8c 	.word	0x10012c8c

10001a78 <runtime_run_initializers>:
10001a78:	b538      	push	{r3, r4, r5, lr}
10001a7a:	4c05      	ldr	r4, [pc, #20]	@ (10001a90 <runtime_run_initializers+0x18>)
10001a7c:	4d05      	ldr	r5, [pc, #20]	@ (10001a94 <runtime_run_initializers+0x1c>)
10001a7e:	42ac      	cmp	r4, r5
10001a80:	d204      	bcs.n	10001a8c <runtime_run_initializers+0x14>
10001a82:	f854 3b04 	ldr.w	r3, [r4], #4
10001a86:	4798      	blx	r3
10001a88:	42ac      	cmp	r4, r5
10001a8a:	d3fa      	bcc.n	10001a82 <runtime_run_initializers+0xa>
10001a8c:	bd38      	pop	{r3, r4, r5, pc}
10001a8e:	bf00      	nop
10001a90:	10012ad8 	.word	0x10012ad8
10001a94:	10012b18 	.word	0x10012b18

10001a98 <runtime_init_early_resets>:
10001a98:	b410      	push	{r4}
10001a9a:	4807      	ldr	r0, [pc, #28]	@ (10001ab8 <runtime_init_early_resets+0x20>)
10001a9c:	4c07      	ldr	r4, [pc, #28]	@ (10001abc <runtime_init_early_resets+0x24>)
10001a9e:	4b08      	ldr	r3, [pc, #32]	@ (10001ac0 <runtime_init_early_resets+0x28>)
10001aa0:	4a08      	ldr	r2, [pc, #32]	@ (10001ac4 <runtime_init_early_resets+0x2c>)
10001aa2:	4909      	ldr	r1, [pc, #36]	@ (10001ac8 <runtime_init_early_resets+0x30>)
10001aa4:	6004      	str	r4, [r0, #0]
10001aa6:	601a      	str	r2, [r3, #0]
10001aa8:	688b      	ldr	r3, [r1, #8]
10001aaa:	ea32 0303 	bics.w	r3, r2, r3
10001aae:	d1fb      	bne.n	10001aa8 <runtime_init_early_resets+0x10>
10001ab0:	f85d 4b04 	ldr.w	r4, [sp], #4
10001ab4:	4770      	bx	lr
10001ab6:	bf00      	nop
10001ab8:	40022000 	.word	0x40022000
10001abc:	efef3b7f 	.word	0xefef3b7f
10001ac0:	40023000 	.word	0x40023000
10001ac4:	03f3fff6 	.word	0x03f3fff6
10001ac8:	40020000 	.word	0x40020000

10001acc <runtime_init_usb_power_down>:
10001acc:	4b04      	ldr	r3, [pc, #16]	@ (10001ae0 <runtime_init_usb_power_down+0x14>)
10001ace:	6cdb      	ldr	r3, [r3, #76]	@ 0x4c
10001ad0:	f5b3 4f00 	cmp.w	r3, #32768	@ 0x8000
10001ad4:	d103      	bne.n	10001ade <runtime_init_usb_power_down+0x12>
10001ad6:	f44f 2280 	mov.w	r2, #262144	@ 0x40000
10001ada:	4b02      	ldr	r3, [pc, #8]	@ (10001ae4 <runtime_init_usb_power_down+0x18>)
10001adc:	64da      	str	r2, [r3, #76]	@ 0x4c
10001ade:	4770      	bx	lr
10001ae0:	50110000 	.word	0x50110000
10001ae4:	50112000 	.word	0x50112000

10001ae8 <runtime_init_per_core_enable_coprocessors>:
10001ae8:	f04f 22e0 	mov.w	r2, #3758153728	@ 0xe000e000
10001aec:	4b04      	ldr	r3, [pc, #16]	@ (10001b00 <runtime_init_per_core_enable_coprocessors+0x18>)
10001aee:	f8d2 1d88 	ldr.w	r1, [r2, #3464]	@ 0xd88
10001af2:	430b      	orrs	r3, r1
10001af4:	f8c2 3d88 	str.w	r3, [r2, #3464]	@ 0xd88
10001af8:	ee10 0430 	dcp_rcmp r0
10001afc:	4770      	bx	lr
10001afe:	bf00      	nop
10001b00:	00300303 	.word	0x00300303

10001b04 <runtime_init_post_clock_resets>:
10001b04:	f06f 4160 	mvn.w	r1, #3758096384	@ 0xe0000000
10001b08:	4b04      	ldr	r3, [pc, #16]	@ (10001b1c <runtime_init_post_clock_resets+0x18>)
10001b0a:	4a05      	ldr	r2, [pc, #20]	@ (10001b20 <runtime_init_post_clock_resets+0x1c>)
10001b0c:	6019      	str	r1, [r3, #0]
10001b0e:	6893      	ldr	r3, [r2, #8]
10001b10:	43db      	mvns	r3, r3
10001b12:	f033 4360 	bics.w	r3, r3, #3758096384	@ 0xe0000000
10001b16:	d1fa      	bne.n	10001b0e <runtime_init_post_clock_resets+0xa>
10001b18:	4770      	bx	lr
10001b1a:	bf00      	nop
10001b1c:	40023000 	.word	0x40023000
10001b20:	40020000 	.word	0x40020000

10001b24 <runtime_init_bootrom_reset>:
10001b24:	b510      	push	{r4, lr}
10001b26:	f245 2053 	movw	r0, #21075	@ 0x5253
10001b2a:	f000 f88f 	bl	10001c4c <rom_func_lookup>
10001b2e:	e8bd 4010 	ldmia.w	sp!, {r4, lr}
10001b32:	4603      	mov	r3, r0
10001b34:	2004      	movs	r0, #4
10001b36:	4718      	bx	r3

10001b38 <runtime_init_per_core_bootrom_reset>:
10001b38:	b510      	push	{r4, lr}
10001b3a:	f245 2053 	movw	r0, #21075	@ 0x5253
10001b3e:	f000 f885 	bl	10001c4c <rom_func_lookup>
10001b42:	e8bd 4010 	ldmia.w	sp!, {r4, lr}
10001b46:	4603      	mov	r3, r0
10001b48:	2001      	movs	r0, #1
10001b4a:	4718      	bx	r3

10001b4c <runtime_init_spin_locks_reset>:
10001b4c:	f7fe bdf4 	b.w	10000738 <spin_locks_reset>

10001b50 <runtime_init_install_ram_vector_table>:
10001b50:	b510      	push	{r4, lr}
10001b52:	4b05      	ldr	r3, [pc, #20]	@ (10001b68 <runtime_init_install_ram_vector_table+0x18>)
10001b54:	4c05      	ldr	r4, [pc, #20]	@ (10001b6c <runtime_init_install_ram_vector_table+0x1c>)
10001b56:	f44f 7288 	mov.w	r2, #272	@ 0x110
10001b5a:	4618      	mov	r0, r3
10001b5c:	68a1      	ldr	r1, [r4, #8]
10001b5e:	f010 f9a3 	bl	10011ea8 <memcpy>
10001b62:	60a0      	str	r0, [r4, #8]
10001b64:	bd10      	pop	{r4, pc}
10001b66:	bf00      	nop
10001b68:	20000000 	.word	0x20000000
10001b6c:	e000ed00 	.word	0xe000ed00

10001b70 <runtime_init_clocks>:
10001b70:	2300      	movs	r3, #0
10001b72:	b570      	push	{r4, r5, r6, lr}
10001b74:	4c2b      	ldr	r4, [pc, #172]	@ (10001c24 <runtime_init_clocks+0xb4>)
10001b76:	b082      	sub	sp, #8
10001b78:	f8c4 3084 	str.w	r3, [r4, #132]	@ 0x84
10001b7c:	f7ff ff5e 	bl	10001a3c <xosc_init>
10001b80:	2201      	movs	r2, #1
10001b82:	4b29      	ldr	r3, [pc, #164]	@ (10001c28 <runtime_init_clocks+0xb8>)
10001b84:	63da      	str	r2, [r3, #60]	@ 0x3c
10001b86:	6c63      	ldr	r3, [r4, #68]	@ 0x44
10001b88:	2b01      	cmp	r3, #1
10001b8a:	d1fc      	bne.n	10001b86 <runtime_init_clocks+0x16>
10001b8c:	2103      	movs	r1, #3
10001b8e:	4a26      	ldr	r2, [pc, #152]	@ (10001c28 <runtime_init_clocks+0xb8>)
10001b90:	4b24      	ldr	r3, [pc, #144]	@ (10001c24 <runtime_init_clocks+0xb4>)
10001b92:	6311      	str	r1, [r2, #48]	@ 0x30
10001b94:	6b9c      	ldr	r4, [r3, #56]	@ 0x38
10001b96:	2c01      	cmp	r4, #1
10001b98:	d1fc      	bne.n	10001b94 <runtime_init_clocks+0x24>
10001b9a:	2602      	movs	r6, #2
10001b9c:	2505      	movs	r5, #5
10001b9e:	4621      	mov	r1, r4
10001ba0:	2305      	movs	r3, #5
10001ba2:	4a22      	ldr	r2, [pc, #136]	@ (10001c2c <runtime_init_clocks+0xbc>)
10001ba4:	4822      	ldr	r0, [pc, #136]	@ (10001c30 <runtime_init_clocks+0xc0>)
10001ba6:	9600      	str	r6, [sp, #0]
10001ba8:	f7ff feaa 	bl	10001900 <pll_init>
10001bac:	4621      	mov	r1, r4
10001bae:	462b      	mov	r3, r5
10001bb0:	4a20      	ldr	r2, [pc, #128]	@ (10001c34 <runtime_init_clocks+0xc4>)
10001bb2:	4821      	ldr	r0, [pc, #132]	@ (10001c38 <runtime_init_clocks+0xc8>)
10001bb4:	9500      	str	r5, [sp, #0]
10001bb6:	f7ff fea3 	bl	10001900 <pll_init>
10001bba:	2200      	movs	r2, #0
10001bbc:	2004      	movs	r0, #4
10001bbe:	4631      	mov	r1, r6
10001bc0:	4b1e      	ldr	r3, [pc, #120]	@ (10001c3c <runtime_init_clocks+0xcc>)
10001bc2:	f7ff fe2f 	bl	10001824 <clock_configure_undivided>
10001bc6:	4621      	mov	r1, r4
10001bc8:	4628      	mov	r0, r5
10001bca:	2200      	movs	r2, #0
10001bcc:	4b1c      	ldr	r3, [pc, #112]	@ (10001c40 <runtime_init_clocks+0xd0>)
10001bce:	f7ff fe29 	bl	10001824 <clock_configure_undivided>
10001bd2:	2200      	movs	r2, #0
10001bd4:	2008      	movs	r0, #8
10001bd6:	4611      	mov	r1, r2
10001bd8:	4b1a      	ldr	r3, [pc, #104]	@ (10001c44 <runtime_init_clocks+0xd4>)
10001bda:	f7ff fe23 	bl	10001824 <clock_configure_undivided>
10001bde:	2200      	movs	r2, #0
10001be0:	2009      	movs	r0, #9
10001be2:	4611      	mov	r1, r2
10001be4:	4b17      	ldr	r3, [pc, #92]	@ (10001c44 <runtime_init_clocks+0xd4>)
10001be6:	f7ff fe1d 	bl	10001824 <clock_configure_undivided>
10001bea:	2200      	movs	r2, #0
10001bec:	2006      	movs	r0, #6
10001bee:	4611      	mov	r1, r2
10001bf0:	4b13      	ldr	r3, [pc, #76]	@ (10001c40 <runtime_init_clocks+0xd0>)
10001bf2:	f7ff fe17 	bl	10001824 <clock_configure_undivided>
10001bf6:	2200      	movs	r2, #0
10001bf8:	4b11      	ldr	r3, [pc, #68]	@ (10001c40 <runtime_init_clocks+0xd0>)
10001bfa:	2007      	movs	r0, #7
10001bfc:	4611      	mov	r1, r2
10001bfe:	f7ff fe11 	bl	10001824 <clock_configure_undivided>
10001c02:	2004      	movs	r0, #4
10001c04:	f7ff fe76 	bl	100018f4 <clock_get_hz>
10001c08:	2400      	movs	r4, #0
10001c0a:	4b0f      	ldr	r3, [pc, #60]	@ (10001c48 <runtime_init_clocks+0xd8>)
10001c0c:	fba3 3500 	umull	r3, r5, r3, r0
10001c10:	0cad      	lsrs	r5, r5, #18
10001c12:	b2e0      	uxtb	r0, r4
10001c14:	4629      	mov	r1, r5
10001c16:	3401      	adds	r4, #1
10001c18:	f7ff ff04 	bl	10001a24 <tick_start>
10001c1c:	2c06      	cmp	r4, #6
10001c1e:	d1f8      	bne.n	10001c12 <runtime_init_clocks+0xa2>
10001c20:	b002      	add	sp, #8
10001c22:	bd70      	pop	{r4, r5, r6, pc}
10001c24:	40010000 	.word	0x40010000
10001c28:	40013000 	.word	0x40013000
10001c2c:	59682f00 	.word	0x59682f00
10001c30:	40050000 	.word	0x40050000
10001c34:	47868c00 	.word	0x47868c00
10001c38:	40058000 	.word	0x40058000
10001c3c:	00b71b00 	.word	0x00b71b00
10001c40:	08f0d180 	.word	0x08f0d180
10001c44:	02dc6c00 	.word	0x02dc6c00
10001c48:	431bde83 	.word	0x431bde83

10001c4c <rom_func_lookup>:
10001c4c:	2300      	movs	r3, #0
10001c4e:	7cdb      	ldrb	r3, [r3, #19]
10001c50:	2b02      	cmp	r3, #2
10001c52:	bf14      	ite	ne
10001c54:	2318      	movne	r3, #24
10001c56:	2316      	moveq	r3, #22
10001c58:	881b      	ldrh	r3, [r3, #0]
10001c5a:	2200      	movs	r2, #0
10001c5c:	e842 f200 	tt	r2, r2
10001c60:	0252      	lsls	r2, r2, #9
10001c62:	d401      	bmi.n	10001c68 <rom_func_lookup+0x1c>
10001c64:	2110      	movs	r1, #16
10001c66:	4718      	bx	r3
10001c68:	2104      	movs	r1, #4
10001c6a:	4718      	bx	r3

10001c6c <rom_reset_usb_boot>:
10001c6c:	4604      	mov	r4, r0
10001c6e:	460d      	mov	r5, r1
10001c70:	b508      	push	{r3, lr}
10001c72:	b128      	cbz	r0, 10001c80 <rom_reset_usb_boot+0x14>
10001c74:	fa90 f4a0 	rbit	r4, r0
10001c78:	fab4 f484 	clz	r4, r4
10001c7c:	f041 0520 	orr.w	r5, r1, #32
10001c80:	2300      	movs	r3, #0
10001c82:	7cdb      	ldrb	r3, [r3, #19]
10001c84:	2b02      	cmp	r3, #2
10001c86:	bf14      	ite	ne
10001c88:	2318      	movne	r3, #24
10001c8a:	2316      	moveq	r3, #22
10001c8c:	881b      	ldrh	r3, [r3, #0]
10001c8e:	2200      	movs	r2, #0
10001c90:	e842 f200 	tt	r2, r2
10001c94:	0252      	lsls	r2, r2, #9
10001c96:	bf54      	ite	pl
10001c98:	2110      	movpl	r1, #16
10001c9a:	2104      	movmi	r1, #4
10001c9c:	f244 2052 	movw	r0, #16978	@ 0x4252
10001ca0:	4798      	blx	r3
10001ca2:	4623      	mov	r3, r4
10001ca4:	4606      	mov	r6, r0
10001ca6:	462a      	mov	r2, r5
10001ca8:	210a      	movs	r1, #10
10001caa:	f44f 7081 	mov.w	r0, #258	@ 0x102
10001cae:	47b0      	blx	r6

10001cb0 <runtime_init_bootrom_locking_enable>:
10001cb0:	4a03      	ldr	r2, [pc, #12]	@ (10001cc0 <runtime_init_bootrom_locking_enable+0x10>)
10001cb2:	f8d2 3828 	ldr.w	r3, [r2, #2088]	@ 0x828
10001cb6:	2b00      	cmp	r3, #0
10001cb8:	d0fb      	beq.n	10001cb2 <runtime_init_bootrom_locking_enable+0x2>
10001cba:	f3bf 8f5f 	dmb	sy
10001cbe:	4770      	bx	lr
10001cc0:	400e0000 	.word	0x400e0000

10001cc4 <runtime_init_boot_locks_reset>:
10001cc4:	2100      	movs	r1, #0
10001cc6:	4b04      	ldr	r3, [pc, #16]	@ (10001cd8 <runtime_init_boot_locks_reset+0x14>)
10001cc8:	4a04      	ldr	r2, [pc, #16]	@ (10001cdc <runtime_init_boot_locks_reset+0x18>)
10001cca:	f3bf 8f5f 	dmb	sy
10001cce:	f843 1b04 	str.w	r1, [r3], #4
10001cd2:	4293      	cmp	r3, r2
10001cd4:	d1f9      	bne.n	10001cca <runtime_init_boot_locks_reset+0x6>
10001cd6:	4770      	bx	lr
10001cd8:	400e080c 	.word	0x400e080c
10001cdc:	400e082c 	.word	0x400e082c

10001ce0 <generic_save_state>:
10001ce0:	b086      	sub	sp, #24
10001ce2:	b403      	push	{r0, r1}
10001ce4:	fc51 0408 	dcp_pxmd r0, r1
10001ce8:	e9cd 0102 	strd	r0, r1, [sp, #8]
10001cec:	fc51 0409 	dcp_pymd r0, r1
10001cf0:	e9cd 0104 	strd	r0, r1, [sp, #16]
10001cf4:	ec51 040a 	dcp_refd r0, r1
10001cf8:	e9cd 0106 	strd	r0, r1, [sp, #24]
10001cfc:	bc03      	pop	{r0, r1}
10001cfe:	47f0      	blx	lr

10001d00 <generic_restore_state>:
10001d00:	e8bd 5000 	ldmia.w	sp!, {ip, lr}
10001d04:	ec4e c400 	dcp_wxmd ip, lr
10001d08:	e8bd 5000 	ldmia.w	sp!, {ip, lr}
10001d0c:	ec4e c401 	dcp_wymd ip, lr
10001d10:	e8bd 5000 	ldmia.w	sp!, {ip, lr}
10001d14:	ec4e c402 	dcp_wefd ip, lr
10001d18:	bd00      	pop	{pc}
10001d1a:	0000      	movs	r0, r0
10001d1c:	b500      	push	{lr}
10001d1e:	f7ff ffdf 	bl	10001ce0 <generic_save_state>
10001d22:	e002      	b.n	10001d2a <__wrap___aeabi_dadd+0x6>

10001d24 <__wrap___aeabi_dadd>:
10001d24:	fe10 f430 	dcp_pcmp APSR_nzcv
10001d28:	d4f8      	bmi.n	10001d1c <generic_restore_state+0x1c>
10001d2a:	ec41 0410 	dcp_wxup r0, r1
10001d2e:	ec43 2411 	dcp_wyup r2, r3
10001d32:	ee00 0401 	dcp_add0
10001d36:	ee10 0401 	dcp_add1
10001d3a:	ee80 0420 	dcp_nrdd
10001d3e:	ec51 0410 	dcp_rdda r0, r1
10001d42:	4770      	bx	lr
10001d44:	b500      	push	{lr}
10001d46:	f7ff ffcb 	bl	10001ce0 <generic_save_state>
10001d4a:	e002      	b.n	10001d52 <__wrap___aeabi_dsub+0x6>

10001d4c <__wrap___aeabi_dsub>:
10001d4c:	fe10 f430 	dcp_pcmp APSR_nzcv
10001d50:	d4f8      	bmi.n	10001d44 <__wrap___aeabi_dadd+0x20>
10001d52:	ec41 0410 	dcp_wxup r0, r1
10001d56:	ec43 2411 	dcp_wyup r2, r3
10001d5a:	ee00 0401 	dcp_add0
10001d5e:	ee10 0421 	dcp_sub1
10001d62:	ee80 0420 	dcp_nrdd
10001d66:	ec51 0430 	dcp_rdds r0, r1
10001d6a:	4770      	bx	lr
10001d6c:	b500      	push	{lr}
10001d6e:	f7ff ffb7 	bl	10001ce0 <generic_save_state>
10001d72:	e002      	b.n	10001d7a <__wrap___aeabi_dmul+0x6>

10001d74 <__wrap___aeabi_dmul>:
10001d74:	fe10 f430 	dcp_pcmp APSR_nzcv
10001d78:	d4f8      	bmi.n	10001d6c <__wrap___aeabi_dsub+0x20>
10001d7a:	b510      	push	{r4, lr}
10001d7c:	ec41 0410 	dcp_wxup r0, r1
10001d80:	ec43 2411 	dcp_wyup r2, r3
10001d84:	ec51 0404 	dcp_rxms r0, r1, #0x0
10001d88:	ec53 2405 	dcp_ryms r2, r3, #0x0
10001d8c:	fba0 4c02 	umull	r4, ip, r0, r2
10001d90:	f05f 0e00 	movs.w	lr, #0
10001d94:	fbe0 ce03 	umlal	ip, lr, r0, r3
10001d98:	fbe1 ce02 	umlal	ip, lr, r1, r2
10001d9c:	ec4c 4420 	dcp_wxms r4, ip
10001da0:	2400      	movs	r4, #0
10001da2:	fbe1 e403 	umlal	lr, r4, r1, r3
10001da6:	ec44 e430 	dcp_wxmo lr, r4
10001daa:	ee80 0420 	dcp_nrdd
10001dae:	ec51 0450 	dcp_rddm r0, r1
10001db2:	e8bd 4010 	ldmia.w	sp!, {r4, lr}
10001db6:	4770      	bx	lr
10001db8:	b500      	push	{lr}
10001dba:	f7ff ff91 	bl	10001ce0 <generic_save_state>
10001dbe:	e002      	b.n	10001dc6 <__wrap___aeabi_ddiv+0x6>

10001dc0 <__wrap___aeabi_ddiv>:
10001dc0:	fe10 f430 	dcp_pcmp APSR_nzcv
10001dc4:	d4f8      	bmi.n	10001db8 <__wrap___aeabi_dmul+0x44>
10001dc6:	ec41 0410 	dcp_wxup r0, r1
10001dca:	ec43 2411 	dcp_wyup r2, r3
10001dce:	ec51 0421 	dcp_rymr r0, r1
10001dd2:	fba0 1201 	umull	r1, r2, r0, r1
10001dd6:	ea6f 0282 	mvn.w	r2, r2, lsl #2
10001dda:	fb52 0010 	smmlar	r0, r2, r0, r0
10001dde:	fb52 f212 	smmulr	r2, r2, r2
10001de2:	fb52 0010 	smmlar	r0, r2, r0, r0
10001de6:	eba0 7cd0 	sub.w	ip, r0, r0, lsr #31
10001dea:	ec53 2404 	dcp_rxms r2, r3, #0x0
10001dee:	fb5c f113 	smmulr	r1, ip, r3
10001df2:	ec53 2415 	dcp_ryms r2, r3, #0x1
10001df6:	fba1 2002 	umull	r2, r0, r1, r2
10001dfa:	fb01 0003 	mla	r0, r1, r3, r0
10001dfe:	ec53 2444 	dcp_rxms r2, r3, #0x4
10001e02:	eba2 0000 	sub.w	r0, r2, r0
10001e06:	fb50 f21c 	smmulr	r2, r0, ip
10001e0a:	ea4f 1311 	mov.w	r3, r1, lsr #4
10001e0e:	eb12 7001 	adds.w	r0, r2, r1, lsl #28
10001e12:	eb43 71e2 	adc.w	r1, r3, r2, asr #31
10001e16:	ea40 5051 	orr.w	r0, r0, r1, lsr #21
10001e1a:	ea20 5091 	bic.w	r0, r0, r1, lsr #22
10001e1e:	f020 0007 	bic.w	r0, r0, #7
10001e22:	ec53 2475 	dcp_ryms r2, r3, #0x7
10001e26:	fba0 3c02 	umull	r3, ip, r0, r2
10001e2a:	ec53 2475 	dcp_ryms r2, r3, #0x7
10001e2e:	fb00 cc03 	mla	ip, r0, r3, ip
10001e32:	fb01 cc02 	mla	ip, r1, r2, ip
10001e36:	ec53 2404 	dcp_rxms r2, r3, #0x0
10001e3a:	ebac 4c82 	sub.w	ip, ip, r2, lsl #18
10001e3e:	ea40 705c 	orr.w	r0, r0, ip, lsr #29
10001e42:	f1a0 0001 	sub.w	r0, r0, #1
10001e46:	ec41 0440 	dcp_wxdd r0, r1
10001e4a:	ee80 0420 	dcp_nrdd
10001e4e:	ec51 0470 	dcp_rddd r0, r1
10001e52:	4770      	bx	lr
10001e54:	b500      	push	{lr}
10001e56:	f7ff ff43 	bl	10001ce0 <generic_save_state>
10001e5a:	e002      	b.n	10001e62 <__wrap___aeabi_i2d+0x6>

10001e5c <__wrap___aeabi_i2d>:
10001e5c:	fe10 f430 	dcp_pcmp APSR_nzcv
10001e60:	d4f8      	bmi.n	10001e54 <__wrap___aeabi_ddiv+0x94>
10001e62:	ec40 0470 	dcp_wxic r0, r0
10001e66:	ee00 0401 	dcp_add0
10001e6a:	ee10 0421 	dcp_sub1
10001e6e:	ee80 0420 	dcp_nrdd
10001e72:	ec51 0430 	dcp_rdds r0, r1
10001e76:	4770      	bx	lr
10001e78:	b500      	push	{lr}
10001e7a:	f7ff ff31 	bl	10001ce0 <generic_save_state>
10001e7e:	e002      	b.n	10001e86 <__wrap___aeabi_ui2d+0x6>

10001e80 <__wrap___aeabi_ui2d>:
10001e80:	fe10 f430 	dcp_pcmp APSR_nzcv
10001e84:	d4f8      	bmi.n	10001e78 <__wrap___aeabi_i2d+0x1c>
10001e86:	ec40 0460 	dcp_wxuc r0, r0
10001e8a:	ee00 0401 	dcp_add0
10001e8e:	ee10 0421 	dcp_sub1
10001e92:	ee80 0420 	dcp_nrdd
10001e96:	ec51 0430 	dcp_rdds r0, r1
10001e9a:	4770      	bx	lr
10001e9c:	b500      	push	{lr}
10001e9e:	f7ff ff1f 	bl	10001ce0 <generic_save_state>
10001ea2:	e002      	b.n	10001eaa <__wrap___aeabi_d2iz+0x6>

10001ea4 <__wrap___aeabi_d2iz>:
10001ea4:	fe10 f430 	dcp_pcmp APSR_nzcv
10001ea8:	d4f8      	bmi.n	10001e9c <__wrap___aeabi_ui2d+0x1c>
10001eaa:	ec41 0480 	dcp_wxdc r0, r1
10001eae:	ee00 0401 	dcp_add0
10001eb2:	ee10 0401 	dcp_add1
10001eb6:	ee80 0440 	dcp_ntdc
10001eba:	ee10 0413 	dcp_rdic r0
10001ebe:	4770      	bx	lr
10001ec0:	b500      	push	{lr}
10001ec2:	f7ff ff0d 	bl	10001ce0 <generic_save_state>
10001ec6:	e002      	b.n	10001ece <__wrap___aeabi_d2uiz+0x6>

10001ec8 <__wrap___aeabi_d2uiz>:
10001ec8:	fe10 f430 	dcp_pcmp APSR_nzcv
10001ecc:	d4f8      	bmi.n	10001ec0 <__wrap___aeabi_d2iz+0x1c>
10001ece:	ec41 0480 	dcp_wxdc r0, r1
10001ed2:	ee00 0401 	dcp_add0
10001ed6:	ee10 0401 	dcp_add1
10001eda:	ee80 0440 	dcp_ntdc
10001ede:	ee10 0433 	dcp_rduc r0
10001ee2:	4770      	bx	lr
10001ee4:	b500      	push	{lr}
10001ee6:	f7ff fefb 	bl	10001ce0 <generic_save_state>
10001eea:	e002      	b.n	10001ef2 <__wrap___aeabi_dcmpun+0x6>

10001eec <__wrap___aeabi_dcmpun>:
10001eec:	fe10 f430 	dcp_pcmp APSR_nzcv
10001ef0:	d4f8      	bmi.n	10001ee4 <__wrap___aeabi_d2uiz+0x1c>
10001ef2:	ec41 0410 	dcp_wxup r0, r1
10001ef6:	ec43 2411 	dcp_wyup r2, r3
10001efa:	ee00 0401 	dcp_add0
10001efe:	ee10 0430 	dcp_rcmp r0
10001f02:	f3c0 7000 	ubfx	r0, r0, #28, #1
10001f06:	4770      	bx	lr
10001f08:	b500      	push	{lr}
10001f0a:	f7ff fee9 	bl	10001ce0 <generic_save_state>
10001f0e:	e002      	b.n	10001f16 <__wrap___aeabi_dcmplt+0x6>

10001f10 <__wrap___aeabi_dcmplt>:
10001f10:	fe10 f430 	dcp_pcmp APSR_nzcv
10001f14:	d4f8      	bmi.n	10001f08 <__wrap___aeabi_dcmpun+0x1c>
10001f16:	ec43 2410 	dcp_wxup r2, r3
10001f1a:	ec41 0411 	dcp_wyup r0, r1
10001f1e:	ee00 0401 	dcp_add0
10001f22:	ee10 f430 	dcp_rcmp APSR_nzcv
10001f26:	bf8c      	ite	hi
10001f28:	2001      	movhi	r0, #1
10001f2a:	2000      	movls	r0, #0
10001f2c:	4770      	bx	lr
10001f2e:	bf00      	nop
10001f30:	b500      	push	{lr}
10001f32:	f7ff fed5 	bl	10001ce0 <generic_save_state>
10001f36:	e002      	b.n	10001f3e <__wrap___aeabi_dcmpge+0x6>

10001f38 <__wrap___aeabi_dcmpge>:
10001f38:	fe10 f430 	dcp_pcmp APSR_nzcv
10001f3c:	d4f8      	bmi.n	10001f30 <__wrap___aeabi_dcmplt+0x20>
10001f3e:	ec41 0410 	dcp_wxup r0, r1
10001f42:	ec43 2411 	dcp_wyup r2, r3
10001f46:	ee00 0401 	dcp_add0
10001f4a:	ee10 f430 	dcp_rcmp APSR_nzcv
10001f4e:	bf2c      	ite	cs
10001f50:	2001      	movcs	r0, #1
10001f52:	2000      	movcc	r0, #0
10001f54:	4770      	bx	lr
10001f56:	bf00      	nop
10001f58:	b500      	push	{lr}
10001f5a:	f7ff fec1 	bl	10001ce0 <generic_save_state>
10001f5e:	e002      	b.n	10001f66 <__wrap___aeabi_dcmpgt+0x6>

10001f60 <__wrap___aeabi_dcmpgt>:
10001f60:	fe10 f430 	dcp_pcmp APSR_nzcv
10001f64:	d4f8      	bmi.n	10001f58 <__wrap___aeabi_dcmpge+0x20>
10001f66:	ec41 0410 	dcp_wxup r0, r1
10001f6a:	ec43 2411 	dcp_wyup r2, r3
10001f6e:	ee00 0401 	dcp_add0
10001f72:	ee10 f430 	dcp_rcmp APSR_nzcv
10001f76:	bf8c      	ite	hi
10001f78:	2001      	movhi	r0, #1
10001f7a:	2000      	movls	r0, #0
10001f7c:	4770      	bx	lr
10001f7e:	bf00      	nop

10001f80 <__wrap_malloc>:
10001f80:	b538      	push	{r3, r4, r5, lr}
10001f82:	4604      	mov	r4, r0
10001f84:	4809      	ldr	r0, [pc, #36]	@ (10001fac <__wrap_malloc+0x2c>)
10001f86:	f010 fd87 	bl	10012a98 <__mutex_enter_blocking_veneer>
10001f8a:	4620      	mov	r0, r4
10001f8c:	f00e ff6e 	bl	10010e6c <malloc>
10001f90:	4605      	mov	r5, r0
10001f92:	4806      	ldr	r0, [pc, #24]	@ (10001fac <__wrap_malloc+0x2c>)
10001f94:	f010 fd70 	bl	10012a78 <__mutex_exit_veneer>
10001f98:	b12d      	cbz	r5, 10001fa6 <__wrap_malloc+0x26>
10001f9a:	4b05      	ldr	r3, [pc, #20]	@ (10001fb0 <__wrap_malloc+0x30>)
10001f9c:	442c      	add	r4, r5
10001f9e:	429c      	cmp	r4, r3
10001fa0:	d801      	bhi.n	10001fa6 <__wrap_malloc+0x26>
10001fa2:	4628      	mov	r0, r5
10001fa4:	bd38      	pop	{r3, r4, r5, pc}
10001fa6:	4803      	ldr	r0, [pc, #12]	@ (10001fb4 <__wrap_malloc+0x34>)
10001fa8:	f7fe faf4 	bl	10000594 <panic>
10001fac:	20002840 	.word	0x20002840
10001fb0:	20080000 	.word	0x20080000
10001fb4:	10012c98 	.word	0x10012c98

10001fb8 <__wrap_realloc>:
10001fb8:	b538      	push	{r3, r4, r5, lr}
10001fba:	4605      	mov	r5, r0
10001fbc:	460c      	mov	r4, r1
10001fbe:	480a      	ldr	r0, [pc, #40]	@ (10001fe8 <__wrap_realloc+0x30>)
10001fc0:	f010 fd6a 	bl	10012a98 <__mutex_enter_blocking_veneer>
10001fc4:	4628      	mov	r0, r5
10001fc6:	4621      	mov	r1, r4
10001fc8:	f00f fd86 	bl	10011ad8 <realloc>
10001fcc:	4605      	mov	r5, r0
10001fce:	4806      	ldr	r0, [pc, #24]	@ (10001fe8 <__wrap_realloc+0x30>)
10001fd0:	f010 fd52 	bl	10012a78 <__mutex_exit_veneer>
10001fd4:	b12d      	cbz	r5, 10001fe2 <__wrap_realloc+0x2a>
10001fd6:	4b05      	ldr	r3, [pc, #20]	@ (10001fec <__wrap_realloc+0x34>)
10001fd8:	442c      	add	r4, r5
10001fda:	429c      	cmp	r4, r3
10001fdc:	d801      	bhi.n	10001fe2 <__wrap_realloc+0x2a>
10001fde:	4628      	mov	r0, r5
10001fe0:	bd38      	pop	{r3, r4, r5, pc}
10001fe2:	4803      	ldr	r0, [pc, #12]	@ (10001ff0 <__wrap_realloc+0x38>)
10001fe4:	f7fe fad6 	bl	10000594 <panic>
10001fe8:	20002840 	.word	0x20002840
10001fec:	20080000 	.word	0x20080000
10001ff0:	10012c98 	.word	0x10012c98

10001ff4 <__wrap_free>:
10001ff4:	b538      	push	{r3, r4, r5, lr}
10001ff6:	4604      	mov	r4, r0
10001ff8:	4d05      	ldr	r5, [pc, #20]	@ (10002010 <__wrap_free+0x1c>)
10001ffa:	4628      	mov	r0, r5
10001ffc:	f010 fd4c 	bl	10012a98 <__mutex_enter_blocking_veneer>
10002000:	4620      	mov	r0, r4
10002002:	f00e ff3b 	bl	10010e7c <free>
10002006:	4628      	mov	r0, r5
10002008:	e8bd 4038 	ldmia.w	sp!, {r3, r4, r5, lr}
1000200c:	f010 bd34 	b.w	10012a78 <__mutex_exit_veneer>
10002010:	20002840 	.word	0x20002840

10002014 <_out_buffer>:
10002014:	429a      	cmp	r2, r3
10002016:	bf38      	it	cc
10002018:	5488      	strbcc	r0, [r1, r2]
1000201a:	4770      	bx	lr

1000201c <_out_null>:
1000201c:	4770      	bx	lr
1000201e:	bf00      	nop

10002020 <_out_rev>:
10002020:	e92d 4ff0 	stmdb	sp!, {r4, r5, r6, r7, r8, r9, sl, fp, lr}
10002024:	b083      	sub	sp, #12
10002026:	4699      	mov	r9, r3
10002028:	e9dd ab0d 	ldrd	sl, fp, [sp, #52]	@ 0x34
1000202c:	9b0f      	ldr	r3, [sp, #60]	@ 0x3c
1000202e:	4688      	mov	r8, r1
10002030:	4611      	mov	r1, r2
10002032:	079a      	lsls	r2, r3, #30
10002034:	4607      	mov	r7, r0
10002036:	d116      	bne.n	10002066 <_out_rev+0x46>
10002038:	45da      	cmp	sl, fp
1000203a:	d23a      	bcs.n	100020b2 <_out_rev+0x92>
1000203c:	460c      	mov	r4, r1
1000203e:	460d      	mov	r5, r1
10002040:	ebab 060a 	sub.w	r6, fp, sl
10002044:	440e      	add	r6, r1
10002046:	4622      	mov	r2, r4
10002048:	464b      	mov	r3, r9
1000204a:	4641      	mov	r1, r8
1000204c:	2020      	movs	r0, #32
1000204e:	3401      	adds	r4, #1
10002050:	47b8      	blx	r7
10002052:	42b4      	cmp	r4, r6
10002054:	d1f7      	bne.n	10002046 <_out_rev+0x26>
10002056:	4629      	mov	r1, r5
10002058:	f1ba 0f00 	cmp.w	sl, #0
1000205c:	d108      	bne.n	10002070 <_out_rev+0x50>
1000205e:	4620      	mov	r0, r4
10002060:	b003      	add	sp, #12
10002062:	e8bd 8ff0 	ldmia.w	sp!, {r4, r5, r6, r7, r8, r9, sl, fp, pc}
10002066:	460c      	mov	r4, r1
10002068:	f1ba 0f00 	cmp.w	sl, #0
1000206c:	d010      	beq.n	10002090 <_out_rev+0x70>
1000206e:	460e      	mov	r6, r1
10002070:	4655      	mov	r5, sl
10002072:	9b0c      	ldr	r3, [sp, #48]	@ 0x30
10002074:	442e      	add	r6, r5
10002076:	449a      	add	sl, r3
10002078:	9101      	str	r1, [sp, #4]
1000207a:	1b72      	subs	r2, r6, r5
1000207c:	464b      	mov	r3, r9
1000207e:	3d01      	subs	r5, #1
10002080:	4641      	mov	r1, r8
10002082:	f81a 0d01 	ldrb.w	r0, [sl, #-1]!
10002086:	4634      	mov	r4, r6
10002088:	47b8      	blx	r7
1000208a:	2d00      	cmp	r5, #0
1000208c:	d1f5      	bne.n	1000207a <_out_rev+0x5a>
1000208e:	9901      	ldr	r1, [sp, #4]
10002090:	9b0f      	ldr	r3, [sp, #60]	@ 0x3c
10002092:	079b      	lsls	r3, r3, #30
10002094:	d5e3      	bpl.n	1000205e <_out_rev+0x3e>
10002096:	1a65      	subs	r5, r4, r1
10002098:	45ab      	cmp	fp, r5
1000209a:	d9e0      	bls.n	1000205e <_out_rev+0x3e>
1000209c:	4622      	mov	r2, r4
1000209e:	464b      	mov	r3, r9
100020a0:	4641      	mov	r1, r8
100020a2:	2020      	movs	r0, #32
100020a4:	3501      	adds	r5, #1
100020a6:	47b8      	blx	r7
100020a8:	455d      	cmp	r5, fp
100020aa:	f104 0401 	add.w	r4, r4, #1
100020ae:	d3f5      	bcc.n	1000209c <_out_rev+0x7c>
100020b0:	e7d5      	b.n	1000205e <_out_rev+0x3e>
100020b2:	f1ba 0f00 	cmp.w	sl, #0
100020b6:	d1da      	bne.n	1000206e <_out_rev+0x4e>
100020b8:	460c      	mov	r4, r1
100020ba:	e7d0      	b.n	1000205e <_out_rev+0x3e>

100020bc <_ntoa_format>:
100020bc:	e92d 4ff0 	stmdb	sp!, {r4, r5, r6, r7, r8, r9, sl, fp, lr}
100020c0:	9f0f      	ldr	r7, [sp, #60]	@ 0x3c
100020c2:	f8dd e024 	ldr.w	lr, [sp, #36]	@ 0x24
100020c6:	f017 0f02 	tst.w	r7, #2
100020ca:	9c0a      	ldr	r4, [sp, #40]	@ 0x28
100020cc:	f89d 902c 	ldrb.w	r9, [sp, #44]	@ 0x2c
100020d0:	9d0e      	ldr	r5, [sp, #56]	@ 0x38
100020d2:	e9dd 860c 	ldrd	r8, r6, [sp, #48]	@ 0x30
100020d6:	d129      	bne.n	1000212c <_ntoa_format+0x70>
100020d8:	2d00      	cmp	r5, #0
100020da:	d16f      	bne.n	100021bc <_ntoa_format+0x100>
100020dc:	42b4      	cmp	r4, r6
100020de:	d225      	bcs.n	1000212c <_ntoa_format+0x70>
100020e0:	2c20      	cmp	r4, #32
100020e2:	f007 0b01 	and.w	fp, r7, #1
100020e6:	f000 8112 	beq.w	1000230e <_ntoa_format+0x252>
100020ea:	f104 3cff 	add.w	ip, r4, #4294967295	@ 0xffffffff
100020ee:	f04f 0a30 	mov.w	sl, #48	@ 0x30
100020f2:	44f4      	add	ip, lr
100020f4:	e001      	b.n	100020fa <_ntoa_format+0x3e>
100020f6:	2c20      	cmp	r4, #32
100020f8:	d07a      	beq.n	100021f0 <_ntoa_format+0x134>
100020fa:	3401      	adds	r4, #1
100020fc:	42a6      	cmp	r6, r4
100020fe:	f80c af01 	strb.w	sl, [ip, #1]!
10002102:	d8f8      	bhi.n	100020f6 <_ntoa_format+0x3a>
10002104:	f1bb 0f00 	cmp.w	fp, #0
10002108:	d010      	beq.n	1000212c <_ntoa_format+0x70>
1000210a:	42ac      	cmp	r4, r5
1000210c:	d20e      	bcs.n	1000212c <_ntoa_format+0x70>
1000210e:	2c20      	cmp	r4, #32
10002110:	d074      	beq.n	100021fc <_ntoa_format+0x140>
10002112:	f104 3cff 	add.w	ip, r4, #4294967295	@ 0xffffffff
10002116:	f04f 0a30 	mov.w	sl, #48	@ 0x30
1000211a:	44f4      	add	ip, lr
1000211c:	e001      	b.n	10002122 <_ntoa_format+0x66>
1000211e:	2c20      	cmp	r4, #32
10002120:	d029      	beq.n	10002176 <_ntoa_format+0xba>
10002122:	3401      	adds	r4, #1
10002124:	42ac      	cmp	r4, r5
10002126:	f80c af01 	strb.w	sl, [ip, #1]!
1000212a:	d1f8      	bne.n	1000211e <_ntoa_format+0x62>
1000212c:	f017 0f10 	tst.w	r7, #16
10002130:	d03a      	beq.n	100021a8 <_ntoa_format+0xec>
10002132:	f417 6f80 	tst.w	r7, #1024	@ 0x400
10002136:	d128      	bne.n	1000218a <_ntoa_format+0xce>
10002138:	bb1c      	cbnz	r4, 10002182 <_ntoa_format+0xc6>
1000213a:	f1b8 0f10 	cmp.w	r8, #16
1000213e:	f000 80ca 	beq.w	100022d6 <_ntoa_format+0x21a>
10002142:	f1b8 0f02 	cmp.w	r8, #2
10002146:	f000 80d4 	beq.w	100022f2 <_ntoa_format+0x236>
1000214a:	2430      	movs	r4, #48	@ 0x30
1000214c:	f88e 4000 	strb.w	r4, [lr]
10002150:	2401      	movs	r4, #1
10002152:	f1b9 0f00 	cmp.w	r9, #0
10002156:	d167      	bne.n	10002228 <_ntoa_format+0x16c>
10002158:	077e      	lsls	r6, r7, #29
1000215a:	f140 80aa 	bpl.w	100022b2 <_ntoa_format+0x1f6>
1000215e:	262b      	movs	r6, #43	@ 0x2b
10002160:	f80e 6004 	strb.w	r6, [lr, r4]
10002164:	3401      	adds	r4, #1
10002166:	e9cd 570b 	strd	r5, r7, [sp, #44]	@ 0x2c
1000216a:	e9cd e409 	strd	lr, r4, [sp, #36]	@ 0x24
1000216e:	e8bd 4ff0 	ldmia.w	sp!, {r4, r5, r6, r7, r8, r9, sl, fp, lr}
10002172:	f7ff bf55 	b.w	10002020 <_out_rev>
10002176:	06fc      	lsls	r4, r7, #27
10002178:	f140 8089 	bpl.w	1000228e <_ntoa_format+0x1d2>
1000217c:	057c      	lsls	r4, r7, #21
1000217e:	d435      	bmi.n	100021ec <_ntoa_format+0x130>
10002180:	2420      	movs	r4, #32
10002182:	42a6      	cmp	r6, r4
10002184:	d06a      	beq.n	1000225c <_ntoa_format+0x1a0>
10002186:	42ac      	cmp	r4, r5
10002188:	d068      	beq.n	1000225c <_ntoa_format+0x1a0>
1000218a:	f1b8 0f10 	cmp.w	r8, #16
1000218e:	f000 8087 	beq.w	100022a0 <_ntoa_format+0x1e4>
10002192:	f1b8 0f02 	cmp.w	r8, #2
10002196:	d05a      	beq.n	1000224e <_ntoa_format+0x192>
10002198:	2c20      	cmp	r4, #32
1000219a:	d0e4      	beq.n	10002166 <_ntoa_format+0xaa>
1000219c:	4626      	mov	r6, r4
1000219e:	3401      	adds	r4, #1
100021a0:	f04f 0c30 	mov.w	ip, #48	@ 0x30
100021a4:	f80e c006 	strb.w	ip, [lr, r6]
100021a8:	2c20      	cmp	r4, #32
100021aa:	d1d2      	bne.n	10002152 <_ntoa_format+0x96>
100021ac:	e9cd 570b 	strd	r5, r7, [sp, #44]	@ 0x2c
100021b0:	e9cd e409 	strd	lr, r4, [sp, #36]	@ 0x24
100021b4:	e8bd 4ff0 	ldmia.w	sp!, {r4, r5, r6, r7, r8, r9, sl, fp, lr}
100021b8:	f7ff bf32 	b.w	10002020 <_out_rev>
100021bc:	f017 0b01 	ands.w	fp, r7, #1
100021c0:	d03e      	beq.n	10002240 <_ntoa_format+0x184>
100021c2:	f1b9 0f00 	cmp.w	r9, #0
100021c6:	d147      	bne.n	10002258 <_ntoa_format+0x19c>
100021c8:	f017 0f0c 	tst.w	r7, #12
100021cc:	d144      	bne.n	10002258 <_ntoa_format+0x19c>
100021ce:	42b4      	cmp	r4, r6
100021d0:	d29b      	bcs.n	1000210a <_ntoa_format+0x4e>
100021d2:	2c20      	cmp	r4, #32
100021d4:	d189      	bne.n	100020ea <_ntoa_format+0x2e>
100021d6:	2d20      	cmp	r5, #32
100021d8:	d810      	bhi.n	100021fc <_ntoa_format+0x140>
100021da:	06fc      	lsls	r4, r7, #27
100021dc:	d557      	bpl.n	1000228e <_ntoa_format+0x1d2>
100021de:	057c      	lsls	r4, r7, #21
100021e0:	d455      	bmi.n	1000228e <_ntoa_format+0x1d2>
100021e2:	2e20      	cmp	r6, #32
100021e4:	f000 80b9 	beq.w	1000235a <_ntoa_format+0x29e>
100021e8:	2d20      	cmp	r5, #32
100021ea:	d010      	beq.n	1000220e <_ntoa_format+0x152>
100021ec:	2420      	movs	r4, #32
100021ee:	e7cc      	b.n	1000218a <_ntoa_format+0xce>
100021f0:	f1bb 0f00 	cmp.w	fp, #0
100021f4:	f000 80a5 	beq.w	10002342 <_ntoa_format+0x286>
100021f8:	2d20      	cmp	r5, #32
100021fa:	d9bc      	bls.n	10002176 <_ntoa_format+0xba>
100021fc:	06fc      	lsls	r4, r7, #27
100021fe:	d546      	bpl.n	1000228e <_ntoa_format+0x1d2>
10002200:	057c      	lsls	r4, r7, #21
10002202:	d444      	bmi.n	1000228e <_ntoa_format+0x1d2>
10002204:	2e20      	cmp	r6, #32
10002206:	f000 80a8 	beq.w	1000235a <_ntoa_format+0x29e>
1000220a:	2d20      	cmp	r5, #32
1000220c:	d13f      	bne.n	1000228e <_ntoa_format+0x1d2>
1000220e:	462c      	mov	r4, r5
10002210:	261f      	movs	r6, #31
10002212:	f1b8 0f10 	cmp.w	r8, #16
10002216:	d07f      	beq.n	10002318 <_ntoa_format+0x25c>
10002218:	f1b8 0f02 	cmp.w	r8, #2
1000221c:	d1c0      	bne.n	100021a0 <_ntoa_format+0xe4>
1000221e:	f04f 0c62 	mov.w	ip, #98	@ 0x62
10002222:	f80e c006 	strb.w	ip, [lr, r6]
10002226:	e7b7      	b.n	10002198 <_ntoa_format+0xdc>
10002228:	262d      	movs	r6, #45	@ 0x2d
1000222a:	f80e 6004 	strb.w	r6, [lr, r4]
1000222e:	3401      	adds	r4, #1
10002230:	e9cd 570b 	strd	r5, r7, [sp, #44]	@ 0x2c
10002234:	e9cd e409 	strd	lr, r4, [sp, #36]	@ 0x24
10002238:	e8bd 4ff0 	ldmia.w	sp!, {r4, r5, r6, r7, r8, r9, sl, fp, lr}
1000223c:	f7ff bef0 	b.w	10002020 <_out_rev>
10002240:	42b4      	cmp	r4, r6
10002242:	f4bf af73 	bcs.w	1000212c <_ntoa_format+0x70>
10002246:	2c20      	cmp	r4, #32
10002248:	f47f af4f 	bne.w	100020ea <_ntoa_format+0x2e>
1000224c:	e7d6      	b.n	100021fc <_ntoa_format+0x140>
1000224e:	2c20      	cmp	r4, #32
10002250:	d089      	beq.n	10002166 <_ntoa_format+0xaa>
10002252:	4626      	mov	r6, r4
10002254:	3401      	adds	r4, #1
10002256:	e7e2      	b.n	1000221e <_ntoa_format+0x162>
10002258:	3d01      	subs	r5, #1
1000225a:	e7b8      	b.n	100021ce <_ntoa_format+0x112>
1000225c:	1e66      	subs	r6, r4, #1
1000225e:	d1d8      	bne.n	10002212 <_ntoa_format+0x156>
10002260:	f1b8 0f10 	cmp.w	r8, #16
10002264:	d064      	beq.n	10002330 <_ntoa_format+0x274>
10002266:	f1b8 0f02 	cmp.w	r8, #2
1000226a:	f47f af6e 	bne.w	1000214a <_ntoa_format+0x8e>
1000226e:	2662      	movs	r6, #98	@ 0x62
10002270:	f88e 6000 	strb.w	r6, [lr]
10002274:	2630      	movs	r6, #48	@ 0x30
10002276:	4644      	mov	r4, r8
10002278:	f88e 6001 	strb.w	r6, [lr, #1]
1000227c:	f1b9 0f00 	cmp.w	r9, #0
10002280:	f43f af6a 	beq.w	10002158 <_ntoa_format+0x9c>
10002284:	e7d0      	b.n	10002228 <_ntoa_format+0x16c>
10002286:	f1b8 0f10 	cmp.w	r8, #16
1000228a:	f47f af6c 	bne.w	10002166 <_ntoa_format+0xaa>
1000228e:	2420      	movs	r4, #32
10002290:	e9cd 570b 	strd	r5, r7, [sp, #44]	@ 0x2c
10002294:	e9cd e409 	strd	lr, r4, [sp, #36]	@ 0x24
10002298:	e8bd 4ff0 	ldmia.w	sp!, {r4, r5, r6, r7, r8, r9, sl, fp, lr}
1000229c:	f7ff bec0 	b.w	10002020 <_out_rev>
100022a0:	06be      	lsls	r6, r7, #26
100022a2:	d40e      	bmi.n	100022c2 <_ntoa_format+0x206>
100022a4:	2c20      	cmp	r4, #32
100022a6:	d0f2      	beq.n	1000228e <_ntoa_format+0x1d2>
100022a8:	2678      	movs	r6, #120	@ 0x78
100022aa:	f80e 6004 	strb.w	r6, [lr, r4]
100022ae:	3401      	adds	r4, #1
100022b0:	e772      	b.n	10002198 <_ntoa_format+0xdc>
100022b2:	073e      	lsls	r6, r7, #28
100022b4:	f57f af57 	bpl.w	10002166 <_ntoa_format+0xaa>
100022b8:	2620      	movs	r6, #32
100022ba:	f80e 6004 	strb.w	r6, [lr, r4]
100022be:	3401      	adds	r4, #1
100022c0:	e751      	b.n	10002166 <_ntoa_format+0xaa>
100022c2:	2c20      	cmp	r4, #32
100022c4:	d0e3      	beq.n	1000228e <_ntoa_format+0x1d2>
100022c6:	f04f 0c58 	mov.w	ip, #88	@ 0x58
100022ca:	eb0e 0604 	add.w	r6, lr, r4
100022ce:	f886 c000 	strb.w	ip, [r6]
100022d2:	3401      	adds	r4, #1
100022d4:	e760      	b.n	10002198 <_ntoa_format+0xdc>
100022d6:	06be      	lsls	r6, r7, #26
100022d8:	d517      	bpl.n	1000230a <_ntoa_format+0x24e>
100022da:	2458      	movs	r4, #88	@ 0x58
100022dc:	f88e 4000 	strb.w	r4, [lr]
100022e0:	2430      	movs	r4, #48	@ 0x30
100022e2:	f88e 4001 	strb.w	r4, [lr, #1]
100022e6:	2402      	movs	r4, #2
100022e8:	f1b9 0f00 	cmp.w	r9, #0
100022ec:	f43f af34 	beq.w	10002158 <_ntoa_format+0x9c>
100022f0:	e79a      	b.n	10002228 <_ntoa_format+0x16c>
100022f2:	2462      	movs	r4, #98	@ 0x62
100022f4:	f88e 4000 	strb.w	r4, [lr]
100022f8:	2430      	movs	r4, #48	@ 0x30
100022fa:	f88e 4001 	strb.w	r4, [lr, #1]
100022fe:	2402      	movs	r4, #2
10002300:	f1b9 0f00 	cmp.w	r9, #0
10002304:	f43f af28 	beq.w	10002158 <_ntoa_format+0x9c>
10002308:	e78e      	b.n	10002228 <_ntoa_format+0x16c>
1000230a:	2478      	movs	r4, #120	@ 0x78
1000230c:	e7f2      	b.n	100022f4 <_ntoa_format+0x238>
1000230e:	f1bb 0f00 	cmp.w	fp, #0
10002312:	f47f af62 	bne.w	100021da <_ntoa_format+0x11e>
10002316:	e771      	b.n	100021fc <_ntoa_format+0x140>
10002318:	f017 0f20 	tst.w	r7, #32
1000231c:	bf0c      	ite	eq
1000231e:	f04f 0c78 	moveq.w	ip, #120	@ 0x78
10002322:	f04f 0c58 	movne.w	ip, #88	@ 0x58
10002326:	1ea6      	subs	r6, r4, #2
10002328:	f80e c006 	strb.w	ip, [lr, r6]
1000232c:	3c01      	subs	r4, #1
1000232e:	e735      	b.n	1000219c <_ntoa_format+0xe0>
10002330:	06bc      	lsls	r4, r7, #26
10002332:	d5ea      	bpl.n	1000230a <_ntoa_format+0x24e>
10002334:	2458      	movs	r4, #88	@ 0x58
10002336:	f88e 4000 	strb.w	r4, [lr]
1000233a:	2430      	movs	r4, #48	@ 0x30
1000233c:	f88e 4001 	strb.w	r4, [lr, #1]
10002340:	e7dd      	b.n	100022fe <_ntoa_format+0x242>
10002342:	f017 0f10 	tst.w	r7, #16
10002346:	f43f af0e 	beq.w	10002166 <_ntoa_format+0xaa>
1000234a:	f417 6f80 	tst.w	r7, #1024	@ 0x400
1000234e:	d19a      	bne.n	10002286 <_ntoa_format+0x1ca>
10002350:	2e20      	cmp	r6, #32
10002352:	f47f af18 	bne.w	10002186 <_ntoa_format+0xca>
10002356:	261f      	movs	r6, #31
10002358:	e75b      	b.n	10002212 <_ntoa_format+0x156>
1000235a:	4634      	mov	r4, r6
1000235c:	261f      	movs	r6, #31
1000235e:	e758      	b.n	10002212 <_ntoa_format+0x156>

10002360 <_out_char>:
10002360:	b900      	cbnz	r0, 10002364 <_out_char+0x4>
10002362:	4770      	bx	lr
10002364:	f001 bb2c 	b.w	100039c0 <__wrap_putchar>

10002368 <_out_fct>:
10002368:	b110      	cbz	r0, 10002370 <_out_fct+0x8>
1000236a:	e9d1 3100 	ldrd	r3, r1, [r1]
1000236e:	4718      	bx	r3
10002370:	4770      	bx	lr
10002372:	bf00      	nop
10002374:	0000      	movs	r0, r0
	...

10002378 <_etoa>:
10002378:	e92d 4ff0 	stmdb	sp!, {r4, r5, r6, r7, r8, r9, sl, fp, lr}
1000237c:	b09f      	sub	sp, #124	@ 0x7c
1000237e:	ed9d 7b28 	vldr	d7, [sp, #160]	@ 0xa0
10002382:	e9dd a52a 	ldrd	sl, r5, [sp, #168]	@ 0xa8
10002386:	ec58 7b17 	vmov	r7, r8, d7
1000238a:	4683      	mov	fp, r0
1000238c:	461e      	mov	r6, r3
1000238e:	910d      	str	r1, [sp, #52]	@ 0x34
10002390:	9210      	str	r2, [sp, #64]	@ 0x40
10002392:	4643      	mov	r3, r8
10002394:	463a      	mov	r2, r7
10002396:	4638      	mov	r0, r7
10002398:	4641      	mov	r1, r8
1000239a:	ed8d 7b08 	vstr	d7, [sp, #32]
1000239e:	9c2c      	ldr	r4, [sp, #176]	@ 0xb0
100023a0:	f7ff fda4 	bl	10001eec <__wrap___aeabi_dcmpun>
100023a4:	2800      	cmp	r0, #0
100023a6:	f040 80d8 	bne.w	1000255a <_etoa+0x1e2>
100023aa:	4638      	mov	r0, r7
100023ac:	4641      	mov	r1, r8
100023ae:	f04f 32ff 	mov.w	r2, #4294967295	@ 0xffffffff
100023b2:	4b75      	ldr	r3, [pc, #468]	@ (10002588 <_etoa+0x210>)
100023b4:	f7ff fdd4 	bl	10001f60 <__wrap___aeabi_dcmpgt>
100023b8:	2800      	cmp	r0, #0
100023ba:	f040 80ce 	bne.w	1000255a <_etoa+0x1e2>
100023be:	4638      	mov	r0, r7
100023c0:	4641      	mov	r1, r8
100023c2:	f04f 32ff 	mov.w	r2, #4294967295	@ 0xffffffff
100023c6:	f46f 1380 	mvn.w	r3, #1048576	@ 0x100000
100023ca:	f7ff fda1 	bl	10001f10 <__wrap___aeabi_dcmplt>
100023ce:	2800      	cmp	r0, #0
100023d0:	f040 80c3 	bne.w	1000255a <_etoa+0x1e2>
100023d4:	e9dd 7808 	ldrd	r7, r8, [sp, #32]
100023d8:	2200      	movs	r2, #0
100023da:	4638      	mov	r0, r7
100023dc:	4641      	mov	r1, r8
100023de:	2300      	movs	r3, #0
100023e0:	f7ff fd96 	bl	10001f10 <__wrap___aeabi_dcmplt>
100023e4:	2800      	cmp	r0, #0
100023e6:	f040 81c0 	bne.w	1000276a <_etoa+0x3f2>
100023ea:	e9cd 780a 	strd	r7, r8, [sp, #40]	@ 0x28
100023ee:	e9dd 230a 	ldrd	r2, r3, [sp, #40]	@ 0x28
100023f2:	4690      	mov	r8, r2
100023f4:	461f      	mov	r7, r3
100023f6:	f414 6380 	ands.w	r3, r4, #1024	@ 0x400
100023fa:	bf08      	it	eq
100023fc:	f04f 0a06 	moveq.w	sl, #6
10002400:	9313      	str	r3, [sp, #76]	@ 0x4c
10002402:	f404 6200 	and.w	r2, r4, #2048	@ 0x800
10002406:	ea58 0307 	orrs.w	r3, r8, r7
1000240a:	9211      	str	r2, [sp, #68]	@ 0x44
1000240c:	f040 80c0 	bne.w	10002590 <_etoa+0x218>
10002410:	2a00      	cmp	r2, #0
10002412:	f000 81a2 	beq.w	1000275a <_etoa+0x3e2>
10002416:	ed9f 7b5a 	vldr	d7, [pc, #360]	@ 10002580 <_etoa+0x208>
1000241a:	2700      	movs	r7, #0
1000241c:	ed8d 7b0e 	vstr	d7, [sp, #56]	@ 0x38
10002420:	f04f 0900 	mov.w	r9, #0
10002424:	45ba      	cmp	sl, r7
10002426:	bfcc      	ite	gt
10002428:	ebaa 0a07 	subgt.w	sl, sl, r7
1000242c:	f04f 0a00 	movle.w	sl, #0
10002430:	464f      	mov	r7, r9
10002432:	bfc8      	it	gt
10002434:	f10a 3aff 	addgt.w	sl, sl, #4294967295	@ 0xffffffff
10002438:	f444 6480 	orr.w	r4, r4, #1024	@ 0x400
1000243c:	454d      	cmp	r5, r9
1000243e:	bf94      	ite	ls
10002440:	f04f 0800 	movls.w	r8, #0
10002444:	eba5 0809 	subhi.w	r8, r5, r9
10002448:	f014 0302 	ands.w	r3, r4, #2
1000244c:	9311      	str	r3, [sp, #68]	@ 0x44
1000244e:	d004      	beq.n	1000245a <_etoa+0xe2>
10002450:	f1b9 0f00 	cmp.w	r9, #0
10002454:	bf18      	it	ne
10002456:	f04f 0800 	movne.w	r8, #0
1000245a:	b13f      	cbz	r7, 1000246c <_etoa+0xf4>
1000245c:	e9dd 010a 	ldrd	r0, r1, [sp, #40]	@ 0x28
10002460:	e9dd 230e 	ldrd	r2, r3, [sp, #56]	@ 0x38
10002464:	f7ff fcac 	bl	10001dc0 <__wrap___aeabi_ddiv>
10002468:	e9cd 010a 	strd	r0, r1, [sp, #40]	@ 0x28
1000246c:	e9dd 0108 	ldrd	r0, r1, [sp, #32]
10002470:	2200      	movs	r2, #0
10002472:	2300      	movs	r3, #0
10002474:	f7ff fd4c 	bl	10001f10 <__wrap___aeabi_dcmplt>
10002478:	b130      	cbz	r0, 10002488 <_etoa+0x110>
1000247a:	e9dd 010a 	ldrd	r0, r1, [sp, #40]	@ 0x28
1000247e:	4602      	mov	r2, r0
10002480:	f101 4300 	add.w	r3, r1, #2147483648	@ 0x80000000
10002484:	e9cd 230a 	strd	r2, r3, [sp, #40]	@ 0x28
10002488:	ed9d 7b0a 	vldr	d7, [sp, #40]	@ 0x28
1000248c:	e9cd a802 	strd	sl, r8, [sp, #8]
10002490:	f8dd a034 	ldr.w	sl, [sp, #52]	@ 0x34
10002494:	f424 6300 	bic.w	r3, r4, #2048	@ 0x800
10002498:	9304      	str	r3, [sp, #16]
1000249a:	ed8d 7b00 	vstr	d7, [sp]
1000249e:	4633      	mov	r3, r6
100024a0:	4651      	mov	r1, sl
100024a2:	4658      	mov	r0, fp
100024a4:	9a10      	ldr	r2, [sp, #64]	@ 0x40
100024a6:	f000 f997 	bl	100027d8 <_ftoa>
100024aa:	4680      	mov	r8, r0
100024ac:	f1b9 0f00 	cmp.w	r9, #0
100024b0:	d04f      	beq.n	10002552 <_etoa+0x1da>
100024b2:	f014 0f20 	tst.w	r4, #32
100024b6:	4602      	mov	r2, r0
100024b8:	f100 0401 	add.w	r4, r0, #1
100024bc:	4633      	mov	r3, r6
100024be:	bf0c      	ite	eq
100024c0:	2065      	moveq	r0, #101	@ 0x65
100024c2:	2045      	movne	r0, #69	@ 0x45
100024c4:	4651      	mov	r1, sl
100024c6:	47d8      	blx	fp
100024c8:	f109 30ff 	add.w	r0, r9, #4294967295	@ 0xffffffff
100024cc:	ea87 7ce7 	eor.w	ip, r7, r7, asr #31
100024d0:	f10d 0958 	add.w	r9, sp, #88	@ 0x58
100024d4:	2200      	movs	r2, #0
100024d6:	464b      	mov	r3, r9
100024d8:	f8df 80b0 	ldr.w	r8, [pc, #176]	@ 1000258c <_etoa+0x214>
100024dc:	ebac 7ce7 	sub.w	ip, ip, r7, asr #31
100024e0:	ea4f 7ed7 	mov.w	lr, r7, lsr #31
100024e4:	e001      	b.n	100024ea <_etoa+0x172>
100024e6:	2a20      	cmp	r2, #32
100024e8:	d010      	beq.n	1000250c <_etoa+0x194>
100024ea:	46e2      	mov	sl, ip
100024ec:	fba8 710c 	umull	r7, r1, r8, ip
100024f0:	08c9      	lsrs	r1, r1, #3
100024f2:	eb01 0781 	add.w	r7, r1, r1, lsl #2
100024f6:	ebac 0747 	sub.w	r7, ip, r7, lsl #1
100024fa:	3730      	adds	r7, #48	@ 0x30
100024fc:	f1ba 0f09 	cmp.w	sl, #9
10002500:	468c      	mov	ip, r1
10002502:	f102 0201 	add.w	r2, r2, #1
10002506:	f803 7b01 	strb.w	r7, [r3], #1
1000250a:	d8ec      	bhi.n	100024e6 <_etoa+0x16e>
1000250c:	2305      	movs	r3, #5
1000250e:	9005      	str	r0, [sp, #20]
10002510:	9306      	str	r3, [sp, #24]
10002512:	2000      	movs	r0, #0
10002514:	230a      	movs	r3, #10
10002516:	9f0d      	ldr	r7, [sp, #52]	@ 0x34
10002518:	e9cd 3003 	strd	r3, r0, [sp, #12]
1000251c:	e9cd 2e01 	strd	r2, lr, [sp, #4]
10002520:	4633      	mov	r3, r6
10002522:	4622      	mov	r2, r4
10002524:	4639      	mov	r1, r7
10002526:	4658      	mov	r0, fp
10002528:	f8cd 9000 	str.w	r9, [sp]
1000252c:	f7ff fdc6 	bl	100020bc <_ntoa_format>
10002530:	9b11      	ldr	r3, [sp, #68]	@ 0x44
10002532:	4680      	mov	r8, r0
10002534:	b16b      	cbz	r3, 10002552 <_etoa+0x1da>
10002536:	9b10      	ldr	r3, [sp, #64]	@ 0x40
10002538:	1ac4      	subs	r4, r0, r3
1000253a:	42a5      	cmp	r5, r4
1000253c:	d909      	bls.n	10002552 <_etoa+0x1da>
1000253e:	4642      	mov	r2, r8
10002540:	4633      	mov	r3, r6
10002542:	4639      	mov	r1, r7
10002544:	2020      	movs	r0, #32
10002546:	3401      	adds	r4, #1
10002548:	47d8      	blx	fp
1000254a:	42a5      	cmp	r5, r4
1000254c:	f108 0801 	add.w	r8, r8, #1
10002550:	d8f5      	bhi.n	1000253e <_etoa+0x1c6>
10002552:	4640      	mov	r0, r8
10002554:	b01f      	add	sp, #124	@ 0x7c
10002556:	e8bd 8ff0 	ldmia.w	sp!, {r4, r5, r6, r7, r8, r9, sl, fp, pc}
1000255a:	ed9d 7b08 	vldr	d7, [sp, #32]
1000255e:	4633      	mov	r3, r6
10002560:	4658      	mov	r0, fp
10002562:	9a10      	ldr	r2, [sp, #64]	@ 0x40
10002564:	990d      	ldr	r1, [sp, #52]	@ 0x34
10002566:	ed8d 7b28 	vstr	d7, [sp, #160]	@ 0xa0
1000256a:	e9cd 542b 	strd	r5, r4, [sp, #172]	@ 0xac
1000256e:	f8cd a0a8 	str.w	sl, [sp, #168]	@ 0xa8
10002572:	b01f      	add	sp, #124	@ 0x7c
10002574:	e8bd 4ff0 	ldmia.w	sp!, {r4, r5, r6, r7, r8, r9, sl, fp, lr}
10002578:	f000 b92e 	b.w	100027d8 <_ftoa>
1000257c:	f3af 8000 	nop.w
	...
10002588:	7fefffff 	.word	0x7fefffff
1000258c:	cccccccd 	.word	0xcccccccd
10002590:	f3c7 500a 	ubfx	r0, r7, #20, #11
10002594:	f2a0 30ff 	subw	r0, r0, #1023	@ 0x3ff
10002598:	f7ff fc60 	bl	10001e5c <__wrap___aeabi_i2d>
1000259c:	a38a      	add	r3, pc, #552	@ (adr r3, 100027c8 <_etoa+0x450>)
1000259e:	e9d3 2300 	ldrd	r2, r3, [r3]
100025a2:	f7ff fbe7 	bl	10001d74 <__wrap___aeabi_dmul>
100025a6:	a38a      	add	r3, pc, #552	@ (adr r3, 100027d0 <_etoa+0x458>)
100025a8:	e9d3 2300 	ldrd	r2, r3, [r3]
100025ac:	f7ff fbba 	bl	10001d24 <__wrap___aeabi_dadd>
100025b0:	f3c7 0713 	ubfx	r7, r7, #0, #20
100025b4:	e9cd 010e 	strd	r0, r1, [sp, #56]	@ 0x38
100025b8:	f047 517f 	orr.w	r1, r7, #1069547520	@ 0x3fc00000
100025bc:	4640      	mov	r0, r8
100025be:	2200      	movs	r2, #0
100025c0:	4b7b      	ldr	r3, [pc, #492]	@ (100027b0 <_etoa+0x438>)
100025c2:	f441 1140 	orr.w	r1, r1, #3145728	@ 0x300000
100025c6:	f7ff fbc1 	bl	10001d4c <__wrap___aeabi_dsub>
100025ca:	a36b      	add	r3, pc, #428	@ (adr r3, 10002778 <_etoa+0x400>)
100025cc:	e9d3 2300 	ldrd	r2, r3, [r3]
100025d0:	f7ff fbd0 	bl	10001d74 <__wrap___aeabi_dmul>
100025d4:	4602      	mov	r2, r0
100025d6:	460b      	mov	r3, r1
100025d8:	e9dd 010e 	ldrd	r0, r1, [sp, #56]	@ 0x38
100025dc:	f7ff fba2 	bl	10001d24 <__wrap___aeabi_dadd>
100025e0:	f7ff fc60 	bl	10001ea4 <__wrap___aeabi_d2iz>
100025e4:	4607      	mov	r7, r0
100025e6:	f7ff fc39 	bl	10001e5c <__wrap___aeabi_i2d>
100025ea:	a365      	add	r3, pc, #404	@ (adr r3, 10002780 <_etoa+0x408>)
100025ec:	e9d3 2300 	ldrd	r2, r3, [r3]
100025f0:	4680      	mov	r8, r0
100025f2:	4689      	mov	r9, r1
100025f4:	f7ff fbbe 	bl	10001d74 <__wrap___aeabi_dmul>
100025f8:	2200      	movs	r2, #0
100025fa:	4b6e      	ldr	r3, [pc, #440]	@ (100027b4 <_etoa+0x43c>)
100025fc:	f7ff fb92 	bl	10001d24 <__wrap___aeabi_dadd>
10002600:	f7ff fc50 	bl	10001ea4 <__wrap___aeabi_d2iz>
10002604:	4603      	mov	r3, r0
10002606:	4649      	mov	r1, r9
10002608:	4640      	mov	r0, r8
1000260a:	9312      	str	r3, [sp, #72]	@ 0x48
1000260c:	a35e      	add	r3, pc, #376	@ (adr r3, 10002788 <_etoa+0x410>)
1000260e:	e9d3 2300 	ldrd	r2, r3, [r3]
10002612:	f7ff fbaf 	bl	10001d74 <__wrap___aeabi_dmul>
10002616:	4680      	mov	r8, r0
10002618:	9812      	ldr	r0, [sp, #72]	@ 0x48
1000261a:	4689      	mov	r9, r1
1000261c:	f7ff fc1e 	bl	10001e5c <__wrap___aeabi_i2d>
10002620:	a35b      	add	r3, pc, #364	@ (adr r3, 10002790 <_etoa+0x418>)
10002622:	e9d3 2300 	ldrd	r2, r3, [r3]
10002626:	f7ff fba5 	bl	10001d74 <__wrap___aeabi_dmul>
1000262a:	4602      	mov	r2, r0
1000262c:	460b      	mov	r3, r1
1000262e:	4640      	mov	r0, r8
10002630:	4649      	mov	r1, r9
10002632:	f7ff fb8b 	bl	10001d4c <__wrap___aeabi_dsub>
10002636:	4602      	mov	r2, r0
10002638:	460b      	mov	r3, r1
1000263a:	4680      	mov	r8, r0
1000263c:	4689      	mov	r9, r1
1000263e:	f7ff fb99 	bl	10001d74 <__wrap___aeabi_dmul>
10002642:	4642      	mov	r2, r8
10002644:	464b      	mov	r3, r9
10002646:	e9cd 010e 	strd	r0, r1, [sp, #56]	@ 0x38
1000264a:	4640      	mov	r0, r8
1000264c:	4649      	mov	r1, r9
1000264e:	f7ff fb69 	bl	10001d24 <__wrap___aeabi_dadd>
10002652:	2200      	movs	r2, #0
10002654:	e9cd 0114 	strd	r0, r1, [sp, #80]	@ 0x50
10002658:	e9dd 010e 	ldrd	r0, r1, [sp, #56]	@ 0x38
1000265c:	4b56      	ldr	r3, [pc, #344]	@ (100027b8 <_etoa+0x440>)
1000265e:	f7ff fbaf 	bl	10001dc0 <__wrap___aeabi_ddiv>
10002662:	2200      	movs	r2, #0
10002664:	4b55      	ldr	r3, [pc, #340]	@ (100027bc <_etoa+0x444>)
10002666:	f7ff fb5d 	bl	10001d24 <__wrap___aeabi_dadd>
1000266a:	4602      	mov	r2, r0
1000266c:	460b      	mov	r3, r1
1000266e:	e9dd 010e 	ldrd	r0, r1, [sp, #56]	@ 0x38
10002672:	f7ff fba5 	bl	10001dc0 <__wrap___aeabi_ddiv>
10002676:	2200      	movs	r2, #0
10002678:	4b51      	ldr	r3, [pc, #324]	@ (100027c0 <_etoa+0x448>)
1000267a:	f7ff fb53 	bl	10001d24 <__wrap___aeabi_dadd>
1000267e:	4602      	mov	r2, r0
10002680:	460b      	mov	r3, r1
10002682:	e9dd 010e 	ldrd	r0, r1, [sp, #56]	@ 0x38
10002686:	f7ff fb9b 	bl	10001dc0 <__wrap___aeabi_ddiv>
1000268a:	4642      	mov	r2, r8
1000268c:	464b      	mov	r3, r9
1000268e:	4680      	mov	r8, r0
10002690:	4689      	mov	r9, r1
10002692:	2000      	movs	r0, #0
10002694:	f04f 4180 	mov.w	r1, #1073741824	@ 0x40000000
10002698:	f7ff fb58 	bl	10001d4c <__wrap___aeabi_dsub>
1000269c:	4602      	mov	r2, r0
1000269e:	460b      	mov	r3, r1
100026a0:	4640      	mov	r0, r8
100026a2:	4649      	mov	r1, r9
100026a4:	f7ff fb3e 	bl	10001d24 <__wrap___aeabi_dadd>
100026a8:	4602      	mov	r2, r0
100026aa:	460b      	mov	r3, r1
100026ac:	e9dd 0114 	ldrd	r0, r1, [sp, #80]	@ 0x50
100026b0:	f7ff fb86 	bl	10001dc0 <__wrap___aeabi_ddiv>
100026b4:	2200      	movs	r2, #0
100026b6:	4b43      	ldr	r3, [pc, #268]	@ (100027c4 <_etoa+0x44c>)
100026b8:	f7ff fb34 	bl	10001d24 <__wrap___aeabi_dadd>
100026bc:	9b12      	ldr	r3, [sp, #72]	@ 0x48
100026be:	2200      	movs	r2, #0
100026c0:	f203 3cff 	addw	ip, r3, #1023	@ 0x3ff
100026c4:	ea4f 530c 	mov.w	r3, ip, lsl #20
100026c8:	f7ff fb54 	bl	10001d74 <__wrap___aeabi_dmul>
100026cc:	4680      	mov	r8, r0
100026ce:	4689      	mov	r9, r1
100026d0:	e9dd 010a 	ldrd	r0, r1, [sp, #40]	@ 0x28
100026d4:	4642      	mov	r2, r8
100026d6:	464b      	mov	r3, r9
100026d8:	e9cd 890e 	strd	r8, r9, [sp, #56]	@ 0x38
100026dc:	f7ff fc18 	bl	10001f10 <__wrap___aeabi_dcmplt>
100026e0:	bb68      	cbnz	r0, 1000273e <_etoa+0x3c6>
100026e2:	4643      	mov	r3, r8
100026e4:	4649      	mov	r1, r9
100026e6:	f107 0263 	add.w	r2, r7, #99	@ 0x63
100026ea:	2ac6      	cmp	r2, #198	@ 0xc6
100026ec:	9a11      	ldr	r2, [sp, #68]	@ 0x44
100026ee:	bf8c      	ite	hi
100026f0:	f04f 0905 	movhi.w	r9, #5
100026f4:	f04f 0904 	movls.w	r9, #4
100026f8:	2a00      	cmp	r2, #0
100026fa:	f43f ae9f 	beq.w	1000243c <_etoa+0xc4>
100026fe:	430b      	orrs	r3, r1
10002700:	f43f ae8e 	beq.w	10002420 <_etoa+0xa8>
10002704:	e9dd 010a 	ldrd	r0, r1, [sp, #40]	@ 0x28
10002708:	a323      	add	r3, pc, #140	@ (adr r3, 10002798 <_etoa+0x420>)
1000270a:	e9d3 2300 	ldrd	r2, r3, [r3]
1000270e:	f7ff fc13 	bl	10001f38 <__wrap___aeabi_dcmpge>
10002712:	b148      	cbz	r0, 10002728 <_etoa+0x3b0>
10002714:	e9dd 010a 	ldrd	r0, r1, [sp, #40]	@ 0x28
10002718:	a321      	add	r3, pc, #132	@ (adr r3, 100027a0 <_etoa+0x428>)
1000271a:	e9d3 2300 	ldrd	r2, r3, [r3]
1000271e:	f7ff fbf7 	bl	10001f10 <__wrap___aeabi_dcmplt>
10002722:	2800      	cmp	r0, #0
10002724:	f47f ae7c 	bne.w	10002420 <_etoa+0xa8>
10002728:	f1ba 0f00 	cmp.w	sl, #0
1000272c:	f43f ae86 	beq.w	1000243c <_etoa+0xc4>
10002730:	9b13      	ldr	r3, [sp, #76]	@ 0x4c
10002732:	2b00      	cmp	r3, #0
10002734:	f43f ae82 	beq.w	1000243c <_etoa+0xc4>
10002738:	f10a 3aff 	add.w	sl, sl, #4294967295	@ 0xffffffff
1000273c:	e67e      	b.n	1000243c <_etoa+0xc4>
1000273e:	2200      	movs	r2, #0
10002740:	4b1e      	ldr	r3, [pc, #120]	@ (100027bc <_etoa+0x444>)
10002742:	4640      	mov	r0, r8
10002744:	4649      	mov	r1, r9
10002746:	f7ff fb3b 	bl	10001dc0 <__wrap___aeabi_ddiv>
1000274a:	460a      	mov	r2, r1
1000274c:	4601      	mov	r1, r0
1000274e:	4603      	mov	r3, r0
10002750:	e9cd 120e 	strd	r1, r2, [sp, #56]	@ 0x38
10002754:	3f01      	subs	r7, #1
10002756:	4611      	mov	r1, r2
10002758:	e7c5      	b.n	100026e6 <_etoa+0x36e>
1000275a:	ed9f 7b13 	vldr	d7, [pc, #76]	@ 100027a8 <_etoa+0x430>
1000275e:	4617      	mov	r7, r2
10002760:	f04f 0904 	mov.w	r9, #4
10002764:	ed8d 7b0e 	vstr	d7, [sp, #56]	@ 0x38
10002768:	e668      	b.n	1000243c <_etoa+0xc4>
1000276a:	f108 4300 	add.w	r3, r8, #2147483648	@ 0x80000000
1000276e:	970a      	str	r7, [sp, #40]	@ 0x28
10002770:	930b      	str	r3, [sp, #44]	@ 0x2c
10002772:	e63c      	b.n	100023ee <_etoa+0x76>
10002774:	f3af 8000 	nop.w
10002778:	636f4361 	.word	0x636f4361
1000277c:	3fd287a7 	.word	0x3fd287a7
10002780:	0979a371 	.word	0x0979a371
10002784:	400a934f 	.word	0x400a934f
10002788:	bbb55516 	.word	0xbbb55516
1000278c:	40026bb1 	.word	0x40026bb1
10002790:	fefa39ef 	.word	0xfefa39ef
10002794:	3fe62e42 	.word	0x3fe62e42
10002798:	eb1c432d 	.word	0xeb1c432d
1000279c:	3f1a36e2 	.word	0x3f1a36e2
100027a0:	00000000 	.word	0x00000000
100027a4:	412e8480 	.word	0x412e8480
	...
100027b0:	3ff80000 	.word	0x3ff80000
100027b4:	3fe00000 	.word	0x3fe00000
100027b8:	402c0000 	.word	0x402c0000
100027bc:	40240000 	.word	0x40240000
100027c0:	40180000 	.word	0x40180000
100027c4:	3ff00000 	.word	0x3ff00000
100027c8:	509f79fb 	.word	0x509f79fb
100027cc:	3fd34413 	.word	0x3fd34413
100027d0:	8b60c8b3 	.word	0x8b60c8b3
100027d4:	3fc68a28 	.word	0x3fc68a28

100027d8 <_ftoa>:
100027d8:	e92d 4ff0 	stmdb	sp!, {r4, r5, r6, r7, r8, r9, sl, fp, lr}
100027dc:	b097      	sub	sp, #92	@ 0x5c
100027de:	e9dd 8920 	ldrd	r8, r9, [sp, #128]	@ 0x80
100027e2:	e9cd 0104 	strd	r0, r1, [sp, #16]
100027e6:	e9dd 4b22 	ldrd	r4, fp, [sp, #136]	@ 0x88
100027ea:	e9cd 2306 	strd	r2, r3, [sp, #24]
100027ee:	4640      	mov	r0, r8
100027f0:	4642      	mov	r2, r8
100027f2:	464b      	mov	r3, r9
100027f4:	4649      	mov	r1, r9
100027f6:	f8dd a090 	ldr.w	sl, [sp, #144]	@ 0x90
100027fa:	f7ff fb77 	bl	10001eec <__wrap___aeabi_dcmpun>
100027fe:	2800      	cmp	r0, #0
10002800:	f040 81c5 	bne.w	10002b8e <_ftoa+0x3b6>
10002804:	4640      	mov	r0, r8
10002806:	4649      	mov	r1, r9
10002808:	f04f 32ff 	mov.w	r2, #4294967295	@ 0xffffffff
1000280c:	f46f 1380 	mvn.w	r3, #1048576	@ 0x100000
10002810:	f7ff fb7e 	bl	10001f10 <__wrap___aeabi_dcmplt>
10002814:	2800      	cmp	r0, #0
10002816:	f040 811d 	bne.w	10002a54 <_ftoa+0x27c>
1000281a:	4640      	mov	r0, r8
1000281c:	4649      	mov	r1, r9
1000281e:	f04f 32ff 	mov.w	r2, #4294967295	@ 0xffffffff
10002822:	4bc1      	ldr	r3, [pc, #772]	@ (10002b28 <_ftoa+0x350>)
10002824:	f7ff fb9c 	bl	10001f60 <__wrap___aeabi_dcmpgt>
10002828:	2800      	cmp	r0, #0
1000282a:	f040 80e3 	bne.w	100029f4 <_ftoa+0x21c>
1000282e:	a3b8      	add	r3, pc, #736	@ (adr r3, 10002b10 <_ftoa+0x338>)
10002830:	e9d3 2300 	ldrd	r2, r3, [r3]
10002834:	4640      	mov	r0, r8
10002836:	4649      	mov	r1, r9
10002838:	f7ff fb92 	bl	10001f60 <__wrap___aeabi_dcmpgt>
1000283c:	2800      	cmp	r0, #0
1000283e:	f040 80cb 	bne.w	100029d8 <_ftoa+0x200>
10002842:	a3b5      	add	r3, pc, #724	@ (adr r3, 10002b18 <_ftoa+0x340>)
10002844:	e9d3 2300 	ldrd	r2, r3, [r3]
10002848:	4640      	mov	r0, r8
1000284a:	4649      	mov	r1, r9
1000284c:	f7ff fb60 	bl	10001f10 <__wrap___aeabi_dcmplt>
10002850:	2800      	cmp	r0, #0
10002852:	f040 80c1 	bne.w	100029d8 <_ftoa+0x200>
10002856:	4640      	mov	r0, r8
10002858:	4649      	mov	r1, r9
1000285a:	2200      	movs	r2, #0
1000285c:	2300      	movs	r3, #0
1000285e:	f7ff fb57 	bl	10001f10 <__wrap___aeabi_dcmplt>
10002862:	2800      	cmp	r0, #0
10002864:	f040 80e0 	bne.w	10002a28 <_ftoa+0x250>
10002868:	f41a 6580 	ands.w	r5, sl, #1024	@ 0x400
1000286c:	900d      	str	r0, [sp, #52]	@ 0x34
1000286e:	f000 80e9 	beq.w	10002a44 <_ftoa+0x26c>
10002872:	2c09      	cmp	r4, #9
10002874:	f240 8196 	bls.w	10002ba4 <_ftoa+0x3cc>
10002878:	ab0e      	add	r3, sp, #56	@ 0x38
1000287a:	461a      	mov	r2, r3
1000287c:	930c      	str	r3, [sp, #48]	@ 0x30
1000287e:	2130      	movs	r1, #48	@ 0x30
10002880:	2300      	movs	r3, #0
10002882:	f1a4 0509 	sub.w	r5, r4, #9
10002886:	3301      	adds	r3, #1
10002888:	2b20      	cmp	r3, #32
1000288a:	f802 1b01 	strb.w	r1, [r2], #1
1000288e:	eba4 0603 	sub.w	r6, r4, r3
10002892:	f000 813a 	beq.w	10002b0a <_ftoa+0x332>
10002896:	42ab      	cmp	r3, r5
10002898:	d1f5      	bne.n	10002886 <_ftoa+0xae>
1000289a:	ed9f 7b9d 	vldr	d7, [pc, #628]	@ 10002b10 <_ftoa+0x338>
1000289e:	ed8d 7b08 	vstr	d7, [sp, #32]
100028a2:	4649      	mov	r1, r9
100028a4:	4640      	mov	r0, r8
100028a6:	f7ff fafd 	bl	10001ea4 <__wrap___aeabi_d2iz>
100028aa:	4604      	mov	r4, r0
100028ac:	f7ff fad6 	bl	10001e5c <__wrap___aeabi_i2d>
100028b0:	4602      	mov	r2, r0
100028b2:	460b      	mov	r3, r1
100028b4:	4640      	mov	r0, r8
100028b6:	4649      	mov	r1, r9
100028b8:	f7ff fa48 	bl	10001d4c <__wrap___aeabi_dsub>
100028bc:	e9dd 2308 	ldrd	r2, r3, [sp, #32]
100028c0:	f7ff fa58 	bl	10001d74 <__wrap___aeabi_dmul>
100028c4:	4602      	mov	r2, r0
100028c6:	460b      	mov	r3, r1
100028c8:	e9cd 230a 	strd	r2, r3, [sp, #40]	@ 0x28
100028cc:	f7ff fafc 	bl	10001ec8 <__wrap___aeabi_d2uiz>
100028d0:	4607      	mov	r7, r0
100028d2:	f7ff fad5 	bl	10001e80 <__wrap___aeabi_ui2d>
100028d6:	4602      	mov	r2, r0
100028d8:	460b      	mov	r3, r1
100028da:	e9dd 010a 	ldrd	r0, r1, [sp, #40]	@ 0x28
100028de:	f7ff fa35 	bl	10001d4c <__wrap___aeabi_dsub>
100028e2:	4602      	mov	r2, r0
100028e4:	460b      	mov	r3, r1
100028e6:	e9cd 230a 	strd	r2, r3, [sp, #40]	@ 0x28
100028ea:	2200      	movs	r2, #0
100028ec:	4b8f      	ldr	r3, [pc, #572]	@ (10002b2c <_ftoa+0x354>)
100028ee:	f7ff fb37 	bl	10001f60 <__wrap___aeabi_dcmpgt>
100028f2:	2800      	cmp	r0, #0
100028f4:	f000 80db 	beq.w	10002aae <_ftoa+0x2d6>
100028f8:	3701      	adds	r7, #1
100028fa:	4638      	mov	r0, r7
100028fc:	f7ff fac0 	bl	10001e80 <__wrap___aeabi_ui2d>
10002900:	e9dd 2308 	ldrd	r2, r3, [sp, #32]
10002904:	f7ff fb18 	bl	10001f38 <__wrap___aeabi_dcmpge>
10002908:	b108      	cbz	r0, 1000290e <_ftoa+0x136>
1000290a:	2700      	movs	r7, #0
1000290c:	3401      	adds	r4, #1
1000290e:	2e00      	cmp	r6, #0
10002910:	f040 80b1 	bne.w	10002a76 <_ftoa+0x29e>
10002914:	4620      	mov	r0, r4
10002916:	f7ff faa1 	bl	10001e5c <__wrap___aeabi_i2d>
1000291a:	4602      	mov	r2, r0
1000291c:	460b      	mov	r3, r1
1000291e:	4640      	mov	r0, r8
10002920:	4649      	mov	r1, r9
10002922:	f7ff fa13 	bl	10001d4c <__wrap___aeabi_dsub>
10002926:	2200      	movs	r2, #0
10002928:	4b80      	ldr	r3, [pc, #512]	@ (10002b2c <_ftoa+0x354>)
1000292a:	4606      	mov	r6, r0
1000292c:	460f      	mov	r7, r1
1000292e:	f7ff faef 	bl	10001f10 <__wrap___aeabi_dcmplt>
10002932:	b940      	cbnz	r0, 10002946 <_ftoa+0x16e>
10002934:	4630      	mov	r0, r6
10002936:	4639      	mov	r1, r7
10002938:	2200      	movs	r2, #0
1000293a:	4b7c      	ldr	r3, [pc, #496]	@ (10002b2c <_ftoa+0x354>)
1000293c:	f7ff fb10 	bl	10001f60 <__wrap___aeabi_dcmpgt>
10002940:	2800      	cmp	r0, #0
10002942:	f000 8115 	beq.w	10002b70 <_ftoa+0x398>
10002946:	9b0c      	ldr	r3, [sp, #48]	@ 0x30
10002948:	1e69      	subs	r1, r5, #1
1000294a:	4879      	ldr	r0, [pc, #484]	@ (10002b30 <_ftoa+0x358>)
1000294c:	4419      	add	r1, r3
1000294e:	e010      	b.n	10002972 <_ftoa+0x19a>
10002950:	fb80 6204 	smull	r6, r2, r0, r4
10002954:	ebc3 03a2 	rsb	r3, r3, r2, asr #2
10002958:	eb03 0283 	add.w	r2, r3, r3, lsl #2
1000295c:	eba4 0442 	sub.w	r4, r4, r2, lsl #1
10002960:	f104 0230 	add.w	r2, r4, #48	@ 0x30
10002964:	3501      	adds	r5, #1
10002966:	461c      	mov	r4, r3
10002968:	f801 2f01 	strb.w	r2, [r1, #1]!
1000296c:	2b00      	cmp	r3, #0
1000296e:	f000 80ab 	beq.w	10002ac8 <_ftoa+0x2f0>
10002972:	2d20      	cmp	r5, #32
10002974:	ea4f 73e4 	mov.w	r3, r4, asr #31
10002978:	d1ea      	bne.n	10002950 <_ftoa+0x178>
1000297a:	f00a 0303 	and.w	r3, sl, #3
1000297e:	2b01      	cmp	r3, #1
10002980:	d11c      	bne.n	100029bc <_ftoa+0x1e4>
10002982:	f1bb 0f00 	cmp.w	fp, #0
10002986:	d019      	beq.n	100029bc <_ftoa+0x1e4>
10002988:	9b0d      	ldr	r3, [sp, #52]	@ 0x34
1000298a:	2b00      	cmp	r3, #0
1000298c:	f040 80f9 	bne.w	10002b82 <_ftoa+0x3aa>
10002990:	f01a 0f0c 	tst.w	sl, #12
10002994:	f040 80f5 	bne.w	10002b82 <_ftoa+0x3aa>
10002998:	45ab      	cmp	fp, r5
1000299a:	f240 80d3 	bls.w	10002b44 <_ftoa+0x36c>
1000299e:	2d20      	cmp	r5, #32
100029a0:	d00b      	beq.n	100029ba <_ftoa+0x1e2>
100029a2:	2230      	movs	r2, #48	@ 0x30
100029a4:	990c      	ldr	r1, [sp, #48]	@ 0x30
100029a6:	1e6b      	subs	r3, r5, #1
100029a8:	440b      	add	r3, r1
100029aa:	3501      	adds	r5, #1
100029ac:	455d      	cmp	r5, fp
100029ae:	f803 2f01 	strb.w	r2, [r3, #1]!
100029b2:	f000 808d 	beq.w	10002ad0 <_ftoa+0x2f8>
100029b6:	2d20      	cmp	r5, #32
100029b8:	d1f7      	bne.n	100029aa <_ftoa+0x1d2>
100029ba:	2520      	movs	r5, #32
100029bc:	e9dd 2306 	ldrd	r2, r3, [sp, #24]
100029c0:	e9dd 0104 	ldrd	r0, r1, [sp, #16]
100029c4:	9c0c      	ldr	r4, [sp, #48]	@ 0x30
100029c6:	e9cd ba02 	strd	fp, sl, [sp, #8]
100029ca:	9501      	str	r5, [sp, #4]
100029cc:	9400      	str	r4, [sp, #0]
100029ce:	f7ff fb27 	bl	10002020 <_out_rev>
100029d2:	b017      	add	sp, #92	@ 0x5c
100029d4:	e8bd 8ff0 	ldmia.w	sp!, {r4, r5, r6, r7, r8, r9, sl, fp, pc}
100029d8:	e9cd 8920 	strd	r8, r9, [sp, #128]	@ 0x80
100029dc:	e9dd 2306 	ldrd	r2, r3, [sp, #24]
100029e0:	e9dd 0104 	ldrd	r0, r1, [sp, #16]
100029e4:	e9cd ba23 	strd	fp, sl, [sp, #140]	@ 0x8c
100029e8:	9422      	str	r4, [sp, #136]	@ 0x88
100029ea:	b017      	add	sp, #92	@ 0x5c
100029ec:	e8bd 4ff0 	ldmia.w	sp!, {r4, r5, r6, r7, r8, r9, sl, fp, lr}
100029f0:	f7ff bcc2 	b.w	10002378 <_etoa>
100029f4:	4d4f      	ldr	r5, [pc, #316]	@ (10002b34 <_ftoa+0x35c>)
100029f6:	f8cd a08c 	str.w	sl, [sp, #140]	@ 0x8c
100029fa:	f00a 0a04 	and.w	sl, sl, #4
100029fe:	f1ba 0f00 	cmp.w	sl, #0
10002a02:	4c4d      	ldr	r4, [pc, #308]	@ (10002b38 <_ftoa+0x360>)
10002a04:	bf18      	it	ne
10002a06:	462c      	movne	r4, r5
10002a08:	e9dd 2306 	ldrd	r2, r3, [sp, #24]
10002a0c:	e9dd 0104 	ldrd	r0, r1, [sp, #16]
10002a10:	9420      	str	r4, [sp, #128]	@ 0x80
10002a12:	bf0c      	ite	eq
10002a14:	2403      	moveq	r4, #3
10002a16:	2404      	movne	r4, #4
10002a18:	f8cd b088 	str.w	fp, [sp, #136]	@ 0x88
10002a1c:	9421      	str	r4, [sp, #132]	@ 0x84
10002a1e:	b017      	add	sp, #92	@ 0x5c
10002a20:	e8bd 4ff0 	ldmia.w	sp!, {r4, r5, r6, r7, r8, r9, sl, fp, lr}
10002a24:	f7ff bafc 	b.w	10002020 <_out_rev>
10002a28:	464b      	mov	r3, r9
10002a2a:	4642      	mov	r2, r8
10002a2c:	2000      	movs	r0, #0
10002a2e:	2100      	movs	r1, #0
10002a30:	f7ff f98c 	bl	10001d4c <__wrap___aeabi_dsub>
10002a34:	2301      	movs	r3, #1
10002a36:	f41a 6580 	ands.w	r5, sl, #1024	@ 0x400
10002a3a:	4680      	mov	r8, r0
10002a3c:	4689      	mov	r9, r1
10002a3e:	930d      	str	r3, [sp, #52]	@ 0x34
10002a40:	f47f af17 	bne.w	10002872 <_ftoa+0x9a>
10002a44:	ed9f 7b36 	vldr	d7, [pc, #216]	@ 10002b20 <_ftoa+0x348>
10002a48:	ab0e      	add	r3, sp, #56	@ 0x38
10002a4a:	2606      	movs	r6, #6
10002a4c:	ed8d 7b08 	vstr	d7, [sp, #32]
10002a50:	930c      	str	r3, [sp, #48]	@ 0x30
10002a52:	e726      	b.n	100028a2 <_ftoa+0xca>
10002a54:	2404      	movs	r4, #4
10002a56:	e9dd 2306 	ldrd	r2, r3, [sp, #24]
10002a5a:	e9dd 0104 	ldrd	r0, r1, [sp, #16]
10002a5e:	4d37      	ldr	r5, [pc, #220]	@ (10002b3c <_ftoa+0x364>)
10002a60:	f8cd a08c 	str.w	sl, [sp, #140]	@ 0x8c
10002a64:	f8cd b088 	str.w	fp, [sp, #136]	@ 0x88
10002a68:	9520      	str	r5, [sp, #128]	@ 0x80
10002a6a:	9421      	str	r4, [sp, #132]	@ 0x84
10002a6c:	b017      	add	sp, #92	@ 0x5c
10002a6e:	e8bd 4ff0 	ldmia.w	sp!, {r4, r5, r6, r7, r8, r9, sl, fp, lr}
10002a72:	f7ff bad5 	b.w	10002020 <_out_rev>
10002a76:	9b0c      	ldr	r3, [sp, #48]	@ 0x30
10002a78:	1e68      	subs	r0, r5, #1
10002a7a:	f8df c0c4 	ldr.w	ip, [pc, #196]	@ 10002b40 <_ftoa+0x368>
10002a7e:	4418      	add	r0, r3
10002a80:	e00d      	b.n	10002a9e <_ftoa+0x2c6>
10002a82:	fbac 2107 	umull	r2, r1, ip, r7
10002a86:	08c9      	lsrs	r1, r1, #3
10002a88:	eb01 0281 	add.w	r2, r1, r1, lsl #2
10002a8c:	eba7 0242 	sub.w	r2, r7, r2, lsl #1
10002a90:	3230      	adds	r2, #48	@ 0x30
10002a92:	2f09      	cmp	r7, #9
10002a94:	f800 2f01 	strb.w	r2, [r0, #1]!
10002a98:	d927      	bls.n	10002aea <_ftoa+0x312>
10002a9a:	460f      	mov	r7, r1
10002a9c:	461d      	mov	r5, r3
10002a9e:	2d20      	cmp	r5, #32
10002aa0:	f105 0301 	add.w	r3, r5, #1
10002aa4:	f106 36ff 	add.w	r6, r6, #4294967295	@ 0xffffffff
10002aa8:	d1eb      	bne.n	10002a82 <_ftoa+0x2aa>
10002aaa:	2520      	movs	r5, #32
10002aac:	e74b      	b.n	10002946 <_ftoa+0x16e>
10002aae:	2200      	movs	r2, #0
10002ab0:	e9dd 010a 	ldrd	r0, r1, [sp, #40]	@ 0x28
10002ab4:	4b1d      	ldr	r3, [pc, #116]	@ (10002b2c <_ftoa+0x354>)
10002ab6:	f7ff fa2b 	bl	10001f10 <__wrap___aeabi_dcmplt>
10002aba:	2800      	cmp	r0, #0
10002abc:	f47f af27 	bne.w	1000290e <_ftoa+0x136>
10002ac0:	2f00      	cmp	r7, #0
10002ac2:	d15a      	bne.n	10002b7a <_ftoa+0x3a2>
10002ac4:	3701      	adds	r7, #1
10002ac6:	e722      	b.n	1000290e <_ftoa+0x136>
10002ac8:	f00a 0303 	and.w	r3, sl, #3
10002acc:	2b01      	cmp	r3, #1
10002ace:	d075      	beq.n	10002bbc <_ftoa+0x3e4>
10002ad0:	2d20      	cmp	r5, #32
10002ad2:	f43f af73 	beq.w	100029bc <_ftoa+0x1e4>
10002ad6:	9b0d      	ldr	r3, [sp, #52]	@ 0x34
10002ad8:	b3bb      	cbz	r3, 10002b4a <_ftoa+0x372>
10002ada:	222d      	movs	r2, #45	@ 0x2d
10002adc:	f105 0358 	add.w	r3, r5, #88	@ 0x58
10002ae0:	446b      	add	r3, sp
10002ae2:	f803 2c20 	strb.w	r2, [r3, #-32]
10002ae6:	3501      	adds	r5, #1
10002ae8:	e768      	b.n	100029bc <_ftoa+0x1e4>
10002aea:	2b20      	cmp	r3, #32
10002aec:	d0dd      	beq.n	10002aaa <_ftoa+0x2d2>
10002aee:	b3ae      	cbz	r6, 10002b5c <_ftoa+0x384>
10002af0:	9a0c      	ldr	r2, [sp, #48]	@ 0x30
10002af2:	441e      	add	r6, r3
10002af4:	4415      	add	r5, r2
10002af6:	2230      	movs	r2, #48	@ 0x30
10002af8:	e001      	b.n	10002afe <_ftoa+0x326>
10002afa:	42b3      	cmp	r3, r6
10002afc:	d02e      	beq.n	10002b5c <_ftoa+0x384>
10002afe:	3301      	adds	r3, #1
10002b00:	2b20      	cmp	r3, #32
10002b02:	f805 2f01 	strb.w	r2, [r5, #1]!
10002b06:	d1f8      	bne.n	10002afa <_ftoa+0x322>
10002b08:	e7cf      	b.n	10002aaa <_ftoa+0x2d2>
10002b0a:	461d      	mov	r5, r3
10002b0c:	e6c5      	b.n	1000289a <_ftoa+0xc2>
10002b0e:	bf00      	nop
10002b10:	00000000 	.word	0x00000000
10002b14:	41cdcd65 	.word	0x41cdcd65
10002b18:	00000000 	.word	0x00000000
10002b1c:	c1cdcd65 	.word	0xc1cdcd65
10002b20:	00000000 	.word	0x00000000
10002b24:	412e8480 	.word	0x412e8480
10002b28:	7fefffff 	.word	0x7fefffff
10002b2c:	3fe00000 	.word	0x3fe00000
10002b30:	66666667 	.word	0x66666667
10002b34:	10012ccc 	.word	0x10012ccc
10002b38:	10012cd4 	.word	0x10012cd4
10002b3c:	10012cdc 	.word	0x10012cdc
10002b40:	cccccccd 	.word	0xcccccccd
10002b44:	2d20      	cmp	r5, #32
10002b46:	f43f af39 	beq.w	100029bc <_ftoa+0x1e4>
10002b4a:	f01a 0f04 	tst.w	sl, #4
10002b4e:	d10d      	bne.n	10002b6c <_ftoa+0x394>
10002b50:	f01a 0f08 	tst.w	sl, #8
10002b54:	f43f af32 	beq.w	100029bc <_ftoa+0x1e4>
10002b58:	2220      	movs	r2, #32
10002b5a:	e7bf      	b.n	10002adc <_ftoa+0x304>
10002b5c:	212e      	movs	r1, #46	@ 0x2e
10002b5e:	f103 0258 	add.w	r2, r3, #88	@ 0x58
10002b62:	446a      	add	r2, sp
10002b64:	f802 1c20 	strb.w	r1, [r2, #-32]
10002b68:	1c5d      	adds	r5, r3, #1
10002b6a:	e6ec      	b.n	10002946 <_ftoa+0x16e>
10002b6c:	222b      	movs	r2, #43	@ 0x2b
10002b6e:	e7b5      	b.n	10002adc <_ftoa+0x304>
10002b70:	07e3      	lsls	r3, r4, #31
10002b72:	f57f aee8 	bpl.w	10002946 <_ftoa+0x16e>
10002b76:	3401      	adds	r4, #1
10002b78:	e6e5      	b.n	10002946 <_ftoa+0x16e>
10002b7a:	07fa      	lsls	r2, r7, #31
10002b7c:	f57f aec7 	bpl.w	1000290e <_ftoa+0x136>
10002b80:	e7a0      	b.n	10002ac4 <_ftoa+0x2ec>
10002b82:	f10b 3bff 	add.w	fp, fp, #4294967295	@ 0xffffffff
10002b86:	45ab      	cmp	fp, r5
10002b88:	f63f af09 	bhi.w	1000299e <_ftoa+0x1c6>
10002b8c:	e7a0      	b.n	10002ad0 <_ftoa+0x2f8>
10002b8e:	2403      	movs	r4, #3
10002b90:	e9dd 2306 	ldrd	r2, r3, [sp, #24]
10002b94:	e9dd 0104 	ldrd	r0, r1, [sp, #16]
10002b98:	4d0a      	ldr	r5, [pc, #40]	@ (10002bc4 <_ftoa+0x3ec>)
10002b9a:	f8cd a08c 	str.w	sl, [sp, #140]	@ 0x8c
10002b9e:	f8cd b088 	str.w	fp, [sp, #136]	@ 0x88
10002ba2:	e761      	b.n	10002a68 <_ftoa+0x290>
10002ba4:	4b08      	ldr	r3, [pc, #32]	@ (10002bc8 <_ftoa+0x3f0>)
10002ba6:	4626      	mov	r6, r4
10002ba8:	eb03 03c4 	add.w	r3, r3, r4, lsl #3
10002bac:	ed93 7b00 	vldr	d7, [r3]
10002bb0:	ab0e      	add	r3, sp, #56	@ 0x38
10002bb2:	ed8d 7b08 	vstr	d7, [sp, #32]
10002bb6:	2500      	movs	r5, #0
10002bb8:	930c      	str	r3, [sp, #48]	@ 0x30
10002bba:	e672      	b.n	100028a2 <_ftoa+0xca>
10002bbc:	f1bb 0f00 	cmp.w	fp, #0
10002bc0:	d086      	beq.n	10002ad0 <_ftoa+0x2f8>
10002bc2:	e6e1      	b.n	10002988 <_ftoa+0x1b0>
10002bc4:	10012cd8 	.word	0x10012cd8
10002bc8:	100138a0 	.word	0x100138a0

10002bcc <_vsnprintf>:
10002bcc:	e92d 4ff0 	stmdb	sp!, {r4, r5, r6, r7, r8, r9, sl, fp, lr}
10002bd0:	469a      	mov	sl, r3
10002bd2:	b09b      	sub	sp, #108	@ 0x6c
10002bd4:	9c24      	ldr	r4, [sp, #144]	@ 0x90
10002bd6:	4d96      	ldr	r5, [pc, #600]	@ (10002e30 <_vsnprintf+0x264>)
10002bd8:	940b      	str	r4, [sp, #44]	@ 0x2c
10002bda:	4c96      	ldr	r4, [pc, #600]	@ (10002e34 <_vsnprintf+0x268>)
10002bdc:	1e0b      	subs	r3, r1, #0
10002bde:	bf18      	it	ne
10002be0:	4683      	movne	fp, r0
10002be2:	6025      	str	r5, [r4, #0]
10002be4:	f89a 0000 	ldrb.w	r0, [sl]
10002be8:	4c93      	ldr	r4, [pc, #588]	@ (10002e38 <_vsnprintf+0x26c>)
10002bea:	930a      	str	r3, [sp, #40]	@ 0x28
10002bec:	bf08      	it	eq
10002bee:	46a3      	moveq	fp, r4
10002bf0:	9209      	str	r2, [sp, #36]	@ 0x24
10002bf2:	2800      	cmp	r0, #0
10002bf4:	f000 82bc 	beq.w	10003170 <_vsnprintf+0x5a4>
10002bf8:	f04f 0900 	mov.w	r9, #0
10002bfc:	e00a      	b.n	10002c14 <_vsnprintf+0x48>
10002bfe:	464a      	mov	r2, r9
10002c00:	9b09      	ldr	r3, [sp, #36]	@ 0x24
10002c02:	990a      	ldr	r1, [sp, #40]	@ 0x28
10002c04:	f109 0901 	add.w	r9, r9, #1
10002c08:	47d8      	blx	fp
10002c0a:	f89a 0000 	ldrb.w	r0, [sl]
10002c0e:	2800      	cmp	r0, #0
10002c10:	f000 80ce 	beq.w	10002db0 <_vsnprintf+0x1e4>
10002c14:	2825      	cmp	r0, #37	@ 0x25
10002c16:	f10a 0a01 	add.w	sl, sl, #1
10002c1a:	d1f0      	bne.n	10002bfe <_vsnprintf+0x32>
10002c1c:	2300      	movs	r3, #0
10002c1e:	4652      	mov	r2, sl
10002c20:	f812 0b01 	ldrb.w	r0, [r2], #1
10002c24:	f1a0 0120 	sub.w	r1, r0, #32
10002c28:	2910      	cmp	r1, #16
10002c2a:	d80a      	bhi.n	10002c42 <_vsnprintf+0x76>
10002c2c:	e8df f001 	tbb	[pc, r1]
10002c30:	3c090940 	.word	0x3c090940
10002c34:	09090909 	.word	0x09090909
10002c38:	38090909 	.word	0x38090909
10002c3c:	09093409 	.word	0x09093409
10002c40:	30          	.byte	0x30
10002c41:	00          	.byte	0x00
10002c42:	f1a0 0130 	sub.w	r1, r0, #48	@ 0x30
10002c46:	2909      	cmp	r1, #9
10002c48:	f240 808c 	bls.w	10002d64 <_vsnprintf+0x198>
10002c4c:	282a      	cmp	r0, #42	@ 0x2a
10002c4e:	f000 80f5 	beq.w	10002e3c <_vsnprintf+0x270>
10002c52:	2100      	movs	r1, #0
10002c54:	910c      	str	r1, [sp, #48]	@ 0x30
10002c56:	282e      	cmp	r0, #46	@ 0x2e
10002c58:	f000 8099 	beq.w	10002d8e <_vsnprintf+0x1c2>
10002c5c:	2700      	movs	r7, #0
10002c5e:	f1a0 0168 	sub.w	r1, r0, #104	@ 0x68
10002c62:	2912      	cmp	r1, #18
10002c64:	d82d      	bhi.n	10002cc2 <_vsnprintf+0xf6>
10002c66:	e8df f011 	tbh	[pc, r1, lsl #1]
10002c6a:	0157      	.short	0x0157
10002c6c:	0151002c 	.word	0x0151002c
10002c70:	0145002c 	.word	0x0145002c
10002c74:	002c002c 	.word	0x002c002c
10002c78:	002c002c 	.word	0x002c002c
10002c7c:	002c002c 	.word	0x002c002c
10002c80:	0027002c 	.word	0x0027002c
10002c84:	002c002c 	.word	0x002c002c
10002c88:	002c002c 	.word	0x002c002c
10002c8c:	0027002c 	.word	0x0027002c
10002c90:	4692      	mov	sl, r2
10002c92:	f043 0301 	orr.w	r3, r3, #1
10002c96:	e7c2      	b.n	10002c1e <_vsnprintf+0x52>
10002c98:	4692      	mov	sl, r2
10002c9a:	f043 0302 	orr.w	r3, r3, #2
10002c9e:	e7be      	b.n	10002c1e <_vsnprintf+0x52>
10002ca0:	4692      	mov	sl, r2
10002ca2:	f043 0304 	orr.w	r3, r3, #4
10002ca6:	e7ba      	b.n	10002c1e <_vsnprintf+0x52>
10002ca8:	4692      	mov	sl, r2
10002caa:	f043 0310 	orr.w	r3, r3, #16
10002cae:	e7b6      	b.n	10002c1e <_vsnprintf+0x52>
10002cb0:	4692      	mov	sl, r2
10002cb2:	f043 0308 	orr.w	r3, r3, #8
10002cb6:	e7b2      	b.n	10002c1e <_vsnprintf+0x52>
10002cb8:	f89a 0001 	ldrb.w	r0, [sl, #1]
10002cbc:	f443 7380 	orr.w	r3, r3, #256	@ 0x100
10002cc0:	3201      	adds	r2, #1
10002cc2:	2867      	cmp	r0, #103	@ 0x67
10002cc4:	4692      	mov	sl, r2
10002cc6:	f200 8082 	bhi.w	10002dce <_vsnprintf+0x202>
10002cca:	2824      	cmp	r0, #36	@ 0x24
10002ccc:	f240 80c6 	bls.w	10002e5c <_vsnprintf+0x290>
10002cd0:	f1a0 0225 	sub.w	r2, r0, #37	@ 0x25
10002cd4:	2a42      	cmp	r2, #66	@ 0x42
10002cd6:	f200 80c1 	bhi.w	10002e5c <_vsnprintf+0x290>
10002cda:	e8df f012 	tbh	[pc, r2, lsl #1]
10002cde:	015f      	.short	0x015f
10002ce0:	00bf00bf 	.word	0x00bf00bf
10002ce4:	00bf00bf 	.word	0x00bf00bf
10002ce8:	00bf00bf 	.word	0x00bf00bf
10002cec:	00bf00bf 	.word	0x00bf00bf
10002cf0:	00bf00bf 	.word	0x00bf00bf
10002cf4:	00bf00bf 	.word	0x00bf00bf
10002cf8:	00bf00bf 	.word	0x00bf00bf
10002cfc:	00bf00bf 	.word	0x00bf00bf
10002d00:	00bf00bf 	.word	0x00bf00bf
10002d04:	00bf00bf 	.word	0x00bf00bf
10002d08:	00bf00bf 	.word	0x00bf00bf
10002d0c:	00bf00bf 	.word	0x00bf00bf
10002d10:	00bf00bf 	.word	0x00bf00bf
10002d14:	00bf00bf 	.word	0x00bf00bf
10002d18:	00bf00bf 	.word	0x00bf00bf
10002d1c:	012600bf 	.word	0x012600bf
10002d20:	01260145 	.word	0x01260145
10002d24:	00bf00bf 	.word	0x00bf00bf
10002d28:	00bf00bf 	.word	0x00bf00bf
10002d2c:	00bf00bf 	.word	0x00bf00bf
10002d30:	00bf00bf 	.word	0x00bf00bf
10002d34:	00bf00bf 	.word	0x00bf00bf
10002d38:	00bf00bf 	.word	0x00bf00bf
10002d3c:	00bf00bf 	.word	0x00bf00bf
10002d40:	00bf00bf 	.word	0x00bf00bf
10002d44:	00bf01d3 	.word	0x00bf01d3
10002d48:	00bf00bf 	.word	0x00bf00bf
10002d4c:	00bf00bf 	.word	0x00bf00bf
10002d50:	00bf00bf 	.word	0x00bf00bf
10002d54:	00bf00bf 	.word	0x00bf00bf
10002d58:	016701d3 	.word	0x016701d3
10002d5c:	012601d3 	.word	0x012601d3
10002d60:	01260145 	.word	0x01260145
10002d64:	2100      	movs	r1, #0
10002d66:	e000      	b.n	10002d6a <_vsnprintf+0x19e>
10002d68:	3201      	adds	r2, #1
10002d6a:	eb01 0181 	add.w	r1, r1, r1, lsl #2
10002d6e:	eb00 0141 	add.w	r1, r0, r1, lsl #1
10002d72:	7810      	ldrb	r0, [r2, #0]
10002d74:	4692      	mov	sl, r2
10002d76:	f1a0 0430 	sub.w	r4, r0, #48	@ 0x30
10002d7a:	2c09      	cmp	r4, #9
10002d7c:	f1a1 0130 	sub.w	r1, r1, #48	@ 0x30
10002d80:	d9f2      	bls.n	10002d68 <_vsnprintf+0x19c>
10002d82:	282e      	cmp	r0, #46	@ 0x2e
10002d84:	910c      	str	r1, [sp, #48]	@ 0x30
10002d86:	f102 0201 	add.w	r2, r2, #1
10002d8a:	f47f af67 	bne.w	10002c5c <_vsnprintf+0x90>
10002d8e:	f89a 0001 	ldrb.w	r0, [sl, #1]
10002d92:	4611      	mov	r1, r2
10002d94:	f1a0 0630 	sub.w	r6, r0, #48	@ 0x30
10002d98:	2e09      	cmp	r6, #9
10002d9a:	f443 6380 	orr.w	r3, r3, #1024	@ 0x400
10002d9e:	f240 8131 	bls.w	10003004 <_vsnprintf+0x438>
10002da2:	282a      	cmp	r0, #42	@ 0x2a
10002da4:	f000 813e 	beq.w	10003024 <_vsnprintf+0x458>
10002da8:	4692      	mov	sl, r2
10002daa:	2700      	movs	r7, #0
10002dac:	3201      	adds	r2, #1
10002dae:	e756      	b.n	10002c5e <_vsnprintf+0x92>
10002db0:	464c      	mov	r4, r9
10002db2:	9b09      	ldr	r3, [sp, #36]	@ 0x24
10002db4:	4599      	cmp	r9, r3
10002db6:	d301      	bcc.n	10002dbc <_vsnprintf+0x1f0>
10002db8:	f103 39ff 	add.w	r9, r3, #4294967295	@ 0xffffffff
10002dbc:	464a      	mov	r2, r9
10002dbe:	2000      	movs	r0, #0
10002dc0:	9b09      	ldr	r3, [sp, #36]	@ 0x24
10002dc2:	990a      	ldr	r1, [sp, #40]	@ 0x28
10002dc4:	47d8      	blx	fp
10002dc6:	4620      	mov	r0, r4
10002dc8:	b01b      	add	sp, #108	@ 0x6c
10002dca:	e8bd 8ff0 	ldmia.w	sp!, {r4, r5, r6, r7, r8, r9, sl, fp, pc}
10002dce:	f1a0 0269 	sub.w	r2, r0, #105	@ 0x69
10002dd2:	b2d2      	uxtb	r2, r2
10002dd4:	2a0f      	cmp	r2, #15
10002dd6:	d841      	bhi.n	10002e5c <_vsnprintf+0x290>
10002dd8:	2601      	movs	r6, #1
10002dda:	f249 0141 	movw	r1, #36929	@ 0x9041
10002dde:	4096      	lsls	r6, r2
10002de0:	400e      	ands	r6, r1
10002de2:	f040 8101 	bne.w	10002fe8 <_vsnprintf+0x41c>
10002de6:	2a0a      	cmp	r2, #10
10002de8:	d03f      	beq.n	10002e6a <_vsnprintf+0x29e>
10002dea:	2a07      	cmp	r2, #7
10002dec:	d136      	bne.n	10002e5c <_vsnprintf+0x290>
10002dee:	9c0b      	ldr	r4, [sp, #44]	@ 0x2c
10002df0:	f854 2b04 	ldr.w	r2, [r4], #4
10002df4:	2a00      	cmp	r2, #0
10002df6:	f000 8128 	beq.w	1000304a <_vsnprintf+0x47e>
10002dfa:	f043 0121 	orr.w	r1, r3, #33	@ 0x21
10002dfe:	f10d 0e48 	add.w	lr, sp, #72	@ 0x48
10002e02:	4670      	mov	r0, lr
10002e04:	e003      	b.n	10002e0e <_vsnprintf+0x242>
10002e06:	2e20      	cmp	r6, #32
10002e08:	f000 8129 	beq.w	1000305e <_vsnprintf+0x492>
10002e0c:	461a      	mov	r2, r3
10002e0e:	f002 050f 	and.w	r5, r2, #15
10002e12:	462b      	mov	r3, r5
10002e14:	2d09      	cmp	r5, #9
10002e16:	bf94      	ite	ls
10002e18:	3330      	addls	r3, #48	@ 0x30
10002e1a:	3337      	addhi	r3, #55	@ 0x37
10002e1c:	2a0f      	cmp	r2, #15
10002e1e:	f800 3b01 	strb.w	r3, [r0], #1
10002e22:	f106 0601 	add.w	r6, r6, #1
10002e26:	ea4f 1312 	mov.w	r3, r2, lsr #4
10002e2a:	d8ec      	bhi.n	10002e06 <_vsnprintf+0x23a>
10002e2c:	e117      	b.n	1000305e <_vsnprintf+0x492>
10002e2e:	bf00      	nop
10002e30:	10002bcd 	.word	0x10002bcd
10002e34:	2000375c 	.word	0x2000375c
10002e38:	1000201d 	.word	0x1000201d
10002e3c:	9c0b      	ldr	r4, [sp, #44]	@ 0x2c
10002e3e:	f89a 0001 	ldrb.w	r0, [sl, #1]
10002e42:	f854 5b04 	ldr.w	r5, [r4], #4
10002e46:	4692      	mov	sl, r2
10002e48:	2d00      	cmp	r5, #0
10002e4a:	bfbd      	ittte	lt
10002e4c:	4269      	neglt	r1, r5
10002e4e:	f043 0302 	orrlt.w	r3, r3, #2
10002e52:	910c      	strlt	r1, [sp, #48]	@ 0x30
10002e54:	950c      	strge	r5, [sp, #48]	@ 0x30
10002e56:	940b      	str	r4, [sp, #44]	@ 0x2c
10002e58:	3201      	adds	r2, #1
10002e5a:	e6fc      	b.n	10002c56 <_vsnprintf+0x8a>
10002e5c:	464a      	mov	r2, r9
10002e5e:	9b09      	ldr	r3, [sp, #36]	@ 0x24
10002e60:	990a      	ldr	r1, [sp, #40]	@ 0x28
10002e62:	f109 0901 	add.w	r9, r9, #1
10002e66:	47d8      	blx	fp
10002e68:	e6cf      	b.n	10002c0a <_vsnprintf+0x3e>
10002e6a:	990b      	ldr	r1, [sp, #44]	@ 0x2c
10002e6c:	f851 8b04 	ldr.w	r8, [r1], #4
10002e70:	f898 2000 	ldrb.w	r2, [r8]
10002e74:	4610      	mov	r0, r2
10002e76:	2f00      	cmp	r7, #0
10002e78:	f040 80e1 	bne.w	1000303e <_vsnprintf+0x472>
10002e7c:	b172      	cbz	r2, 10002e9c <_vsnprintf+0x2d0>
10002e7e:	f06f 0c01 	mvn.w	ip, #1
10002e82:	f10c 0c01 	add.w	ip, ip, #1
10002e86:	4646      	mov	r6, r8
10002e88:	44c4      	add	ip, r8
10002e8a:	e001      	b.n	10002e90 <_vsnprintf+0x2c4>
10002e8c:	4566      	cmp	r6, ip
10002e8e:	d003      	beq.n	10002e98 <_vsnprintf+0x2cc>
10002e90:	f816 4f01 	ldrb.w	r4, [r6, #1]!
10002e94:	2c00      	cmp	r4, #0
10002e96:	d1f9      	bne.n	10002e8c <_vsnprintf+0x2c0>
10002e98:	eba6 0608 	sub.w	r6, r6, r8
10002e9c:	f413 6c80 	ands.w	ip, r3, #1024	@ 0x400
10002ea0:	d002      	beq.n	10002ea8 <_vsnprintf+0x2dc>
10002ea2:	42be      	cmp	r6, r7
10002ea4:	bf28      	it	cs
10002ea6:	463e      	movcs	r6, r7
10002ea8:	f013 0402 	ands.w	r4, r3, #2
10002eac:	f000 8187 	beq.w	100031be <_vsnprintf+0x5f2>
10002eb0:	2a00      	cmp	r2, #0
10002eb2:	f000 812b 	beq.w	1000310c <_vsnprintf+0x540>
10002eb6:	f1bc 0f00 	cmp.w	ip, #0
10002eba:	f000 8141 	beq.w	10003140 <_vsnprintf+0x574>
10002ebe:	940b      	str	r4, [sp, #44]	@ 0x2c
10002ec0:	960d      	str	r6, [sp, #52]	@ 0x34
10002ec2:	464a      	mov	r2, r9
10002ec4:	e9dd 5409 	ldrd	r5, r4, [sp, #36]	@ 0x24
10002ec8:	460e      	mov	r6, r1
10002eca:	444f      	add	r7, r9
10002ecc:	e008      	b.n	10002ee0 <_vsnprintf+0x314>
10002ece:	462b      	mov	r3, r5
10002ed0:	4621      	mov	r1, r4
10002ed2:	47d8      	blx	fp
10002ed4:	f818 0f01 	ldrb.w	r0, [r8, #1]!
10002ed8:	f109 0901 	add.w	r9, r9, #1
10002edc:	b110      	cbz	r0, 10002ee4 <_vsnprintf+0x318>
10002ede:	464a      	mov	r2, r9
10002ee0:	454f      	cmp	r7, r9
10002ee2:	d1f4      	bne.n	10002ece <_vsnprintf+0x302>
10002ee4:	4631      	mov	r1, r6
10002ee6:	9c0b      	ldr	r4, [sp, #44]	@ 0x2c
10002ee8:	9e0d      	ldr	r6, [sp, #52]	@ 0x34
10002eea:	2c00      	cmp	r4, #0
10002eec:	f040 810e 	bne.w	1000310c <_vsnprintf+0x540>
10002ef0:	910b      	str	r1, [sp, #44]	@ 0x2c
10002ef2:	e68a      	b.n	10002c0a <_vsnprintf+0x3e>
10002ef4:	f89a 0001 	ldrb.w	r0, [sl, #1]
10002ef8:	286c      	cmp	r0, #108	@ 0x6c
10002efa:	f47f aedf 	bne.w	10002cbc <_vsnprintf+0xf0>
10002efe:	f89a 0002 	ldrb.w	r0, [sl, #2]
10002f02:	f443 7340 	orr.w	r3, r3, #768	@ 0x300
10002f06:	f10a 0203 	add.w	r2, sl, #3
10002f0a:	e6da      	b.n	10002cc2 <_vsnprintf+0xf6>
10002f0c:	f89a 0001 	ldrb.w	r0, [sl, #1]
10002f10:	f443 7300 	orr.w	r3, r3, #512	@ 0x200
10002f14:	3201      	adds	r2, #1
10002f16:	e6d4      	b.n	10002cc2 <_vsnprintf+0xf6>
10002f18:	f89a 0001 	ldrb.w	r0, [sl, #1]
10002f1c:	2868      	cmp	r0, #104	@ 0x68
10002f1e:	f000 8120 	beq.w	10003162 <_vsnprintf+0x596>
10002f22:	f043 0380 	orr.w	r3, r3, #128	@ 0x80
10002f26:	3201      	adds	r2, #1
10002f28:	e6cb      	b.n	10002cc2 <_vsnprintf+0xf6>
10002f2a:	2867      	cmp	r0, #103	@ 0x67
10002f2c:	f000 80e7 	beq.w	100030fe <_vsnprintf+0x532>
10002f30:	2847      	cmp	r0, #71	@ 0x47
10002f32:	f000 8100 	beq.w	10003136 <_vsnprintf+0x56a>
10002f36:	2845      	cmp	r0, #69	@ 0x45
10002f38:	f000 80ff 	beq.w	1000313a <_vsnprintf+0x56e>
10002f3c:	9c0b      	ldr	r4, [sp, #44]	@ 0x2c
10002f3e:	9304      	str	r3, [sp, #16]
10002f40:	9b0c      	ldr	r3, [sp, #48]	@ 0x30
10002f42:	3407      	adds	r4, #7
10002f44:	e9cd 7302 	strd	r7, r3, [sp, #8]
10002f48:	f024 0307 	bic.w	r3, r4, #7
10002f4c:	461c      	mov	r4, r3
10002f4e:	e9dd 3109 	ldrd	r3, r1, [sp, #36]	@ 0x24
10002f52:	e8f4 6702 	ldrd	r6, r7, [r4], #8
10002f56:	464a      	mov	r2, r9
10002f58:	4658      	mov	r0, fp
10002f5a:	e9cd 6700 	strd	r6, r7, [sp]
10002f5e:	940b      	str	r4, [sp, #44]	@ 0x2c
10002f60:	f7ff fa0a 	bl	10002378 <_etoa>
10002f64:	4681      	mov	r9, r0
10002f66:	e650      	b.n	10002c0a <_vsnprintf+0x3e>
10002f68:	2846      	cmp	r0, #70	@ 0x46
10002f6a:	9c0b      	ldr	r4, [sp, #44]	@ 0x2c
10002f6c:	bf08      	it	eq
10002f6e:	f043 0320 	orreq.w	r3, r3, #32
10002f72:	9304      	str	r3, [sp, #16]
10002f74:	9b0c      	ldr	r3, [sp, #48]	@ 0x30
10002f76:	3407      	adds	r4, #7
10002f78:	e9cd 7302 	strd	r7, r3, [sp, #8]
10002f7c:	f024 0307 	bic.w	r3, r4, #7
10002f80:	461c      	mov	r4, r3
10002f82:	e9dd 3109 	ldrd	r3, r1, [sp, #36]	@ 0x24
10002f86:	e8f4 6702 	ldrd	r6, r7, [r4], #8
10002f8a:	464a      	mov	r2, r9
10002f8c:	4658      	mov	r0, fp
10002f8e:	e9cd 6700 	strd	r6, r7, [sp]
10002f92:	940b      	str	r4, [sp, #44]	@ 0x2c
10002f94:	f7ff fc20 	bl	100027d8 <_ftoa>
10002f98:	4681      	mov	r9, r0
10002f9a:	e636      	b.n	10002c0a <_vsnprintf+0x3e>
10002f9c:	464a      	mov	r2, r9
10002f9e:	2025      	movs	r0, #37	@ 0x25
10002fa0:	9b09      	ldr	r3, [sp, #36]	@ 0x24
10002fa2:	990a      	ldr	r1, [sp, #40]	@ 0x28
10002fa4:	f109 0901 	add.w	r9, r9, #1
10002fa8:	47d8      	blx	fp
10002faa:	e62e      	b.n	10002c0a <_vsnprintf+0x3e>
10002fac:	9a0b      	ldr	r2, [sp, #44]	@ 0x2c
10002fae:	079c      	lsls	r4, r3, #30
10002fb0:	f102 0704 	add.w	r7, r2, #4
10002fb4:	f109 0601 	add.w	r6, r9, #1
10002fb8:	f140 80e6 	bpl.w	10003188 <_vsnprintf+0x5bc>
10002fbc:	7810      	ldrb	r0, [r2, #0]
10002fbe:	9b09      	ldr	r3, [sp, #36]	@ 0x24
10002fc0:	464a      	mov	r2, r9
10002fc2:	990a      	ldr	r1, [sp, #40]	@ 0x28
10002fc4:	47d8      	blx	fp
10002fc6:	9b0c      	ldr	r3, [sp, #48]	@ 0x30
10002fc8:	2b01      	cmp	r3, #1
10002fca:	f240 812c 	bls.w	10003226 <_vsnprintf+0x65a>
10002fce:	e9dd 5409 	ldrd	r5, r4, [sp, #36]	@ 0x24
10002fd2:	4499      	add	r9, r3
10002fd4:	4632      	mov	r2, r6
10002fd6:	462b      	mov	r3, r5
10002fd8:	4621      	mov	r1, r4
10002fda:	2020      	movs	r0, #32
10002fdc:	3601      	adds	r6, #1
10002fde:	47d8      	blx	fp
10002fe0:	454e      	cmp	r6, r9
10002fe2:	d1f7      	bne.n	10002fd4 <_vsnprintf+0x408>
10002fe4:	970b      	str	r7, [sp, #44]	@ 0x2c
10002fe6:	e610      	b.n	10002c0a <_vsnprintf+0x3e>
10002fe8:	286f      	cmp	r0, #111	@ 0x6f
10002fea:	f000 808b 	beq.w	10003104 <_vsnprintf+0x538>
10002fee:	f240 8165 	bls.w	100032bc <_vsnprintf+0x6f0>
10002ff2:	2878      	cmp	r0, #120	@ 0x78
10002ff4:	f000 8108 	beq.w	10003208 <_vsnprintf+0x63c>
10002ff8:	f04f 080a 	mov.w	r8, #10
10002ffc:	f023 0310 	bic.w	r3, r3, #16
10003000:	46c4      	mov	ip, r8
10003002:	e047      	b.n	10003094 <_vsnprintf+0x4c8>
10003004:	2700      	movs	r7, #0
10003006:	eb07 0787 	add.w	r7, r7, r7, lsl #2
1000300a:	eb00 0047 	add.w	r0, r0, r7, lsl #1
1000300e:	f1a0 0730 	sub.w	r7, r0, #48	@ 0x30
10003012:	f811 0f01 	ldrb.w	r0, [r1, #1]!
10003016:	f1a0 0230 	sub.w	r2, r0, #48	@ 0x30
1000301a:	2a09      	cmp	r2, #9
1000301c:	d9f3      	bls.n	10003006 <_vsnprintf+0x43a>
1000301e:	468a      	mov	sl, r1
10003020:	1c4a      	adds	r2, r1, #1
10003022:	e61c      	b.n	10002c5e <_vsnprintf+0x92>
10003024:	9c0b      	ldr	r4, [sp, #44]	@ 0x2c
10003026:	f89a 0002 	ldrb.w	r0, [sl, #2]
1000302a:	f854 7b04 	ldr.w	r7, [r4], #4
1000302e:	f10a 0a02 	add.w	sl, sl, #2
10003032:	f10a 0201 	add.w	r2, sl, #1
10003036:	940b      	str	r4, [sp, #44]	@ 0x2c
10003038:	ea27 77e7 	bic.w	r7, r7, r7, asr #31
1000303c:	e60f      	b.n	10002c5e <_vsnprintf+0x92>
1000303e:	2a00      	cmp	r2, #0
10003040:	f43f af2c 	beq.w	10002e9c <_vsnprintf+0x2d0>
10003044:	f107 3cff 	add.w	ip, r7, #4294967295	@ 0xffffffff
10003048:	e71b      	b.n	10002e82 <_vsnprintf+0x2b6>
1000304a:	f023 0110 	bic.w	r1, r3, #16
1000304e:	f413 6280 	ands.w	r2, r3, #1024	@ 0x400
10003052:	f041 0121 	orr.w	r1, r1, #33	@ 0x21
10003056:	f43f aed2 	beq.w	10002dfe <_vsnprintf+0x232>
1000305a:	f10d 0e48 	add.w	lr, sp, #72	@ 0x48
1000305e:	2308      	movs	r3, #8
10003060:	2010      	movs	r0, #16
10003062:	9305      	str	r3, [sp, #20]
10003064:	2300      	movs	r3, #0
10003066:	464a      	mov	r2, r9
10003068:	e9cd 3002 	strd	r3, r0, [sp, #8]
1000306c:	9106      	str	r1, [sp, #24]
1000306e:	4658      	mov	r0, fp
10003070:	e9dd 3109 	ldrd	r3, r1, [sp, #36]	@ 0x24
10003074:	e9cd e600 	strd	lr, r6, [sp]
10003078:	9704      	str	r7, [sp, #16]
1000307a:	f7ff f81f 	bl	100020bc <_ntoa_format>
1000307e:	940b      	str	r4, [sp, #44]	@ 0x2c
10003080:	4681      	mov	r9, r0
10003082:	e5c2      	b.n	10002c0a <_vsnprintf+0x3e>
10003084:	2858      	cmp	r0, #88	@ 0x58
10003086:	d079      	beq.n	1000317c <_vsnprintf+0x5b0>
10003088:	2862      	cmp	r0, #98	@ 0x62
1000308a:	f040 8251 	bne.w	10003530 <_vsnprintf+0x964>
1000308e:	f04f 0802 	mov.w	r8, #2
10003092:	46c4      	mov	ip, r8
10003094:	f413 6080 	ands.w	r0, r3, #1024	@ 0x400
10003098:	d16d      	bne.n	10003176 <_vsnprintf+0x5aa>
1000309a:	f023 030c 	bic.w	r3, r3, #12
1000309e:	f413 7200 	ands.w	r2, r3, #512	@ 0x200
100030a2:	f040 80c2 	bne.w	1000322a <_vsnprintf+0x65e>
100030a6:	990b      	ldr	r1, [sp, #44]	@ 0x2c
100030a8:	3104      	adds	r1, #4
100030aa:	910d      	str	r1, [sp, #52]	@ 0x34
100030ac:	f413 7180 	ands.w	r1, r3, #256	@ 0x100
100030b0:	f040 822e 	bne.w	10003510 <_vsnprintf+0x944>
100030b4:	065e      	lsls	r6, r3, #25
100030b6:	9a0b      	ldr	r2, [sp, #44]	@ 0x2c
100030b8:	f140 80aa 	bpl.w	10003210 <_vsnprintf+0x644>
100030bc:	7812      	ldrb	r2, [r2, #0]
100030be:	2a00      	cmp	r2, #0
100030c0:	f040 80da 	bne.w	10003278 <_vsnprintf+0x6ac>
100030c4:	f023 0310 	bic.w	r3, r3, #16
100030c8:	2800      	cmp	r0, #0
100030ca:	f000 80d5 	beq.w	10003278 <_vsnprintf+0x6ac>
100030ce:	4611      	mov	r1, r2
100030d0:	f10d 0e48 	add.w	lr, sp, #72	@ 0x48
100030d4:	9306      	str	r3, [sp, #24]
100030d6:	9b0c      	ldr	r3, [sp, #48]	@ 0x30
100030d8:	f8cd c00c 	str.w	ip, [sp, #12]
100030dc:	e9cd 7304 	strd	r7, r3, [sp, #16]
100030e0:	9101      	str	r1, [sp, #4]
100030e2:	2300      	movs	r3, #0
100030e4:	464a      	mov	r2, r9
100030e6:	9302      	str	r3, [sp, #8]
100030e8:	4658      	mov	r0, fp
100030ea:	e9dd 3109 	ldrd	r3, r1, [sp, #36]	@ 0x24
100030ee:	f8cd e000 	str.w	lr, [sp]
100030f2:	f7fe ffe3 	bl	100020bc <_ntoa_format>
100030f6:	9b0d      	ldr	r3, [sp, #52]	@ 0x34
100030f8:	4681      	mov	r9, r0
100030fa:	930b      	str	r3, [sp, #44]	@ 0x2c
100030fc:	e585      	b.n	10002c0a <_vsnprintf+0x3e>
100030fe:	f443 6300 	orr.w	r3, r3, #2048	@ 0x800
10003102:	e71b      	b.n	10002f3c <_vsnprintf+0x370>
10003104:	f04f 0808 	mov.w	r8, #8
10003108:	46c4      	mov	ip, r8
1000310a:	e7c3      	b.n	10003094 <_vsnprintf+0x4c8>
1000310c:	9b0c      	ldr	r3, [sp, #48]	@ 0x30
1000310e:	464c      	mov	r4, r9
10003110:	42b3      	cmp	r3, r6
10003112:	f67f aeed 	bls.w	10002ef0 <_vsnprintf+0x324>
10003116:	460f      	mov	r7, r1
10003118:	444b      	add	r3, r9
1000311a:	eba3 0906 	sub.w	r9, r3, r6
1000311e:	e9dd 6509 	ldrd	r6, r5, [sp, #36]	@ 0x24
10003122:	4622      	mov	r2, r4
10003124:	4633      	mov	r3, r6
10003126:	4629      	mov	r1, r5
10003128:	2020      	movs	r0, #32
1000312a:	3401      	adds	r4, #1
1000312c:	47d8      	blx	fp
1000312e:	454c      	cmp	r4, r9
10003130:	d1f7      	bne.n	10003122 <_vsnprintf+0x556>
10003132:	4639      	mov	r1, r7
10003134:	e6dc      	b.n	10002ef0 <_vsnprintf+0x324>
10003136:	f443 6300 	orr.w	r3, r3, #2048	@ 0x800
1000313a:	f043 0320 	orr.w	r3, r3, #32
1000313e:	e6fd      	b.n	10002f3c <_vsnprintf+0x370>
10003140:	460f      	mov	r7, r1
10003142:	940b      	str	r4, [sp, #44]	@ 0x2c
10003144:	e9dd 5409 	ldrd	r5, r4, [sp, #36]	@ 0x24
10003148:	464a      	mov	r2, r9
1000314a:	462b      	mov	r3, r5
1000314c:	4621      	mov	r1, r4
1000314e:	47d8      	blx	fp
10003150:	f818 0f01 	ldrb.w	r0, [r8, #1]!
10003154:	f109 0901 	add.w	r9, r9, #1
10003158:	2800      	cmp	r0, #0
1000315a:	d1f5      	bne.n	10003148 <_vsnprintf+0x57c>
1000315c:	4639      	mov	r1, r7
1000315e:	9c0b      	ldr	r4, [sp, #44]	@ 0x2c
10003160:	e6c3      	b.n	10002eea <_vsnprintf+0x31e>
10003162:	f89a 0002 	ldrb.w	r0, [sl, #2]
10003166:	f043 03c0 	orr.w	r3, r3, #192	@ 0xc0
1000316a:	f10a 0203 	add.w	r2, sl, #3
1000316e:	e5a8      	b.n	10002cc2 <_vsnprintf+0xf6>
10003170:	4604      	mov	r4, r0
10003172:	4681      	mov	r9, r0
10003174:	e61d      	b.n	10002db2 <_vsnprintf+0x1e6>
10003176:	f023 030d 	bic.w	r3, r3, #13
1000317a:	e790      	b.n	1000309e <_vsnprintf+0x4d2>
1000317c:	f04f 0810 	mov.w	r8, #16
10003180:	f043 0320 	orr.w	r3, r3, #32
10003184:	46c4      	mov	ip, r8
10003186:	e785      	b.n	10003094 <_vsnprintf+0x4c8>
10003188:	9b0c      	ldr	r3, [sp, #48]	@ 0x30
1000318a:	2b01      	cmp	r3, #1
1000318c:	d945      	bls.n	1000321a <_vsnprintf+0x64e>
1000318e:	e9dd 5409 	ldrd	r5, r4, [sp, #36]	@ 0x24
10003192:	464e      	mov	r6, r9
10003194:	f109 38ff 	add.w	r8, r9, #4294967295	@ 0xffffffff
10003198:	4498      	add	r8, r3
1000319a:	4632      	mov	r2, r6
1000319c:	462b      	mov	r3, r5
1000319e:	4621      	mov	r1, r4
100031a0:	2020      	movs	r0, #32
100031a2:	3601      	adds	r6, #1
100031a4:	47d8      	blx	fp
100031a6:	4546      	cmp	r6, r8
100031a8:	d1f7      	bne.n	1000319a <_vsnprintf+0x5ce>
100031aa:	9b0c      	ldr	r3, [sp, #48]	@ 0x30
100031ac:	4632      	mov	r2, r6
100031ae:	4499      	add	r9, r3
100031b0:	9b0b      	ldr	r3, [sp, #44]	@ 0x2c
100031b2:	7818      	ldrb	r0, [r3, #0]
100031b4:	e9dd 3109 	ldrd	r3, r1, [sp, #36]	@ 0x24
100031b8:	47d8      	blx	fp
100031ba:	970b      	str	r7, [sp, #44]	@ 0x2c
100031bc:	e525      	b.n	10002c0a <_vsnprintf+0x3e>
100031be:	9b0c      	ldr	r3, [sp, #48]	@ 0x30
100031c0:	42b3      	cmp	r3, r6
100031c2:	f240 81ee 	bls.w	100035a2 <_vsnprintf+0x9d6>
100031c6:	e9cd 480d 	strd	r4, r8, [sp, #52]	@ 0x34
100031ca:	e9dd 5409 	ldrd	r5, r4, [sp, #36]	@ 0x24
100031ce:	4688      	mov	r8, r1
100031d0:	444b      	add	r3, r9
100031d2:	1b9e      	subs	r6, r3, r6
100031d4:	f8cd c02c 	str.w	ip, [sp, #44]	@ 0x2c
100031d8:	464a      	mov	r2, r9
100031da:	462b      	mov	r3, r5
100031dc:	4621      	mov	r1, r4
100031de:	2020      	movs	r0, #32
100031e0:	f109 0901 	add.w	r9, r9, #1
100031e4:	47d8      	blx	fp
100031e6:	45b1      	cmp	r9, r6
100031e8:	d1f6      	bne.n	100031d8 <_vsnprintf+0x60c>
100031ea:	4641      	mov	r1, r8
100031ec:	f8dd 8038 	ldr.w	r8, [sp, #56]	@ 0x38
100031f0:	9b0c      	ldr	r3, [sp, #48]	@ 0x30
100031f2:	f8dd c02c 	ldr.w	ip, [sp, #44]	@ 0x2c
100031f6:	9c0d      	ldr	r4, [sp, #52]	@ 0x34
100031f8:	f898 2000 	ldrb.w	r2, [r8]
100031fc:	1c5e      	adds	r6, r3, #1
100031fe:	4610      	mov	r0, r2
10003200:	2a00      	cmp	r2, #0
10003202:	f47f ae58 	bne.w	10002eb6 <_vsnprintf+0x2ea>
10003206:	e673      	b.n	10002ef0 <_vsnprintf+0x324>
10003208:	f04f 0810 	mov.w	r8, #16
1000320c:	46c4      	mov	ip, r8
1000320e:	e741      	b.n	10003094 <_vsnprintf+0x4c8>
10003210:	061d      	lsls	r5, r3, #24
10003212:	bf4c      	ite	mi
10003214:	8812      	ldrhmi	r2, [r2, #0]
10003216:	6812      	ldrpl	r2, [r2, #0]
10003218:	e751      	b.n	100030be <_vsnprintf+0x4f2>
1000321a:	4613      	mov	r3, r2
1000321c:	464a      	mov	r2, r9
1000321e:	7818      	ldrb	r0, [r3, #0]
10003220:	e9dd 3109 	ldrd	r3, r1, [sp, #36]	@ 0x24
10003224:	47d8      	blx	fp
10003226:	46b1      	mov	r9, r6
10003228:	e6dc      	b.n	10002fe4 <_vsnprintf+0x418>
1000322a:	9c0b      	ldr	r4, [sp, #44]	@ 0x2c
1000322c:	3407      	adds	r4, #7
1000322e:	f024 0407 	bic.w	r4, r4, #7
10003232:	4622      	mov	r2, r4
10003234:	6865      	ldr	r5, [r4, #4]
10003236:	f852 4b08 	ldr.w	r4, [r2], #8
1000323a:	920b      	str	r2, [sp, #44]	@ 0x2c
1000323c:	ea54 0205 	orrs.w	r2, r4, r5
10003240:	f040 812c 	bne.w	1000349c <_vsnprintf+0x8d0>
10003244:	f023 0310 	bic.w	r3, r3, #16
10003248:	2800      	cmp	r0, #0
1000324a:	f000 8127 	beq.w	1000349c <_vsnprintf+0x8d0>
1000324e:	2600      	movs	r6, #0
10003250:	f10d 0e48 	add.w	lr, sp, #72	@ 0x48
10003254:	9306      	str	r3, [sp, #24]
10003256:	9b0c      	ldr	r3, [sp, #48]	@ 0x30
10003258:	464a      	mov	r2, r9
1000325a:	e9cd 7304 	strd	r7, r3, [sp, #16]
1000325e:	2300      	movs	r3, #0
10003260:	e9cd e600 	strd	lr, r6, [sp]
10003264:	f8cd c00c 	str.w	ip, [sp, #12]
10003268:	9302      	str	r3, [sp, #8]
1000326a:	4658      	mov	r0, fp
1000326c:	e9dd 3109 	ldrd	r3, r1, [sp, #36]	@ 0x24
10003270:	f7fe ff24 	bl	100020bc <_ntoa_format>
10003274:	4681      	mov	r9, r0
10003276:	e4c8      	b.n	10002c0a <_vsnprintf+0x3e>
10003278:	f013 0f20 	tst.w	r3, #32
1000327c:	bf14      	ite	ne
1000327e:	2041      	movne	r0, #65	@ 0x41
10003280:	2061      	moveq	r0, #97	@ 0x61
10003282:	f10d 0e48 	add.w	lr, sp, #72	@ 0x48
10003286:	4676      	mov	r6, lr
10003288:	f1a0 080a 	sub.w	r8, r0, #10
1000328c:	e003      	b.n	10003296 <_vsnprintf+0x6ca>
1000328e:	2920      	cmp	r1, #32
10003290:	f43f af20 	beq.w	100030d4 <_vsnprintf+0x508>
10003294:	4622      	mov	r2, r4
10003296:	fbb2 f4fc 	udiv	r4, r2, ip
1000329a:	fb0c 2514 	mls	r5, ip, r4, r2
1000329e:	b2e8      	uxtb	r0, r5
100032a0:	2d09      	cmp	r5, #9
100032a2:	f100 0530 	add.w	r5, r0, #48	@ 0x30
100032a6:	bf8a      	itet	hi
100032a8:	4440      	addhi	r0, r8
100032aa:	b2e8      	uxtbls	r0, r5
100032ac:	b2c0      	uxtbhi	r0, r0
100032ae:	4562      	cmp	r2, ip
100032b0:	f806 0b01 	strb.w	r0, [r6], #1
100032b4:	f101 0101 	add.w	r1, r1, #1
100032b8:	d2e9      	bcs.n	1000328e <_vsnprintf+0x6c2>
100032ba:	e70b      	b.n	100030d4 <_vsnprintf+0x508>
100032bc:	f023 0210 	bic.w	r2, r3, #16
100032c0:	2869      	cmp	r0, #105	@ 0x69
100032c2:	920d      	str	r2, [sp, #52]	@ 0x34
100032c4:	f040 816f 	bne.w	100035a6 <_vsnprintf+0x9da>
100032c8:	f413 6280 	ands.w	r2, r3, #1024	@ 0x400
100032cc:	d004      	beq.n	100032d8 <_vsnprintf+0x70c>
100032ce:	f44f 6280 	mov.w	r2, #1024	@ 0x400
100032d2:	f023 0311 	bic.w	r3, r3, #17
100032d6:	930d      	str	r3, [sp, #52]	@ 0x34
100032d8:	9b0d      	ldr	r3, [sp, #52]	@ 0x34
100032da:	f413 7600 	ands.w	r6, r3, #512	@ 0x200
100032de:	d140      	bne.n	10003362 <_vsnprintf+0x796>
100032e0:	9b0b      	ldr	r3, [sp, #44]	@ 0x2c
100032e2:	f103 0804 	add.w	r8, r3, #4
100032e6:	9b0d      	ldr	r3, [sp, #52]	@ 0x34
100032e8:	f413 7080 	ands.w	r0, r3, #256	@ 0x100
100032ec:	f040 8098 	bne.w	10003420 <_vsnprintf+0x854>
100032f0:	0659      	lsls	r1, r3, #25
100032f2:	f140 80c6 	bpl.w	10003482 <_vsnprintf+0x8b6>
100032f6:	9b0b      	ldr	r3, [sp, #44]	@ 0x2c
100032f8:	7819      	ldrb	r1, [r3, #0]
100032fa:	460c      	mov	r4, r1
100032fc:	0fcb      	lsrs	r3, r1, #31
100032fe:	2900      	cmp	r1, #0
10003300:	f000 80b9 	beq.w	10003476 <_vsnprintf+0x8aa>
10003304:	4622      	mov	r2, r4
10003306:	f10d 0e48 	add.w	lr, sp, #72	@ 0x48
1000330a:	4674      	mov	r4, lr
1000330c:	4616      	mov	r6, r2
1000330e:	f8df c2a0 	ldr.w	ip, [pc, #672]	@ 100035b0 <_vsnprintf+0x9e4>
10003312:	e001      	b.n	10003318 <_vsnprintf+0x74c>
10003314:	2820      	cmp	r0, #32
10003316:	d00f      	beq.n	10003338 <_vsnprintf+0x76c>
10003318:	4635      	mov	r5, r6
1000331a:	fbac 2106 	umull	r2, r1, ip, r6
1000331e:	08c9      	lsrs	r1, r1, #3
10003320:	eb01 0281 	add.w	r2, r1, r1, lsl #2
10003324:	eba6 0242 	sub.w	r2, r6, r2, lsl #1
10003328:	3230      	adds	r2, #48	@ 0x30
1000332a:	2d09      	cmp	r5, #9
1000332c:	460e      	mov	r6, r1
1000332e:	f100 0001 	add.w	r0, r0, #1
10003332:	f804 2b01 	strb.w	r2, [r4], #1
10003336:	d8ed      	bhi.n	10003314 <_vsnprintf+0x748>
10003338:	9a0d      	ldr	r2, [sp, #52]	@ 0x34
1000333a:	e9cd 0301 	strd	r0, r3, [sp, #4]
1000333e:	9206      	str	r2, [sp, #24]
10003340:	9a0c      	ldr	r2, [sp, #48]	@ 0x30
10003342:	e9cd 7204 	strd	r7, r2, [sp, #16]
10003346:	230a      	movs	r3, #10
10003348:	464a      	mov	r2, r9
1000334a:	9303      	str	r3, [sp, #12]
1000334c:	4658      	mov	r0, fp
1000334e:	e9dd 3109 	ldrd	r3, r1, [sp, #36]	@ 0x24
10003352:	f8cd e000 	str.w	lr, [sp]
10003356:	f7fe feb1 	bl	100020bc <_ntoa_format>
1000335a:	f8cd 802c 	str.w	r8, [sp, #44]	@ 0x2c
1000335e:	4681      	mov	r9, r0
10003360:	e453      	b.n	10002c0a <_vsnprintf+0x3e>
10003362:	9c0b      	ldr	r4, [sp, #44]	@ 0x2c
10003364:	3407      	adds	r4, #7
10003366:	f024 0407 	bic.w	r4, r4, #7
1000336a:	4621      	mov	r1, r4
1000336c:	4608      	mov	r0, r1
1000336e:	6863      	ldr	r3, [r4, #4]
10003370:	f850 1b08 	ldr.w	r1, [r0], #8
10003374:	0fdc      	lsrs	r4, r3, #31
10003376:	900b      	str	r0, [sp, #44]	@ 0x2c
10003378:	ea51 0003 	orrs.w	r0, r1, r3
1000337c:	f000 80c3 	beq.w	10003506 <_vsnprintf+0x93a>
10003380:	460a      	mov	r2, r1
10003382:	1e19      	subs	r1, r3, #0
10003384:	db48      	blt.n	10003418 <_vsnprintf+0x84c>
10003386:	4613      	mov	r3, r2
10003388:	f10d 0e48 	add.w	lr, sp, #72	@ 0x48
1000338c:	46f4      	mov	ip, lr
1000338e:	2600      	movs	r6, #0
10003390:	e9cd 940e 	strd	r9, r4, [sp, #56]	@ 0x38
10003394:	f8df 8218 	ldr.w	r8, [pc, #536]	@ 100035b0 <_vsnprintf+0x9e4>
10003398:	e001      	b.n	1000339e <_vsnprintf+0x7d2>
1000339a:	2e20      	cmp	r6, #32
1000339c:	d02d      	beq.n	100033fa <_vsnprintf+0x82e>
1000339e:	185a      	adds	r2, r3, r1
100033a0:	f142 0200 	adc.w	r2, r2, #0
100033a4:	fba8 5902 	umull	r5, r9, r8, r2
100033a8:	f029 0503 	bic.w	r5, r9, #3
100033ac:	eb05 0599 	add.w	r5, r5, r9, lsr #2
100033b0:	1b52      	subs	r2, r2, r5
100033b2:	461c      	mov	r4, r3
100033b4:	1a9b      	subs	r3, r3, r2
100033b6:	f161 0500 	sbc.w	r5, r1, #0
100033ba:	4608      	mov	r0, r1
100033bc:	f04f 31cc 	mov.w	r1, #3435973836	@ 0xcccccccc
100033c0:	fb01 f103 	mul.w	r1, r1, r3
100033c4:	fb08 1105 	mla	r1, r8, r5, r1
100033c8:	fba3 5308 	umull	r5, r3, r3, r8
100033cc:	4419      	add	r1, r3
100033ce:	2305      	movs	r3, #5
100033d0:	f005 0901 	and.w	r9, r5, #1
100033d4:	fba9 3903 	umull	r3, r9, r9, r3
100033d8:	189b      	adds	r3, r3, r2
100033da:	2c0a      	cmp	r4, #10
100033dc:	f103 0330 	add.w	r3, r3, #48	@ 0x30
100033e0:	ea4f 0555 	mov.w	r5, r5, lsr #1
100033e4:	f170 0000 	sbcs.w	r0, r0, #0
100033e8:	f80c 3b01 	strb.w	r3, [ip], #1
100033ec:	f106 0601 	add.w	r6, r6, #1
100033f0:	ea45 73c1 	orr.w	r3, r5, r1, lsl #31
100033f4:	ea4f 0151 	mov.w	r1, r1, lsr #1
100033f8:	d2cf      	bcs.n	1000339a <_vsnprintf+0x7ce>
100033fa:	e9dd 940e 	ldrd	r9, r4, [sp, #56]	@ 0x38
100033fe:	9b0d      	ldr	r3, [sp, #52]	@ 0x34
10003400:	464a      	mov	r2, r9
10003402:	9306      	str	r3, [sp, #24]
10003404:	9b0c      	ldr	r3, [sp, #48]	@ 0x30
10003406:	e9cd 6401 	strd	r6, r4, [sp, #4]
1000340a:	e9cd 7304 	strd	r7, r3, [sp, #16]
1000340e:	230a      	movs	r3, #10
10003410:	f8cd e000 	str.w	lr, [sp]
10003414:	9303      	str	r3, [sp, #12]
10003416:	e728      	b.n	1000326a <_vsnprintf+0x69e>
10003418:	4252      	negs	r2, r2
1000341a:	eb61 0141 	sbc.w	r1, r1, r1, lsl #1
1000341e:	e7b2      	b.n	10003386 <_vsnprintf+0x7ba>
10003420:	9b0b      	ldr	r3, [sp, #44]	@ 0x2c
10003422:	6819      	ldr	r1, [r3, #0]
10003424:	0fcb      	lsrs	r3, r1, #31
10003426:	2900      	cmp	r1, #0
10003428:	f000 80ab 	beq.w	10003582 <_vsnprintf+0x9b6>
1000342c:	ea81 72e1 	eor.w	r2, r1, r1, asr #31
10003430:	eba2 72e1 	sub.w	r2, r2, r1, asr #31
10003434:	f10d 0e48 	add.w	lr, sp, #72	@ 0x48
10003438:	4670      	mov	r0, lr
1000343a:	f8df c174 	ldr.w	ip, [pc, #372]	@ 100035b0 <_vsnprintf+0x9e4>
1000343e:	e001      	b.n	10003444 <_vsnprintf+0x878>
10003440:	2e20      	cmp	r6, #32
10003442:	d010      	beq.n	10003466 <_vsnprintf+0x89a>
10003444:	4615      	mov	r5, r2
10003446:	fbac 4102 	umull	r4, r1, ip, r2
1000344a:	08c9      	lsrs	r1, r1, #3
1000344c:	eb01 0481 	add.w	r4, r1, r1, lsl #2
10003450:	eba2 0444 	sub.w	r4, r2, r4, lsl #1
10003454:	f104 0230 	add.w	r2, r4, #48	@ 0x30
10003458:	2d09      	cmp	r5, #9
1000345a:	f800 2b01 	strb.w	r2, [r0], #1
1000345e:	f106 0601 	add.w	r6, r6, #1
10003462:	460a      	mov	r2, r1
10003464:	d8ec      	bhi.n	10003440 <_vsnprintf+0x874>
10003466:	9a0d      	ldr	r2, [sp, #52]	@ 0x34
10003468:	e9cd 6301 	strd	r6, r3, [sp, #4]
1000346c:	9206      	str	r2, [sp, #24]
1000346e:	9a0c      	ldr	r2, [sp, #48]	@ 0x30
10003470:	e9cd 7204 	strd	r7, r2, [sp, #16]
10003474:	e767      	b.n	10003346 <_vsnprintf+0x77a>
10003476:	2a00      	cmp	r2, #0
10003478:	f43f af45 	beq.w	10003306 <_vsnprintf+0x73a>
1000347c:	f10d 0e48 	add.w	lr, sp, #72	@ 0x48
10003480:	e75a      	b.n	10003338 <_vsnprintf+0x76c>
10003482:	f013 0f80 	tst.w	r3, #128	@ 0x80
10003486:	9b0b      	ldr	r3, [sp, #44]	@ 0x2c
10003488:	f000 8081 	beq.w	1000358e <_vsnprintf+0x9c2>
1000348c:	f9b3 1000 	ldrsh.w	r1, [r3]
10003490:	ea81 74e1 	eor.w	r4, r1, r1, asr #31
10003494:	eba4 74e1 	sub.w	r4, r4, r1, asr #31
10003498:	b2a4      	uxth	r4, r4
1000349a:	e72f      	b.n	100032fc <_vsnprintf+0x730>
1000349c:	f013 0f20 	tst.w	r3, #32
100034a0:	bf14      	ite	ne
100034a2:	2241      	movne	r2, #65	@ 0x41
100034a4:	2261      	moveq	r2, #97	@ 0x61
100034a6:	f10d 0e48 	add.w	lr, sp, #72	@ 0x48
100034aa:	3a0a      	subs	r2, #10
100034ac:	e9cd 970d 	strd	r9, r7, [sp, #52]	@ 0x34
100034b0:	f8cd b044 	str.w	fp, [sp, #68]	@ 0x44
100034b4:	2600      	movs	r6, #0
100034b6:	4677      	mov	r7, lr
100034b8:	46f3      	mov	fp, lr
100034ba:	4691      	mov	r9, r2
100034bc:	e9cd 3c0f 	strd	r3, ip, [sp, #60]	@ 0x3c
100034c0:	e003      	b.n	100034ca <_vsnprintf+0x8fe>
100034c2:	2e20      	cmp	r6, #32
100034c4:	d017      	beq.n	100034f6 <_vsnprintf+0x92a>
100034c6:	4604      	mov	r4, r0
100034c8:	460d      	mov	r5, r1
100034ca:	4629      	mov	r1, r5
100034cc:	4642      	mov	r2, r8
100034ce:	2300      	movs	r3, #0
100034d0:	4620      	mov	r0, r4
100034d2:	f00f facd 	bl	10012a70 <____aeabi_uldivmod_veneer>
100034d6:	b2d2      	uxtb	r2, r2
100034d8:	2a09      	cmp	r2, #9
100034da:	f102 0330 	add.w	r3, r2, #48	@ 0x30
100034de:	bf88      	it	hi
100034e0:	eb02 0309 	addhi.w	r3, r2, r9
100034e4:	4544      	cmp	r4, r8
100034e6:	b2db      	uxtb	r3, r3
100034e8:	f175 0500 	sbcs.w	r5, r5, #0
100034ec:	f807 3b01 	strb.w	r3, [r7], #1
100034f0:	f106 0601 	add.w	r6, r6, #1
100034f4:	d2e5      	bcs.n	100034c2 <_vsnprintf+0x8f6>
100034f6:	46de      	mov	lr, fp
100034f8:	e9dd 970d 	ldrd	r9, r7, [sp, #52]	@ 0x34
100034fc:	e9dd 3c0f 	ldrd	r3, ip, [sp, #60]	@ 0x3c
10003500:	f8dd b044 	ldr.w	fp, [sp, #68]	@ 0x44
10003504:	e6a6      	b.n	10003254 <_vsnprintf+0x688>
10003506:	2a00      	cmp	r2, #0
10003508:	d147      	bne.n	1000359a <_vsnprintf+0x9ce>
1000350a:	4613      	mov	r3, r2
1000350c:	4611      	mov	r1, r2
1000350e:	e73b      	b.n	10003388 <_vsnprintf+0x7bc>
10003510:	990b      	ldr	r1, [sp, #44]	@ 0x2c
10003512:	6809      	ldr	r1, [r1, #0]
10003514:	b9a1      	cbnz	r1, 10003540 <_vsnprintf+0x974>
10003516:	f023 0310 	bic.w	r3, r3, #16
1000351a:	b188      	cbz	r0, 10003540 <_vsnprintf+0x974>
1000351c:	f10d 0e48 	add.w	lr, sp, #72	@ 0x48
10003520:	9306      	str	r3, [sp, #24]
10003522:	9b0c      	ldr	r3, [sp, #48]	@ 0x30
10003524:	f8cd c00c 	str.w	ip, [sp, #12]
10003528:	e9cd 7304 	strd	r7, r3, [sp, #16]
1000352c:	9201      	str	r2, [sp, #4]
1000352e:	e5d8      	b.n	100030e2 <_vsnprintf+0x516>
10003530:	f413 6280 	ands.w	r2, r3, #1024	@ 0x400
10003534:	f47f aecb 	bne.w	100032ce <_vsnprintf+0x702>
10003538:	f023 0310 	bic.w	r3, r3, #16
1000353c:	930d      	str	r3, [sp, #52]	@ 0x34
1000353e:	e6cb      	b.n	100032d8 <_vsnprintf+0x70c>
10003540:	f013 0f20 	tst.w	r3, #32
10003544:	bf14      	ite	ne
10003546:	2041      	movne	r0, #65	@ 0x41
10003548:	2061      	moveq	r0, #97	@ 0x61
1000354a:	f10d 0e48 	add.w	lr, sp, #72	@ 0x48
1000354e:	4676      	mov	r6, lr
10003550:	f1a0 080a 	sub.w	r8, r0, #10
10003554:	e002      	b.n	1000355c <_vsnprintf+0x990>
10003556:	2a20      	cmp	r2, #32
10003558:	d0e2      	beq.n	10003520 <_vsnprintf+0x954>
1000355a:	4621      	mov	r1, r4
1000355c:	fbb1 f4fc 	udiv	r4, r1, ip
10003560:	fb0c 1514 	mls	r5, ip, r4, r1
10003564:	b2e8      	uxtb	r0, r5
10003566:	2d09      	cmp	r5, #9
10003568:	f100 0530 	add.w	r5, r0, #48	@ 0x30
1000356c:	bf8a      	itet	hi
1000356e:	4440      	addhi	r0, r8
10003570:	b2e8      	uxtbls	r0, r5
10003572:	b2c0      	uxtbhi	r0, r0
10003574:	4561      	cmp	r1, ip
10003576:	f806 0b01 	strb.w	r0, [r6], #1
1000357a:	f102 0201 	add.w	r2, r2, #1
1000357e:	d2ea      	bcs.n	10003556 <_vsnprintf+0x98a>
10003580:	e7ce      	b.n	10003520 <_vsnprintf+0x954>
10003582:	2a00      	cmp	r2, #0
10003584:	f43f af56 	beq.w	10003434 <_vsnprintf+0x868>
10003588:	f10d 0e48 	add.w	lr, sp, #72	@ 0x48
1000358c:	e76b      	b.n	10003466 <_vsnprintf+0x89a>
1000358e:	6819      	ldr	r1, [r3, #0]
10003590:	ea81 74e1 	eor.w	r4, r1, r1, asr #31
10003594:	eba4 74e1 	sub.w	r4, r4, r1, asr #31
10003598:	e6b0      	b.n	100032fc <_vsnprintf+0x730>
1000359a:	2600      	movs	r6, #0
1000359c:	f10d 0e48 	add.w	lr, sp, #72	@ 0x48
100035a0:	e72d      	b.n	100033fe <_vsnprintf+0x832>
100035a2:	3601      	adds	r6, #1
100035a4:	e62b      	b.n	100031fe <_vsnprintf+0x632>
100035a6:	f04f 080a 	mov.w	r8, #10
100035aa:	4613      	mov	r3, r2
100035ac:	46c4      	mov	ip, r8
100035ae:	e571      	b.n	10003094 <_vsnprintf+0x4c8>
100035b0:	cccccccd 	.word	0xcccccccd

100035b4 <__wrap_sprintf>:
100035b4:	b40e      	push	{r1, r2, r3}
100035b6:	b510      	push	{r4, lr}
100035b8:	b085      	sub	sp, #20
100035ba:	ac07      	add	r4, sp, #28
100035bc:	f854 3b04 	ldr.w	r3, [r4], #4
100035c0:	4601      	mov	r1, r0
100035c2:	f04f 32ff 	mov.w	r2, #4294967295	@ 0xffffffff
100035c6:	9400      	str	r4, [sp, #0]
100035c8:	4804      	ldr	r0, [pc, #16]	@ (100035dc <__wrap_sprintf+0x28>)
100035ca:	9403      	str	r4, [sp, #12]
100035cc:	f7ff fafe 	bl	10002bcc <_vsnprintf>
100035d0:	b005      	add	sp, #20
100035d2:	e8bd 4010 	ldmia.w	sp!, {r4, lr}
100035d6:	b003      	add	sp, #12
100035d8:	4770      	bx	lr
100035da:	bf00      	nop
100035dc:	10002015 	.word	0x10002015

100035e0 <vfctprintf>:
100035e0:	b570      	push	{r4, r5, r6, lr}
100035e2:	4694      	mov	ip, r2
100035e4:	461e      	mov	r6, r3
100035e6:	4605      	mov	r5, r0
100035e8:	460c      	mov	r4, r1
100035ea:	b084      	sub	sp, #16
100035ec:	f04f 32ff 	mov.w	r2, #4294967295	@ 0xffffffff
100035f0:	4663      	mov	r3, ip
100035f2:	a902      	add	r1, sp, #8
100035f4:	9600      	str	r6, [sp, #0]
100035f6:	4803      	ldr	r0, [pc, #12]	@ (10003604 <vfctprintf+0x24>)
100035f8:	e9cd 5402 	strd	r5, r4, [sp, #8]
100035fc:	f7ff fae6 	bl	10002bcc <_vsnprintf>
10003600:	b004      	add	sp, #16
10003602:	bd70      	pop	{r4, r5, r6, pc}
10003604:	10002369 	.word	0x10002369

10003608 <weak_raw_vprintf>:
10003608:	b510      	push	{r4, lr}
1000360a:	4b09      	ldr	r3, [pc, #36]	@ (10003630 <weak_raw_vprintf+0x28>)
1000360c:	b084      	sub	sp, #16
1000360e:	681c      	ldr	r4, [r3, #0]
10003610:	b14c      	cbz	r4, 10003626 <weak_raw_vprintf+0x1e>
10003612:	4603      	mov	r3, r0
10003614:	9100      	str	r1, [sp, #0]
10003616:	f04f 32ff 	mov.w	r2, #4294967295	@ 0xffffffff
1000361a:	a903      	add	r1, sp, #12
1000361c:	4805      	ldr	r0, [pc, #20]	@ (10003634 <weak_raw_vprintf+0x2c>)
1000361e:	47a0      	blx	r4
10003620:	2001      	movs	r0, #1
10003622:	b004      	add	sp, #16
10003624:	bd10      	pop	{r4, pc}
10003626:	f000 fa0d 	bl	10003a44 <__wrap_puts>
1000362a:	4620      	mov	r0, r4
1000362c:	b004      	add	sp, #16
1000362e:	bd10      	pop	{r4, pc}
10003630:	2000375c 	.word	0x2000375c
10003634:	10002361 	.word	0x10002361

10003638 <_exit>:
10003638:	be00      	bkpt	0x0000
1000363a:	e7fd      	b.n	10003638 <_exit>

1000363c <_sbrk>:
1000363c:	4a07      	ldr	r2, [pc, #28]	@ (1000365c <_sbrk+0x20>)
1000363e:	4603      	mov	r3, r0
10003640:	6810      	ldr	r0, [r2, #0]
10003642:	b138      	cbz	r0, 10003654 <_sbrk+0x18>
10003644:	4906      	ldr	r1, [pc, #24]	@ (10003660 <_sbrk+0x24>)
10003646:	4403      	add	r3, r0
10003648:	428b      	cmp	r3, r1
1000364a:	bf8c      	ite	hi
1000364c:	f04f 30ff 	movhi.w	r0, #4294967295	@ 0xffffffff
10003650:	6013      	strls	r3, [r2, #0]
10003652:	4770      	bx	lr
10003654:	4903      	ldr	r1, [pc, #12]	@ (10003664 <_sbrk+0x28>)
10003656:	4608      	mov	r0, r1
10003658:	6011      	str	r1, [r2, #0]
1000365a:	e7f3      	b.n	10003644 <_sbrk+0x8>
1000365c:	20003354 	.word	0x20003354
10003660:	20080000 	.word	0x20080000
10003664:	2002516c 	.word	0x2002516c

10003668 <_getpid>:
10003668:	2000      	movs	r0, #0
1000366a:	4770      	bx	lr

1000366c <_kill>:
1000366c:	f04f 30ff 	mov.w	r0, #4294967295	@ 0xffffffff
10003670:	4770      	bx	lr
10003672:	bf00      	nop

10003674 <_read>:
10003674:	4603      	mov	r3, r0
10003676:	4608      	mov	r0, r1
10003678:	4611      	mov	r1, r2
1000367a:	b923      	cbnz	r3, 10003686 <_read+0x12>
1000367c:	4b03      	ldr	r3, [pc, #12]	@ (1000368c <_read+0x18>)
1000367e:	e9d3 2300 	ldrd	r2, r3, [r3]
10003682:	f000 b93f 	b.w	10003904 <stdio_get_until>
10003686:	f04f 30ff 	mov.w	r0, #4294967295	@ 0xffffffff
1000368a:	4770      	bx	lr
1000368c:	10013850 	.word	0x10013850

10003690 <_write>:
10003690:	1e43      	subs	r3, r0, #1
10003692:	2b01      	cmp	r3, #1
10003694:	d809      	bhi.n	100036aa <_write+0x1a>
10003696:	b510      	push	{r4, lr}
10003698:	4614      	mov	r4, r2
1000369a:	4608      	mov	r0, r1
1000369c:	2301      	movs	r3, #1
1000369e:	2200      	movs	r2, #0
100036a0:	4621      	mov	r1, r4
100036a2:	f000 f8b7 	bl	10003814 <stdio_put_string>
100036a6:	4620      	mov	r0, r4
100036a8:	bd10      	pop	{r4, pc}
100036aa:	f04f 30ff 	mov.w	r0, #4294967295	@ 0xffffffff
100036ae:	4770      	bx	lr

100036b0 <_close>:
100036b0:	f04f 30ff 	mov.w	r0, #4294967295	@ 0xffffffff
100036b4:	4770      	bx	lr
100036b6:	bf00      	nop

100036b8 <_lseek>:
100036b8:	f04f 30ff 	mov.w	r0, #4294967295	@ 0xffffffff
100036bc:	4770      	bx	lr
100036be:	bf00      	nop

100036c0 <_fstat>:
100036c0:	f04f 30ff 	mov.w	r0, #4294967295	@ 0xffffffff
100036c4:	4770      	bx	lr
100036c6:	bf00      	nop

100036c8 <_isatty>:
100036c8:	2802      	cmp	r0, #2
100036ca:	bf8c      	ite	hi
100036cc:	2000      	movhi	r0, #0
100036ce:	2001      	movls	r0, #1
100036d0:	4770      	bx	lr
100036d2:	bf00      	nop

100036d4 <exit>:
100036d4:	b508      	push	{r3, lr}
100036d6:	f7ff ffaf 	bl	10003638 <_exit>
100036da:	bf00      	nop

100036dc <runtime_init>:
100036dc:	b538      	push	{r3, r4, r5, lr}
100036de:	4c06      	ldr	r4, [pc, #24]	@ (100036f8 <runtime_init+0x1c>)
100036e0:	4d06      	ldr	r5, [pc, #24]	@ (100036fc <runtime_init+0x20>)
100036e2:	f7fe f9c9 	bl	10001a78 <runtime_run_initializers>
100036e6:	42ac      	cmp	r4, r5
100036e8:	d204      	bcs.n	100036f4 <runtime_init+0x18>
100036ea:	f854 3b04 	ldr.w	r3, [r4], #4
100036ee:	4798      	blx	r3
100036f0:	42ac      	cmp	r4, r5
100036f2:	d3fa      	bcc.n	100036ea <runtime_init+0xe>
100036f4:	bd38      	pop	{r3, r4, r5, pc}
100036f6:	bf00      	nop
100036f8:	10012b18 	.word	0x10012b18
100036fc:	10012b28 	.word	0x10012b28

10003700 <stdio_out_chars_no_crlf>:
10003700:	6803      	ldr	r3, [r0, #0]
10003702:	4608      	mov	r0, r1
10003704:	4611      	mov	r1, r2
10003706:	4718      	bx	r3

10003708 <stdio_out_chars_crlf>:
10003708:	7d43      	ldrb	r3, [r0, #21]
1000370a:	e92d 47f0 	stmdb	sp!, {r4, r5, r6, r7, r8, r9, sl, lr}
1000370e:	4681      	mov	r9, r0
10003710:	460f      	mov	r7, r1
10003712:	4616      	mov	r6, r2
10003714:	2b00      	cmp	r3, #0
10003716:	d043      	beq.n	100037a0 <stdio_out_chars_crlf+0x98>
10003718:	2a00      	cmp	r2, #0
1000371a:	dd3b      	ble.n	10003794 <stdio_out_chars_crlf+0x8c>
1000371c:	7d03      	ldrb	r3, [r0, #20]
1000371e:	2000      	movs	r0, #0
10003720:	1e4d      	subs	r5, r1, #1
10003722:	4601      	mov	r1, r0
10003724:	f815 2f01 	ldrb.w	r2, [r5, #1]!
10003728:	f8df 8084 	ldr.w	r8, [pc, #132]	@ 100037b0 <stdio_out_chars_crlf+0xa8>
1000372c:	2a0a      	cmp	r2, #10
1000372e:	f101 0401 	add.w	r4, r1, #1
10003732:	d00e      	beq.n	10003752 <stdio_out_chars_crlf+0x4a>
10003734:	42a6      	cmp	r6, r4
10003736:	d01c      	beq.n	10003772 <stdio_out_chars_crlf+0x6a>
10003738:	782b      	ldrb	r3, [r5, #0]
1000373a:	4621      	mov	r1, r4
1000373c:	f1a3 030d 	sub.w	r3, r3, #13
10003740:	fab3 f383 	clz	r3, r3
10003744:	f815 2f01 	ldrb.w	r2, [r5, #1]!
10003748:	095b      	lsrs	r3, r3, #5
1000374a:	2a0a      	cmp	r2, #10
1000374c:	f101 0401 	add.w	r4, r1, #1
10003750:	d1f0      	bne.n	10003734 <stdio_out_chars_crlf+0x2c>
10003752:	2b00      	cmp	r3, #0
10003754:	d1ee      	bne.n	10003734 <stdio_out_chars_crlf+0x2c>
10003756:	4281      	cmp	r1, r0
10003758:	eba1 0100 	sub.w	r1, r1, r0
1000375c:	4438      	add	r0, r7
1000375e:	dc1b      	bgt.n	10003798 <stdio_out_chars_crlf+0x90>
10003760:	2102      	movs	r1, #2
10003762:	4640      	mov	r0, r8
10003764:	f8d9 3000 	ldr.w	r3, [r9]
10003768:	4798      	blx	r3
1000376a:	42a6      	cmp	r6, r4
1000376c:	d008      	beq.n	10003780 <stdio_out_chars_crlf+0x78>
1000376e:	4620      	mov	r0, r4
10003770:	e7e2      	b.n	10003738 <stdio_out_chars_crlf+0x30>
10003772:	4286      	cmp	r6, r0
10003774:	dd04      	ble.n	10003780 <stdio_out_chars_crlf+0x78>
10003776:	1a31      	subs	r1, r6, r0
10003778:	f8d9 3000 	ldr.w	r3, [r9]
1000377c:	4438      	add	r0, r7
1000377e:	4798      	blx	r3
10003780:	4437      	add	r7, r6
10003782:	f817 3c01 	ldrb.w	r3, [r7, #-1]
10003786:	f1a3 030d 	sub.w	r3, r3, #13
1000378a:	fab3 f383 	clz	r3, r3
1000378e:	095b      	lsrs	r3, r3, #5
10003790:	f889 3014 	strb.w	r3, [r9, #20]
10003794:	e8bd 87f0 	ldmia.w	sp!, {r4, r5, r6, r7, r8, r9, sl, pc}
10003798:	f8d9 3000 	ldr.w	r3, [r9]
1000379c:	4798      	blx	r3
1000379e:	e7df      	b.n	10003760 <stdio_out_chars_crlf+0x58>
100037a0:	4638      	mov	r0, r7
100037a2:	f8d9 3000 	ldr.w	r3, [r9]
100037a6:	4611      	mov	r1, r2
100037a8:	e8bd 47f0 	ldmia.w	sp!, {r4, r5, r6, r7, r8, r9, sl, lr}
100037ac:	4718      	bx	r3
100037ae:	bf00      	nop
100037b0:	100138f0 	.word	0x100138f0

100037b4 <stdio_buffered_printer>:
100037b4:	680b      	ldr	r3, [r1, #0]
100037b6:	e92d 41f0 	stmdb	sp!, {r4, r5, r6, r7, r8, lr}
100037ba:	2b80      	cmp	r3, #128	@ 0x80
100037bc:	460d      	mov	r5, r1
100037be:	4606      	mov	r6, r0
100037c0:	d005      	beq.n	100037ce <stdio_buffered_printer+0x1a>
100037c2:	1c5a      	adds	r2, r3, #1
100037c4:	442b      	add	r3, r5
100037c6:	602a      	str	r2, [r5, #0]
100037c8:	711e      	strb	r6, [r3, #4]
100037ca:	e8bd 81f0 	ldmia.w	sp!, {r4, r5, r6, r7, r8, pc}
100037ce:	4b0f      	ldr	r3, [pc, #60]	@ (1000380c <stdio_buffered_printer+0x58>)
100037d0:	681c      	ldr	r4, [r3, #0]
100037d2:	b1a4      	cbz	r4, 100037fe <stdio_buffered_printer+0x4a>
100037d4:	4f0e      	ldr	r7, [pc, #56]	@ (10003810 <stdio_buffered_printer+0x5c>)
100037d6:	f101 0804 	add.w	r8, r1, #4
100037da:	e001      	b.n	100037e0 <stdio_buffered_printer+0x2c>
100037dc:	6924      	ldr	r4, [r4, #16]
100037de:	b174      	cbz	r4, 100037fe <stdio_buffered_printer+0x4a>
100037e0:	6823      	ldr	r3, [r4, #0]
100037e2:	2b00      	cmp	r3, #0
100037e4:	d0fa      	beq.n	100037dc <stdio_buffered_printer+0x28>
100037e6:	683b      	ldr	r3, [r7, #0]
100037e8:	b10b      	cbz	r3, 100037ee <stdio_buffered_printer+0x3a>
100037ea:	42a3      	cmp	r3, r4
100037ec:	d1f6      	bne.n	100037dc <stdio_buffered_printer+0x28>
100037ee:	4620      	mov	r0, r4
100037f0:	4641      	mov	r1, r8
100037f2:	682a      	ldr	r2, [r5, #0]
100037f4:	f7ff ff88 	bl	10003708 <stdio_out_chars_crlf>
100037f8:	6924      	ldr	r4, [r4, #16]
100037fa:	2c00      	cmp	r4, #0
100037fc:	d1f0      	bne.n	100037e0 <stdio_buffered_printer+0x2c>
100037fe:	2300      	movs	r3, #0
10003800:	2201      	movs	r2, #1
10003802:	442b      	add	r3, r5
10003804:	602a      	str	r2, [r5, #0]
10003806:	711e      	strb	r6, [r3, #4]
10003808:	e8bd 81f0 	ldmia.w	sp!, {r4, r5, r6, r7, r8, pc}
1000380c:	20003344 	.word	0x20003344
10003810:	20003350 	.word	0x20003350

10003814 <stdio_put_string>:
10003814:	e92d 47f0 	stmdb	sp!, {r4, r5, r6, r7, r8, r9, sl, lr}
10003818:	b082      	sub	sp, #8
1000381a:	460d      	mov	r5, r1
1000381c:	4692      	mov	sl, r2
1000381e:	4699      	mov	r9, r3
10003820:	4607      	mov	r7, r0
10003822:	f7fd ff2f 	bl	10001684 <time_us_64>
10003826:	f04f 36ff 	mov.w	r6, #4294967295	@ 0xffffffff
1000382a:	f06f 4400 	mvn.w	r4, #2147483648	@ 0x80000000
1000382e:	4a2f      	ldr	r2, [pc, #188]	@ (100038ec <stdio_put_string+0xd8>)
10003830:	1882      	adds	r2, r0, r2
10003832:	f141 0300 	adc.w	r3, r1, #0
10003836:	4296      	cmp	r6, r2
10003838:	eb74 0103 	sbcs.w	r1, r4, r3
1000383c:	bf3c      	itt	cc
1000383e:	4632      	movcc	r2, r6
10003840:	4623      	movcc	r3, r4
10003842:	482b      	ldr	r0, [pc, #172]	@ (100038f0 <stdio_put_string+0xdc>)
10003844:	f00f f930 	bl	10012aa8 <__mutex_try_enter_block_until_veneer>
10003848:	1c6b      	adds	r3, r5, #1
1000384a:	4680      	mov	r8, r0
1000384c:	d103      	bne.n	10003856 <stdio_put_string+0x42>
1000384e:	4638      	mov	r0, r7
10003850:	f00e fba0 	bl	10011f94 <strlen>
10003854:	4605      	mov	r5, r0
10003856:	4b27      	ldr	r3, [pc, #156]	@ (100038f4 <stdio_put_string+0xe0>)
10003858:	4e27      	ldr	r6, [pc, #156]	@ (100038f8 <stdio_put_string+0xe4>)
1000385a:	681c      	ldr	r4, [r3, #0]
1000385c:	4b27      	ldr	r3, [pc, #156]	@ (100038fc <stdio_put_string+0xe8>)
1000385e:	f1b9 0f00 	cmp.w	r9, #0
10003862:	bf18      	it	ne
10003864:	461e      	movne	r6, r3
10003866:	b1b4      	cbz	r4, 10003896 <stdio_put_string+0x82>
10003868:	f1ba 0f00 	cmp.w	sl, #0
1000386c:	d11a      	bne.n	100038a4 <stdio_put_string+0x90>
1000386e:	f8df 9090 	ldr.w	r9, [pc, #144]	@ 10003900 <stdio_put_string+0xec>
10003872:	e001      	b.n	10003878 <stdio_put_string+0x64>
10003874:	6924      	ldr	r4, [r4, #16]
10003876:	b174      	cbz	r4, 10003896 <stdio_put_string+0x82>
10003878:	6823      	ldr	r3, [r4, #0]
1000387a:	2b00      	cmp	r3, #0
1000387c:	d0fa      	beq.n	10003874 <stdio_put_string+0x60>
1000387e:	f8d9 3000 	ldr.w	r3, [r9]
10003882:	b10b      	cbz	r3, 10003888 <stdio_put_string+0x74>
10003884:	429c      	cmp	r4, r3
10003886:	d1f5      	bne.n	10003874 <stdio_put_string+0x60>
10003888:	4620      	mov	r0, r4
1000388a:	462a      	mov	r2, r5
1000388c:	4639      	mov	r1, r7
1000388e:	47b0      	blx	r6
10003890:	6924      	ldr	r4, [r4, #16]
10003892:	2c00      	cmp	r4, #0
10003894:	d1f0      	bne.n	10003878 <stdio_put_string+0x64>
10003896:	f1b8 0f00 	cmp.w	r8, #0
1000389a:	d11f      	bne.n	100038dc <stdio_put_string+0xc8>
1000389c:	4628      	mov	r0, r5
1000389e:	b002      	add	sp, #8
100038a0:	e8bd 87f0 	ldmia.w	sp!, {r4, r5, r6, r7, r8, r9, sl, pc}
100038a4:	f04f 0a0a 	mov.w	sl, #10
100038a8:	f8df 9054 	ldr.w	r9, [pc, #84]	@ 10003900 <stdio_put_string+0xec>
100038ac:	e002      	b.n	100038b4 <stdio_put_string+0xa0>
100038ae:	6924      	ldr	r4, [r4, #16]
100038b0:	2c00      	cmp	r4, #0
100038b2:	d0f0      	beq.n	10003896 <stdio_put_string+0x82>
100038b4:	6823      	ldr	r3, [r4, #0]
100038b6:	2b00      	cmp	r3, #0
100038b8:	d0f9      	beq.n	100038ae <stdio_put_string+0x9a>
100038ba:	f8d9 3000 	ldr.w	r3, [r9]
100038be:	b10b      	cbz	r3, 100038c4 <stdio_put_string+0xb0>
100038c0:	42a3      	cmp	r3, r4
100038c2:	d1f4      	bne.n	100038ae <stdio_put_string+0x9a>
100038c4:	462a      	mov	r2, r5
100038c6:	4639      	mov	r1, r7
100038c8:	4620      	mov	r0, r4
100038ca:	47b0      	blx	r6
100038cc:	2201      	movs	r2, #1
100038ce:	4620      	mov	r0, r4
100038d0:	f10d 0107 	add.w	r1, sp, #7
100038d4:	f88d a007 	strb.w	sl, [sp, #7]
100038d8:	47b0      	blx	r6
100038da:	e7e8      	b.n	100038ae <stdio_put_string+0x9a>
100038dc:	4804      	ldr	r0, [pc, #16]	@ (100038f0 <stdio_put_string+0xdc>)
100038de:	f00f f8cb 	bl	10012a78 <__mutex_exit_veneer>
100038e2:	4628      	mov	r0, r5
100038e4:	b002      	add	sp, #8
100038e6:	e8bd 87f0 	ldmia.w	sp!, {r4, r5, r6, r7, r8, r9, sl, pc}
100038ea:	bf00      	nop
100038ec:	000f4240 	.word	0x000f4240
100038f0:	20002848 	.word	0x20002848
100038f4:	20003344 	.word	0x20003344
100038f8:	10003701 	.word	0x10003701
100038fc:	10003709 	.word	0x10003709
10003900:	20003350 	.word	0x20003350

10003904 <stdio_get_until>:
10003904:	e92d 4ff0 	stmdb	sp!, {r4, r5, r6, r7, r8, r9, sl, fp, lr}
10003908:	4698      	mov	r8, r3
1000390a:	4607      	mov	r7, r0
1000390c:	460e      	mov	r6, r1
1000390e:	b083      	sub	sp, #12
10003910:	f8df b060 	ldr.w	fp, [pc, #96]	@ 10003974 <stdio_get_until+0x70>
10003914:	f8df 9060 	ldr.w	r9, [pc, #96]	@ 10003978 <stdio_get_until+0x74>
10003918:	f8df a060 	ldr.w	sl, [pc, #96]	@ 1000397c <stdio_get_until+0x78>
1000391c:	9201      	str	r2, [sp, #4]
1000391e:	f8db 4000 	ldr.w	r4, [fp]
10003922:	b914      	cbnz	r4, 1000392a <stdio_get_until+0x26>
10003924:	e011      	b.n	1000394a <stdio_get_until+0x46>
10003926:	6924      	ldr	r4, [r4, #16]
10003928:	b17c      	cbz	r4, 1000394a <stdio_get_until+0x46>
1000392a:	f8d9 5000 	ldr.w	r5, [r9]
1000392e:	b10d      	cbz	r5, 10003934 <stdio_get_until+0x30>
10003930:	42a5      	cmp	r5, r4
10003932:	d1f8      	bne.n	10003926 <stdio_get_until+0x22>
10003934:	68a2      	ldr	r2, [r4, #8]
10003936:	2a00      	cmp	r2, #0
10003938:	d0f5      	beq.n	10003926 <stdio_get_until+0x22>
1000393a:	4631      	mov	r1, r6
1000393c:	4638      	mov	r0, r7
1000393e:	4790      	blx	r2
10003940:	2800      	cmp	r0, #0
10003942:	ddf0      	ble.n	10003926 <stdio_get_until+0x22>
10003944:	b003      	add	sp, #12
10003946:	e8bd 8ff0 	ldmia.w	sp!, {r4, r5, r6, r7, r8, r9, sl, fp, pc}
1000394a:	f8da 2024 	ldr.w	r2, [sl, #36]	@ 0x24
1000394e:	4590      	cmp	r8, r2
10003950:	d80b      	bhi.n	1000396a <stdio_get_until+0x66>
10003952:	f8da 1028 	ldr.w	r1, [sl, #40]	@ 0x28
10003956:	9b01      	ldr	r3, [sp, #4]
10003958:	4299      	cmp	r1, r3
1000395a:	d304      	bcc.n	10003966 <stdio_get_until+0x62>
1000395c:	f06f 0001 	mvn.w	r0, #1
10003960:	b003      	add	sp, #12
10003962:	e8bd 8ff0 	ldmia.w	sp!, {r4, r5, r6, r7, r8, r9, sl, fp, pc}
10003966:	4590      	cmp	r8, r2
10003968:	d1f8      	bne.n	1000395c <stdio_get_until+0x58>
1000396a:	2001      	movs	r0, #1
1000396c:	2100      	movs	r1, #0
1000396e:	f7fd fe93 	bl	10001698 <busy_wait_us>
10003972:	e7d4      	b.n	1000391e <stdio_get_until+0x1a>
10003974:	20003344 	.word	0x20003344
10003978:	20003350 	.word	0x20003350
1000397c:	400b0000 	.word	0x400b0000

10003980 <stdio_set_driver_enabled>:
10003980:	4a0a      	ldr	r2, [pc, #40]	@ (100039ac <stdio_set_driver_enabled+0x2c>)
10003982:	6813      	ldr	r3, [r2, #0]
10003984:	b14b      	cbz	r3, 1000399a <stdio_set_driver_enabled+0x1a>
10003986:	4283      	cmp	r3, r0
10003988:	d102      	bne.n	10003990 <stdio_set_driver_enabled+0x10>
1000398a:	e009      	b.n	100039a0 <stdio_set_driver_enabled+0x20>
1000398c:	4298      	cmp	r0, r3
1000398e:	d007      	beq.n	100039a0 <stdio_set_driver_enabled+0x20>
10003990:	f103 0210 	add.w	r2, r3, #16
10003994:	691b      	ldr	r3, [r3, #16]
10003996:	2b00      	cmp	r3, #0
10003998:	d1f8      	bne.n	1000398c <stdio_set_driver_enabled+0xc>
1000399a:	b101      	cbz	r1, 1000399e <stdio_set_driver_enabled+0x1e>
1000399c:	6010      	str	r0, [r2, #0]
1000399e:	4770      	bx	lr
100039a0:	2900      	cmp	r1, #0
100039a2:	d1fc      	bne.n	1000399e <stdio_set_driver_enabled+0x1e>
100039a4:	6903      	ldr	r3, [r0, #16]
100039a6:	6013      	str	r3, [r2, #0]
100039a8:	6101      	str	r1, [r0, #16]
100039aa:	4770      	bx	lr
100039ac:	20003344 	.word	0x20003344

100039b0 <stdio_init_all>:
100039b0:	b508      	push	{r3, lr}
100039b2:	f000 f9ad 	bl	10003d10 <stdio_uart_init>
100039b6:	f000 fbdf 	bl	10004178 <stdio_usb_init>
100039ba:	2001      	movs	r0, #1
100039bc:	bd08      	pop	{r3, pc}
100039be:	bf00      	nop

100039c0 <__wrap_putchar>:
100039c0:	b5f0      	push	{r4, r5, r6, r7, lr}
100039c2:	b083      	sub	sp, #12
100039c4:	4606      	mov	r6, r0
100039c6:	f88d 0007 	strb.w	r0, [sp, #7]
100039ca:	f7fd fe5b 	bl	10001684 <time_us_64>
100039ce:	f04f 35ff 	mov.w	r5, #4294967295	@ 0xffffffff
100039d2:	f06f 4400 	mvn.w	r4, #2147483648	@ 0x80000000
100039d6:	4a17      	ldr	r2, [pc, #92]	@ (10003a34 <__wrap_putchar+0x74>)
100039d8:	1882      	adds	r2, r0, r2
100039da:	f141 0300 	adc.w	r3, r1, #0
100039de:	4295      	cmp	r5, r2
100039e0:	eb74 0103 	sbcs.w	r1, r4, r3
100039e4:	bf3c      	itt	cc
100039e6:	4623      	movcc	r3, r4
100039e8:	462a      	movcc	r2, r5
100039ea:	4813      	ldr	r0, [pc, #76]	@ (10003a38 <__wrap_putchar+0x78>)
100039ec:	f00f f85c 	bl	10012aa8 <__mutex_try_enter_block_until_veneer>
100039f0:	4b12      	ldr	r3, [pc, #72]	@ (10003a3c <__wrap_putchar+0x7c>)
100039f2:	4607      	mov	r7, r0
100039f4:	681c      	ldr	r4, [r3, #0]
100039f6:	b19c      	cbz	r4, 10003a20 <__wrap_putchar+0x60>
100039f8:	4d11      	ldr	r5, [pc, #68]	@ (10003a40 <__wrap_putchar+0x80>)
100039fa:	e001      	b.n	10003a00 <__wrap_putchar+0x40>
100039fc:	6924      	ldr	r4, [r4, #16]
100039fe:	b17c      	cbz	r4, 10003a20 <__wrap_putchar+0x60>
10003a00:	6823      	ldr	r3, [r4, #0]
10003a02:	2b00      	cmp	r3, #0
10003a04:	d0fa      	beq.n	100039fc <__wrap_putchar+0x3c>
10003a06:	682b      	ldr	r3, [r5, #0]
10003a08:	b10b      	cbz	r3, 10003a0e <__wrap_putchar+0x4e>
10003a0a:	429c      	cmp	r4, r3
10003a0c:	d1f6      	bne.n	100039fc <__wrap_putchar+0x3c>
10003a0e:	4620      	mov	r0, r4
10003a10:	2201      	movs	r2, #1
10003a12:	f10d 0107 	add.w	r1, sp, #7
10003a16:	f7ff fe77 	bl	10003708 <stdio_out_chars_crlf>
10003a1a:	6924      	ldr	r4, [r4, #16]
10003a1c:	2c00      	cmp	r4, #0
10003a1e:	d1ef      	bne.n	10003a00 <__wrap_putchar+0x40>
10003a20:	b917      	cbnz	r7, 10003a28 <__wrap_putchar+0x68>
10003a22:	4630      	mov	r0, r6
10003a24:	b003      	add	sp, #12
10003a26:	bdf0      	pop	{r4, r5, r6, r7, pc}
10003a28:	4803      	ldr	r0, [pc, #12]	@ (10003a38 <__wrap_putchar+0x78>)
10003a2a:	f00f f825 	bl	10012a78 <__mutex_exit_veneer>
10003a2e:	4630      	mov	r0, r6
10003a30:	b003      	add	sp, #12
10003a32:	bdf0      	pop	{r4, r5, r6, r7, pc}
10003a34:	000f4240 	.word	0x000f4240
10003a38:	20002848 	.word	0x20002848
10003a3c:	20003344 	.word	0x20003344
10003a40:	20003350 	.word	0x20003350

10003a44 <__wrap_puts>:
10003a44:	b538      	push	{r3, r4, r5, lr}
10003a46:	4604      	mov	r4, r0
10003a48:	f00e faa4 	bl	10011f94 <strlen>
10003a4c:	2301      	movs	r3, #1
10003a4e:	4605      	mov	r5, r0
10003a50:	461a      	mov	r2, r3
10003a52:	4620      	mov	r0, r4
10003a54:	4629      	mov	r1, r5
10003a56:	f7ff fedd 	bl	10003814 <stdio_put_string>
10003a5a:	4b08      	ldr	r3, [pc, #32]	@ (10003a7c <__wrap_puts+0x38>)
10003a5c:	681c      	ldr	r4, [r3, #0]
10003a5e:	b12c      	cbz	r4, 10003a6c <__wrap_puts+0x28>
10003a60:	6863      	ldr	r3, [r4, #4]
10003a62:	b12b      	cbz	r3, 10003a70 <__wrap_puts+0x2c>
10003a64:	4798      	blx	r3
10003a66:	6924      	ldr	r4, [r4, #16]
10003a68:	2c00      	cmp	r4, #0
10003a6a:	d1f9      	bne.n	10003a60 <__wrap_puts+0x1c>
10003a6c:	4628      	mov	r0, r5
10003a6e:	bd38      	pop	{r3, r4, r5, pc}
10003a70:	6924      	ldr	r4, [r4, #16]
10003a72:	2c00      	cmp	r4, #0
10003a74:	d1f4      	bne.n	10003a60 <__wrap_puts+0x1c>
10003a76:	4628      	mov	r0, r5
10003a78:	bd38      	pop	{r3, r4, r5, pc}
10003a7a:	bf00      	nop
10003a7c:	20003344 	.word	0x20003344

10003a80 <__wrap_vprintf>:
10003a80:	e92d 41f0 	stmdb	sp!, {r4, r5, r6, r7, r8, lr}
10003a84:	b0a2      	sub	sp, #136	@ 0x88
10003a86:	4604      	mov	r4, r0
10003a88:	460d      	mov	r5, r1
10003a8a:	f7fd fdfb 	bl	10001684 <time_us_64>
10003a8e:	f04f 37ff 	mov.w	r7, #4294967295	@ 0xffffffff
10003a92:	f06f 4600 	mvn.w	r6, #2147483648	@ 0x80000000
10003a96:	4a27      	ldr	r2, [pc, #156]	@ (10003b34 <__wrap_vprintf+0xb4>)
10003a98:	1882      	adds	r2, r0, r2
10003a9a:	f141 0300 	adc.w	r3, r1, #0
10003a9e:	4297      	cmp	r7, r2
10003aa0:	eb76 0103 	sbcs.w	r1, r6, r3
10003aa4:	bf3c      	itt	cc
10003aa6:	463a      	movcc	r2, r7
10003aa8:	4633      	movcc	r3, r6
10003aaa:	4823      	ldr	r0, [pc, #140]	@ (10003b38 <__wrap_vprintf+0xb8>)
10003aac:	f00e fffc 	bl	10012aa8 <__mutex_try_enter_block_until_veneer>
10003ab0:	2600      	movs	r6, #0
10003ab2:	462b      	mov	r3, r5
10003ab4:	4607      	mov	r7, r0
10003ab6:	4622      	mov	r2, r4
10003ab8:	4820      	ldr	r0, [pc, #128]	@ (10003b3c <__wrap_vprintf+0xbc>)
10003aba:	a901      	add	r1, sp, #4
10003abc:	9601      	str	r6, [sp, #4]
10003abe:	f7ff fd8f 	bl	100035e0 <vfctprintf>
10003ac2:	9b01      	ldr	r3, [sp, #4]
10003ac4:	4606      	mov	r6, r0
10003ac6:	b97b      	cbnz	r3, 10003ae8 <__wrap_vprintf+0x68>
10003ac8:	4b1d      	ldr	r3, [pc, #116]	@ (10003b40 <__wrap_vprintf+0xc0>)
10003aca:	681c      	ldr	r4, [r3, #0]
10003acc:	b12c      	cbz	r4, 10003ada <__wrap_vprintf+0x5a>
10003ace:	6863      	ldr	r3, [r4, #4]
10003ad0:	b143      	cbz	r3, 10003ae4 <__wrap_vprintf+0x64>
10003ad2:	4798      	blx	r3
10003ad4:	6924      	ldr	r4, [r4, #16]
10003ad6:	2c00      	cmp	r4, #0
10003ad8:	d1f9      	bne.n	10003ace <__wrap_vprintf+0x4e>
10003ada:	bb0f      	cbnz	r7, 10003b20 <__wrap_vprintf+0xa0>
10003adc:	4630      	mov	r0, r6
10003ade:	b022      	add	sp, #136	@ 0x88
10003ae0:	e8bd 81f0 	ldmia.w	sp!, {r4, r5, r6, r7, r8, pc}
10003ae4:	6924      	ldr	r4, [r4, #16]
10003ae6:	e7f1      	b.n	10003acc <__wrap_vprintf+0x4c>
10003ae8:	f8df 8054 	ldr.w	r8, [pc, #84]	@ 10003b40 <__wrap_vprintf+0xc0>
10003aec:	f8d8 5000 	ldr.w	r5, [r8]
10003af0:	b1ed      	cbz	r5, 10003b2e <__wrap_vprintf+0xae>
10003af2:	4c14      	ldr	r4, [pc, #80]	@ (10003b44 <__wrap_vprintf+0xc4>)
10003af4:	e001      	b.n	10003afa <__wrap_vprintf+0x7a>
10003af6:	692d      	ldr	r5, [r5, #16]
10003af8:	b175      	cbz	r5, 10003b18 <__wrap_vprintf+0x98>
10003afa:	682b      	ldr	r3, [r5, #0]
10003afc:	2b00      	cmp	r3, #0
10003afe:	d0fa      	beq.n	10003af6 <__wrap_vprintf+0x76>
10003b00:	6823      	ldr	r3, [r4, #0]
10003b02:	b10b      	cbz	r3, 10003b08 <__wrap_vprintf+0x88>
10003b04:	42ab      	cmp	r3, r5
10003b06:	d1f6      	bne.n	10003af6 <__wrap_vprintf+0x76>
10003b08:	4628      	mov	r0, r5
10003b0a:	9a01      	ldr	r2, [sp, #4]
10003b0c:	a902      	add	r1, sp, #8
10003b0e:	f7ff fdfb 	bl	10003708 <stdio_out_chars_crlf>
10003b12:	692d      	ldr	r5, [r5, #16]
10003b14:	2d00      	cmp	r5, #0
10003b16:	d1f0      	bne.n	10003afa <__wrap_vprintf+0x7a>
10003b18:	f8d8 4000 	ldr.w	r4, [r8]
10003b1c:	9501      	str	r5, [sp, #4]
10003b1e:	e7d5      	b.n	10003acc <__wrap_vprintf+0x4c>
10003b20:	4805      	ldr	r0, [pc, #20]	@ (10003b38 <__wrap_vprintf+0xb8>)
10003b22:	f00e ffa9 	bl	10012a78 <__mutex_exit_veneer>
10003b26:	4630      	mov	r0, r6
10003b28:	b022      	add	sp, #136	@ 0x88
10003b2a:	e8bd 81f0 	ldmia.w	sp!, {r4, r5, r6, r7, r8, pc}
10003b2e:	9501      	str	r5, [sp, #4]
10003b30:	e7d3      	b.n	10003ada <__wrap_vprintf+0x5a>
10003b32:	bf00      	nop
10003b34:	000f4240 	.word	0x000f4240
10003b38:	20002848 	.word	0x20002848
10003b3c:	100037b5 	.word	0x100037b5
10003b40:	20003344 	.word	0x20003344
10003b44:	20003350 	.word	0x20003350

10003b48 <__wrap_printf>:
10003b48:	b40f      	push	{r0, r1, r2, r3}
10003b4a:	b500      	push	{lr}
10003b4c:	b083      	sub	sp, #12
10003b4e:	a904      	add	r1, sp, #16
10003b50:	f851 0b04 	ldr.w	r0, [r1], #4
10003b54:	9101      	str	r1, [sp, #4]
10003b56:	f7ff ff93 	bl	10003a80 <__wrap_vprintf>
10003b5a:	b003      	add	sp, #12
10003b5c:	f85d eb04 	ldr.w	lr, [sp], #4
10003b60:	b004      	add	sp, #16
10003b62:	4770      	bx	lr

10003b64 <stdio_uart_out_chars>:
10003b64:	f1b1 0c00 	subs.w	ip, r1, #0
10003b68:	dd1d      	ble.n	10003ba6 <stdio_uart_out_chars+0x42>
10003b6a:	4a0f      	ldr	r2, [pc, #60]	@ (10003ba8 <stdio_uart_out_chars+0x44>)
10003b6c:	4b0f      	ldr	r3, [pc, #60]	@ (10003bac <stdio_uart_out_chars+0x48>)
10003b6e:	6812      	ldr	r2, [r2, #0]
10003b70:	b530      	push	{r4, r5, lr}
10003b72:	1ad3      	subs	r3, r2, r3
10003b74:	fab3 f383 	clz	r3, r3
10003b78:	240d      	movs	r4, #13
10003b7a:	4d0d      	ldr	r5, [pc, #52]	@ (10003bb0 <stdio_uart_out_chars+0x4c>)
10003b7c:	095b      	lsrs	r3, r3, #5
10003b7e:	1e41      	subs	r1, r0, #1
10003b80:	f935 e013 	ldrsh.w	lr, [r5, r3, lsl #1]
10003b84:	448c      	add	ip, r1
10003b86:	f811 0f01 	ldrb.w	r0, [r1, #1]!
10003b8a:	4586      	cmp	lr, r0
10003b8c:	d006      	beq.n	10003b9c <stdio_uart_out_chars+0x38>
10003b8e:	6993      	ldr	r3, [r2, #24]
10003b90:	069b      	lsls	r3, r3, #26
10003b92:	d4fc      	bmi.n	10003b8e <stdio_uart_out_chars+0x2a>
10003b94:	4561      	cmp	r1, ip
10003b96:	6010      	str	r0, [r2, #0]
10003b98:	d1f5      	bne.n	10003b86 <stdio_uart_out_chars+0x22>
10003b9a:	bd30      	pop	{r4, r5, pc}
10003b9c:	6993      	ldr	r3, [r2, #24]
10003b9e:	069d      	lsls	r5, r3, #26
10003ba0:	d4fc      	bmi.n	10003b9c <stdio_uart_out_chars+0x38>
10003ba2:	6014      	str	r4, [r2, #0]
10003ba4:	e7f3      	b.n	10003b8e <stdio_uart_out_chars+0x2a>
10003ba6:	4770      	bx	lr
10003ba8:	20003a5c 	.word	0x20003a5c
10003bac:	40078000 	.word	0x40078000
10003bb0:	20003a58 	.word	0x20003a58

10003bb4 <stdio_uart_in_chars>:
10003bb4:	4b22      	ldr	r3, [pc, #136]	@ (10003c40 <stdio_uart_in_chars+0x8c>)
10003bb6:	f1b1 0c00 	subs.w	ip, r1, #0
10003bba:	b410      	push	{r4}
10003bbc:	681c      	ldr	r4, [r3, #0]
10003bbe:	dd2e      	ble.n	10003c1e <stdio_uart_in_chars+0x6a>
10003bc0:	4603      	mov	r3, r0
10003bc2:	2000      	movs	r0, #0
10003bc4:	4a1f      	ldr	r2, [pc, #124]	@ (10003c44 <stdio_uart_in_chars+0x90>)
10003bc6:	1e59      	subs	r1, r3, #1
10003bc8:	6812      	ldr	r2, [r2, #0]
10003bca:	6993      	ldr	r3, [r2, #24]
10003bcc:	06db      	lsls	r3, r3, #27
10003bce:	d417      	bmi.n	10003c00 <stdio_uart_in_chars+0x4c>
10003bd0:	3001      	adds	r0, #1
10003bd2:	6993      	ldr	r3, [r2, #24]
10003bd4:	06db      	lsls	r3, r3, #27
10003bd6:	d4fc      	bmi.n	10003bd2 <stdio_uart_in_chars+0x1e>
10003bd8:	6813      	ldr	r3, [r2, #0]
10003bda:	4584      	cmp	ip, r0
10003bdc:	f801 3f01 	strb.w	r3, [r1, #1]!
10003be0:	d1f3      	bne.n	10003bca <stdio_uart_in_chars+0x16>
10003be2:	b14c      	cbz	r4, 10003bf8 <stdio_uart_in_chars+0x44>
10003be4:	2150      	movs	r1, #80	@ 0x50
10003be6:	4613      	mov	r3, r2
10003be8:	6391      	str	r1, [r2, #56]	@ 0x38
10003bea:	f853 2f34 	ldr.w	r2, [r3, #52]!
10003bee:	f002 0238 	and.w	r2, r2, #56	@ 0x38
10003bf2:	f503 5380 	add.w	r3, r3, #4096	@ 0x1000
10003bf6:	601a      	str	r2, [r3, #0]
10003bf8:	4660      	mov	r0, ip
10003bfa:	f85d 4b04 	ldr.w	r4, [sp], #4
10003bfe:	4770      	bx	lr
10003c00:	b14c      	cbz	r4, 10003c16 <stdio_uart_in_chars+0x62>
10003c02:	2150      	movs	r1, #80	@ 0x50
10003c04:	4613      	mov	r3, r2
10003c06:	6391      	str	r1, [r2, #56]	@ 0x38
10003c08:	f853 2f34 	ldr.w	r2, [r3, #52]!
10003c0c:	f002 0238 	and.w	r2, r2, #56	@ 0x38
10003c10:	f503 5380 	add.w	r3, r3, #4096	@ 0x1000
10003c14:	601a      	str	r2, [r3, #0]
10003c16:	b178      	cbz	r0, 10003c38 <stdio_uart_in_chars+0x84>
10003c18:	f85d 4b04 	ldr.w	r4, [sp], #4
10003c1c:	4770      	bx	lr
10003c1e:	b15c      	cbz	r4, 10003c38 <stdio_uart_in_chars+0x84>
10003c20:	4b08      	ldr	r3, [pc, #32]	@ (10003c44 <stdio_uart_in_chars+0x90>)
10003c22:	2150      	movs	r1, #80	@ 0x50
10003c24:	681a      	ldr	r2, [r3, #0]
10003c26:	4613      	mov	r3, r2
10003c28:	6391      	str	r1, [r2, #56]	@ 0x38
10003c2a:	f853 2f34 	ldr.w	r2, [r3, #52]!
10003c2e:	f002 0238 	and.w	r2, r2, #56	@ 0x38
10003c32:	f503 5380 	add.w	r3, r3, #4096	@ 0x1000
10003c36:	601a      	str	r2, [r3, #0]
10003c38:	f06f 0002 	mvn.w	r0, #2
10003c3c:	e7ec      	b.n	10003c18 <stdio_uart_in_chars+0x64>
10003c3e:	bf00      	nop
10003c40:	200032d8 	.word	0x200032d8
10003c44:	20003a5c 	.word	0x20003a5c

10003c48 <on_uart_rx>:
10003c48:	4b05      	ldr	r3, [pc, #20]	@ (10003c60 <on_uart_rx+0x18>)
10003c4a:	681b      	ldr	r3, [r3, #0]
10003c4c:	b133      	cbz	r3, 10003c5c <on_uart_rx+0x14>
10003c4e:	2100      	movs	r1, #0
10003c50:	4a04      	ldr	r2, [pc, #16]	@ (10003c64 <on_uart_rx+0x1c>)
10003c52:	4805      	ldr	r0, [pc, #20]	@ (10003c68 <on_uart_rx+0x20>)
10003c54:	6812      	ldr	r2, [r2, #0]
10003c56:	6800      	ldr	r0, [r0, #0]
10003c58:	6391      	str	r1, [r2, #56]	@ 0x38
10003c5a:	4718      	bx	r3
10003c5c:	4770      	bx	lr
10003c5e:	bf00      	nop
10003c60:	200032d8 	.word	0x200032d8
10003c64:	20003a5c 	.word	0x20003a5c
10003c68:	200032e0 	.word	0x200032e0

10003c6c <stdio_uart_out_flush>:
10003c6c:	4a02      	ldr	r2, [pc, #8]	@ (10003c78 <stdio_uart_out_flush+0xc>)
10003c6e:	6993      	ldr	r3, [r2, #24]
10003c70:	071b      	lsls	r3, r3, #28
10003c72:	d4fc      	bmi.n	10003c6e <stdio_uart_out_flush+0x2>
10003c74:	4770      	bx	lr
10003c76:	bf00      	nop
10003c78:	40070000 	.word	0x40070000

10003c7c <stdio_uart_set_chars_available_callback>:
10003c7c:	e92d 41f0 	stmdb	sp!, {r4, r5, r6, r7, r8, lr}
10003c80:	4e1e      	ldr	r6, [pc, #120]	@ (10003cfc <stdio_uart_set_chars_available_callback+0x80>)
10003c82:	4d1f      	ldr	r5, [pc, #124]	@ (10003d00 <stdio_uart_set_chars_available_callback+0x84>)
10003c84:	6832      	ldr	r2, [r6, #0]
10003c86:	f8df 8084 	ldr.w	r8, [pc, #132]	@ 10003d0c <stdio_uart_set_chars_available_callback+0x90>
10003c8a:	42aa      	cmp	r2, r5
10003c8c:	bf14      	ite	ne
10003c8e:	2521      	movne	r5, #33	@ 0x21
10003c90:	2522      	moveq	r5, #34	@ 0x22
10003c92:	460f      	mov	r7, r1
10003c94:	4604      	mov	r4, r0
10003c96:	f8d8 3000 	ldr.w	r3, [r8]
10003c9a:	b130      	cbz	r0, 10003caa <stdio_uart_set_chars_available_callback+0x2e>
10003c9c:	b1b3      	cbz	r3, 10003ccc <stdio_uart_set_chars_available_callback+0x50>
10003c9e:	4b19      	ldr	r3, [pc, #100]	@ (10003d04 <stdio_uart_set_chars_available_callback+0x88>)
10003ca0:	f8c8 4000 	str.w	r4, [r8]
10003ca4:	601f      	str	r7, [r3, #0]
10003ca6:	e8bd 81f0 	ldmia.w	sp!, {r4, r5, r6, r7, r8, pc}
10003caa:	2b00      	cmp	r3, #0
10003cac:	d0f7      	beq.n	10003c9e <stdio_uart_set_chars_available_callback+0x22>
10003cae:	4601      	mov	r1, r0
10003cb0:	6390      	str	r0, [r2, #56]	@ 0x38
10003cb2:	4628      	mov	r0, r5
10003cb4:	f7fc fd6c 	bl	10000790 <irq_set_enabled>
10003cb8:	4628      	mov	r0, r5
10003cba:	4913      	ldr	r1, [pc, #76]	@ (10003d08 <stdio_uart_set_chars_available_callback+0x8c>)
10003cbc:	f7fc fed0 	bl	10000a60 <irq_remove_handler>
10003cc0:	4b10      	ldr	r3, [pc, #64]	@ (10003d04 <stdio_uart_set_chars_available_callback+0x88>)
10003cc2:	f8c8 4000 	str.w	r4, [r8]
10003cc6:	601f      	str	r7, [r3, #0]
10003cc8:	e8bd 81f0 	ldmia.w	sp!, {r4, r5, r6, r7, r8, pc}
10003ccc:	4628      	mov	r0, r5
10003cce:	490e      	ldr	r1, [pc, #56]	@ (10003d08 <stdio_uart_set_chars_available_callback+0x8c>)
10003cd0:	f7fc fda2 	bl	10000818 <irq_set_exclusive_handler>
10003cd4:	2101      	movs	r1, #1
10003cd6:	4628      	mov	r0, r5
10003cd8:	f7fc fd5a 	bl	10000790 <irq_set_enabled>
10003cdc:	2250      	movs	r2, #80	@ 0x50
10003cde:	6833      	ldr	r3, [r6, #0]
10003ce0:	f8c8 4000 	str.w	r4, [r8]
10003ce4:	639a      	str	r2, [r3, #56]	@ 0x38
10003ce6:	f853 2f34 	ldr.w	r2, [r3, #52]!
10003cea:	f503 5380 	add.w	r3, r3, #4096	@ 0x1000
10003cee:	f002 0238 	and.w	r2, r2, #56	@ 0x38
10003cf2:	601a      	str	r2, [r3, #0]
10003cf4:	4b03      	ldr	r3, [pc, #12]	@ (10003d04 <stdio_uart_set_chars_available_callback+0x88>)
10003cf6:	601f      	str	r7, [r3, #0]
10003cf8:	e8bd 81f0 	ldmia.w	sp!, {r4, r5, r6, r7, r8, pc}
10003cfc:	20003a5c 	.word	0x20003a5c
10003d00:	40078000 	.word	0x40078000
10003d04:	200032e0 	.word	0x200032e0
10003d08:	10003c49 	.word	0x10003c49
10003d0c:	200032d8 	.word	0x200032d8

10003d10 <stdio_uart_init>:
10003d10:	b510      	push	{r4, lr}
10003d12:	490e      	ldr	r1, [pc, #56]	@ (10003d4c <stdio_uart_init+0x3c>)
10003d14:	4c0e      	ldr	r4, [pc, #56]	@ (10003d50 <stdio_uart_init+0x40>)
10003d16:	480f      	ldr	r0, [pc, #60]	@ (10003d54 <stdio_uart_init+0x44>)
10003d18:	4a0f      	ldr	r2, [pc, #60]	@ (10003d58 <stdio_uart_init+0x48>)
10003d1a:	4b10      	ldr	r3, [pc, #64]	@ (10003d5c <stdio_uart_init+0x4c>)
10003d1c:	7800      	ldrb	r0, [r0, #0]
10003d1e:	6021      	str	r1, [r4, #0]
10003d20:	2010      	movs	r0, #16
10003d22:	2102      	movs	r1, #2
10003d24:	7812      	ldrb	r2, [r2, #0]
10003d26:	781b      	ldrb	r3, [r3, #0]
10003d28:	f7fc fbf2 	bl	10000510 <gpio_set_function>
10003d2c:	2102      	movs	r1, #2
10003d2e:	2011      	movs	r0, #17
10003d30:	f7fc fbee 	bl	10000510 <gpio_set_function>
10003d34:	f44f 31e1 	mov.w	r1, #115200	@ 0x1c200
10003d38:	6820      	ldr	r0, [r4, #0]
10003d3a:	f7fd fcf1 	bl	10001720 <uart_init>
10003d3e:	e8bd 4010 	ldmia.w	sp!, {r4, lr}
10003d42:	2101      	movs	r1, #1
10003d44:	4806      	ldr	r0, [pc, #24]	@ (10003d60 <stdio_uart_init+0x50>)
10003d46:	f7ff be1b 	b.w	10003980 <stdio_set_driver_enabled>
10003d4a:	bf00      	nop
10003d4c:	40070000 	.word	0x40070000
10003d50:	20003a5c 	.word	0x20003a5c
10003d54:	100148a4 	.word	0x100148a4
10003d58:	100148a0 	.word	0x100148a0
10003d5c:	1001489c 	.word	0x1001489c
10003d60:	2000229c 	.word	0x2000229c

10003d64 <resetd_init>:
10003d64:	4770      	bx	lr
10003d66:	bf00      	nop

10003d68 <resetd_reset>:
10003d68:	2200      	movs	r2, #0
10003d6a:	4b01      	ldr	r3, [pc, #4]	@ (10003d70 <resetd_reset+0x8>)
10003d6c:	701a      	strb	r2, [r3, #0]
10003d6e:	4770      	bx	lr
10003d70:	20025165 	.word	0x20025165

10003d74 <resetd_open>:
10003d74:	794b      	ldrb	r3, [r1, #5]
10003d76:	2bff      	cmp	r3, #255	@ 0xff
10003d78:	d10b      	bne.n	10003d92 <resetd_open+0x1e>
10003d7a:	7988      	ldrb	r0, [r1, #6]
10003d7c:	b948      	cbnz	r0, 10003d92 <resetd_open+0x1e>
10003d7e:	79cb      	ldrb	r3, [r1, #7]
10003d80:	2b01      	cmp	r3, #1
10003d82:	d107      	bne.n	10003d94 <resetd_open+0x20>
10003d84:	2a08      	cmp	r2, #8
10003d86:	d905      	bls.n	10003d94 <resetd_open+0x20>
10003d88:	4b03      	ldr	r3, [pc, #12]	@ (10003d98 <resetd_open+0x24>)
10003d8a:	788a      	ldrb	r2, [r1, #2]
10003d8c:	2009      	movs	r0, #9
10003d8e:	701a      	strb	r2, [r3, #0]
10003d90:	4770      	bx	lr
10003d92:	2000      	movs	r0, #0
10003d94:	4770      	bx	lr
10003d96:	bf00      	nop
10003d98:	20025165 	.word	0x20025165

10003d9c <resetd_xfer_cb>:
10003d9c:	2001      	movs	r0, #1
10003d9e:	4770      	bx	lr

10003da0 <resetd_control_xfer_cb>:
10003da0:	2901      	cmp	r1, #1
10003da2:	d001      	beq.n	10003da8 <resetd_control_xfer_cb+0x8>
10003da4:	2001      	movs	r0, #1
10003da6:	4770      	bx	lr
10003da8:	b508      	push	{r3, lr}
10003daa:	4b0f      	ldr	r3, [pc, #60]	@ (10003de8 <resetd_control_xfer_cb+0x48>)
10003dac:	8891      	ldrh	r1, [r2, #4]
10003dae:	781b      	ldrb	r3, [r3, #0]
10003db0:	4299      	cmp	r1, r3
10003db2:	d001      	beq.n	10003db8 <resetd_control_xfer_cb+0x18>
10003db4:	2000      	movs	r0, #0
10003db6:	bd08      	pop	{r3, pc}
10003db8:	7853      	ldrb	r3, [r2, #1]
10003dba:	2b01      	cmp	r3, #1
10003dbc:	d008      	beq.n	10003dd0 <resetd_control_xfer_cb+0x30>
10003dbe:	2b02      	cmp	r3, #2
10003dc0:	d1f8      	bne.n	10003db4 <resetd_control_xfer_cb+0x14>
10003dc2:	2100      	movs	r1, #0
10003dc4:	2264      	movs	r2, #100	@ 0x64
10003dc6:	4608      	mov	r0, r1
10003dc8:	f7fd fde0 	bl	1000198c <watchdog_reboot>
10003dcc:	2001      	movs	r0, #1
10003dce:	bd08      	pop	{r3, pc}
10003dd0:	8851      	ldrh	r1, [r2, #2]
10003dd2:	f411 7080 	ands.w	r0, r1, #256	@ 0x100
10003dd6:	bf1c      	itt	ne
10003dd8:	0a48      	lsrne	r0, r1, #9
10003dda:	fa03 f000 	lslne.w	r0, r3, r0
10003dde:	f001 017f 	and.w	r1, r1, #127	@ 0x7f
10003de2:	f7fd ff43 	bl	10001c6c <rom_reset_usb_boot>
10003de6:	bf00      	nop
10003de8:	20025165 	.word	0x20025165

10003dec <tud_descriptor_bos_cb>:
10003dec:	4800      	ldr	r0, [pc, #0]	@ (10003df0 <tud_descriptor_bos_cb+0x4>)
10003dee:	4770      	bx	lr
10003df0:	100139d8 	.word	0x100139d8

10003df4 <tud_vendor_control_xfer_cb>:
10003df4:	2901      	cmp	r1, #1
10003df6:	d107      	bne.n	10003e08 <tud_vendor_control_xfer_cb+0x14>
10003df8:	7853      	ldrb	r3, [r2, #1]
10003dfa:	2b01      	cmp	r3, #1
10003dfc:	d102      	bne.n	10003e04 <tud_vendor_control_xfer_cb+0x10>
10003dfe:	8893      	ldrh	r3, [r2, #4]
10003e00:	2b07      	cmp	r3, #7
10003e02:	d003      	beq.n	10003e0c <tud_vendor_control_xfer_cb+0x18>
10003e04:	2000      	movs	r0, #0
10003e06:	4770      	bx	lr
10003e08:	2001      	movs	r0, #1
10003e0a:	4770      	bx	lr
10003e0c:	4611      	mov	r1, r2
10003e0e:	23a6      	movs	r3, #166	@ 0xa6
10003e10:	4a01      	ldr	r2, [pc, #4]	@ (10003e18 <tud_vendor_control_xfer_cb+0x24>)
10003e12:	f001 ba2d 	b.w	10005270 <tud_control_xfer>
10003e16:	bf00      	nop
10003e18:	10013930 	.word	0x10013930

10003e1c <usbd_app_driver_get_cb>:
10003e1c:	4603      	mov	r3, r0
10003e1e:	2201      	movs	r2, #1
10003e20:	4801      	ldr	r0, [pc, #4]	@ (10003e28 <usbd_app_driver_get_cb+0xc>)
10003e22:	701a      	strb	r2, [r3, #0]
10003e24:	4770      	bx	lr
10003e26:	bf00      	nop
10003e28:	10013910 	.word	0x10013910

10003e2c <tud_cdc_line_coding_cb>:
10003e2c:	b508      	push	{r3, lr}
10003e2e:	680b      	ldr	r3, [r1, #0]
10003e30:	f5b3 6f96 	cmp.w	r3, #1200	@ 0x4b0
10003e34:	d000      	beq.n	10003e38 <tud_cdc_line_coding_cb+0xc>
10003e36:	bd08      	pop	{r3, pc}
10003e38:	2100      	movs	r1, #0
10003e3a:	4608      	mov	r0, r1
10003e3c:	f7fd ff16 	bl	10001c6c <rom_reset_usb_boot>

10003e40 <stdio_usb_set_chars_available_callback>:
10003e40:	4a02      	ldr	r2, [pc, #8]	@ (10003e4c <stdio_usb_set_chars_available_callback+0xc>)
10003e42:	4b03      	ldr	r3, [pc, #12]	@ (10003e50 <stdio_usb_set_chars_available_callback+0x10>)
10003e44:	6010      	str	r0, [r2, #0]
10003e46:	6019      	str	r1, [r3, #0]
10003e48:	4770      	bx	lr
10003e4a:	bf00      	nop
10003e4c:	200032dc 	.word	0x200032dc
10003e50:	200032e4 	.word	0x200032e4

10003e54 <timer_task>:
10003e54:	4b18      	ldr	r3, [pc, #96]	@ (10003eb8 <timer_task+0x64>)
10003e56:	b570      	push	{r4, r5, r6, lr}
10003e58:	681a      	ldr	r2, [r3, #0]
10003e5a:	2a00      	cmp	r2, #0
10003e5c:	d028      	beq.n	10003eb0 <timer_task+0x5c>
10003e5e:	f3ef 8110 	mrs	r1, PRIMASK
10003e62:	b672      	cpsid	i
10003e64:	e8d2 4fcf 	ldaexb	r4, [r2]
10003e68:	2001      	movs	r0, #1
10003e6a:	2c00      	cmp	r4, #0
10003e6c:	d1fa      	bne.n	10003e64 <timer_task+0x10>
10003e6e:	e8c2 0f44 	strexb	r4, r0, [r2]
10003e72:	2c00      	cmp	r4, #0
10003e74:	d1f6      	bne.n	10003e64 <timer_task+0x10>
10003e76:	f3bf 8f5f 	dmb	sy
10003e7a:	2200      	movs	r2, #0
10003e7c:	4c0f      	ldr	r4, [pc, #60]	@ (10003ebc <timer_task+0x68>)
10003e7e:	6818      	ldr	r0, [r3, #0]
10003e80:	6059      	str	r1, [r3, #4]
10003e82:	7022      	strb	r2, [r4, #0]
10003e84:	e8c0 2f8f 	stlb	r2, [r0]
10003e88:	f381 8810 	msr	PRIMASK, r1
10003e8c:	2400      	movs	r4, #0
10003e8e:	2500      	movs	r5, #0
10003e90:	4e0b      	ldr	r6, [pc, #44]	@ (10003ec0 <timer_task+0x6c>)
10003e92:	7830      	ldrb	r0, [r6, #0]
10003e94:	f7fc fc92 	bl	100007bc <irq_is_enabled>
10003e98:	b920      	cbnz	r0, 10003ea4 <timer_task+0x50>
10003e9a:	2400      	movs	r4, #0
10003e9c:	2500      	movs	r5, #0
10003e9e:	4620      	mov	r0, r4
10003ea0:	4629      	mov	r1, r5
10003ea2:	bd70      	pop	{r4, r5, r6, pc}
10003ea4:	7830      	ldrb	r0, [r6, #0]
10003ea6:	f7fc fc99 	bl	100007dc <irq_set_pending>
10003eaa:	4620      	mov	r0, r4
10003eac:	4629      	mov	r1, r5
10003eae:	bd70      	pop	{r4, r5, r6, pc}
10003eb0:	f44f 747a 	mov.w	r4, #1000	@ 0x3e8
10003eb4:	2500      	movs	r5, #0
10003eb6:	e7eb      	b.n	10003e90 <timer_task+0x3c>
10003eb8:	20003780 	.word	0x20003780
10003ebc:	20025167 	.word	0x20025167
10003ec0:	20025166 	.word	0x20025166

10003ec4 <usb_irq>:
10003ec4:	4b01      	ldr	r3, [pc, #4]	@ (10003ecc <usb_irq+0x8>)
10003ec6:	7818      	ldrb	r0, [r3, #0]
10003ec8:	f7fc bc88 	b.w	100007dc <irq_set_pending>
10003ecc:	20025166 	.word	0x20025166

10003ed0 <stdio_usb_in_chars>:
10003ed0:	b538      	push	{r3, r4, r5, lr}
10003ed2:	4604      	mov	r4, r0
10003ed4:	2000      	movs	r0, #0
10003ed6:	460d      	mov	r5, r1
10003ed8:	f001 faec 	bl	100054b4 <tud_cdc_n_connected>
10003edc:	b3a8      	cbz	r0, 10003f4a <stdio_usb_in_chars+0x7a>
10003ede:	2000      	movs	r0, #0
10003ee0:	f001 fafe 	bl	100054e0 <tud_cdc_n_available>
10003ee4:	b388      	cbz	r0, 10003f4a <stdio_usb_in_chars+0x7a>
10003ee6:	f7fd fbcd 	bl	10001684 <time_us_64>
10003eea:	f04f 3eff 	mov.w	lr, #4294967295	@ 0xffffffff
10003eee:	f06f 4c00 	mvn.w	ip, #2147483648	@ 0x80000000
10003ef2:	4a17      	ldr	r2, [pc, #92]	@ (10003f50 <stdio_usb_in_chars+0x80>)
10003ef4:	1882      	adds	r2, r0, r2
10003ef6:	f141 0300 	adc.w	r3, r1, #0
10003efa:	4596      	cmp	lr, r2
10003efc:	eb7c 0103 	sbcs.w	r1, ip, r3
10003f00:	bf3c      	itt	cc
10003f02:	4672      	movcc	r2, lr
10003f04:	4663      	movcc	r3, ip
10003f06:	4813      	ldr	r0, [pc, #76]	@ (10003f54 <stdio_usb_in_chars+0x84>)
10003f08:	f00e fdce 	bl	10012aa8 <__mutex_try_enter_block_until_veneer>
10003f0c:	b1e8      	cbz	r0, 10003f4a <stdio_usb_in_chars+0x7a>
10003f0e:	2000      	movs	r0, #0
10003f10:	f001 fad0 	bl	100054b4 <tud_cdc_n_connected>
10003f14:	b958      	cbnz	r0, 10003f2e <stdio_usb_in_chars+0x5e>
10003f16:	2100      	movs	r1, #0
10003f18:	f04f 30ff 	mov.w	r0, #4294967295	@ 0xffffffff
10003f1c:	f000 fd00 	bl	10004920 <tud_task_ext>
10003f20:	f06f 0402 	mvn.w	r4, #2
10003f24:	480b      	ldr	r0, [pc, #44]	@ (10003f54 <stdio_usb_in_chars+0x84>)
10003f26:	f00e fda7 	bl	10012a78 <__mutex_exit_veneer>
10003f2a:	4620      	mov	r0, r4
10003f2c:	bd38      	pop	{r3, r4, r5, pc}
10003f2e:	2000      	movs	r0, #0
10003f30:	f001 fad6 	bl	100054e0 <tud_cdc_n_available>
10003f34:	2800      	cmp	r0, #0
10003f36:	d0ee      	beq.n	10003f16 <stdio_usb_in_chars+0x46>
10003f38:	4621      	mov	r1, r4
10003f3a:	462a      	mov	r2, r5
10003f3c:	2000      	movs	r0, #0
10003f3e:	f001 fadb 	bl	100054f8 <tud_cdc_n_read>
10003f42:	4604      	mov	r4, r0
10003f44:	2800      	cmp	r0, #0
10003f46:	d1ed      	bne.n	10003f24 <stdio_usb_in_chars+0x54>
10003f48:	e7ea      	b.n	10003f20 <stdio_usb_in_chars+0x50>
10003f4a:	f06f 0402 	mvn.w	r4, #2
10003f4e:	e7ec      	b.n	10003f2a <stdio_usb_in_chars+0x5a>
10003f50:	000f4240 	.word	0x000f4240
10003f54:	20003a50 	.word	0x20003a50

10003f58 <stdio_usb_out_flush>:
10003f58:	b508      	push	{r3, lr}
10003f5a:	f7fd fb93 	bl	10001684 <time_us_64>
10003f5e:	f04f 3eff 	mov.w	lr, #4294967295	@ 0xffffffff
10003f62:	f06f 4c00 	mvn.w	ip, #2147483648	@ 0x80000000
10003f66:	4a0f      	ldr	r2, [pc, #60]	@ (10003fa4 <stdio_usb_out_flush+0x4c>)
10003f68:	1882      	adds	r2, r0, r2
10003f6a:	f141 0300 	adc.w	r3, r1, #0
10003f6e:	4596      	cmp	lr, r2
10003f70:	eb7c 0103 	sbcs.w	r1, ip, r3
10003f74:	bf3c      	itt	cc
10003f76:	4672      	movcc	r2, lr
10003f78:	4663      	movcc	r3, ip
10003f7a:	480b      	ldr	r0, [pc, #44]	@ (10003fa8 <stdio_usb_out_flush+0x50>)
10003f7c:	f00e fd94 	bl	10012aa8 <__mutex_try_enter_block_until_veneer>
10003f80:	b170      	cbz	r0, 10003fa0 <stdio_usb_out_flush+0x48>
10003f82:	f04f 30ff 	mov.w	r0, #4294967295	@ 0xffffffff
10003f86:	2100      	movs	r1, #0
10003f88:	f000 fcca 	bl	10004920 <tud_task_ext>
10003f8c:	2000      	movs	r0, #0
10003f8e:	f001 fafb 	bl	10005588 <tud_cdc_n_write_flush>
10003f92:	2800      	cmp	r0, #0
10003f94:	d1f5      	bne.n	10003f82 <stdio_usb_out_flush+0x2a>
10003f96:	e8bd 4008 	ldmia.w	sp!, {r3, lr}
10003f9a:	4803      	ldr	r0, [pc, #12]	@ (10003fa8 <stdio_usb_out_flush+0x50>)
10003f9c:	f00e bd6c 	b.w	10012a78 <__mutex_exit_veneer>
10003fa0:	bd08      	pop	{r3, pc}
10003fa2:	bf00      	nop
10003fa4:	000f4240 	.word	0x000f4240
10003fa8:	20003a50 	.word	0x20003a50

10003fac <stdio_usb_out_chars>:
10003fac:	e92d 43f8 	stmdb	sp!, {r3, r4, r5, r6, r7, r8, r9, lr}
10003fb0:	4607      	mov	r7, r0
10003fb2:	460e      	mov	r6, r1
10003fb4:	f7fd fb66 	bl	10001684 <time_us_64>
10003fb8:	f04f 35ff 	mov.w	r5, #4294967295	@ 0xffffffff
10003fbc:	f06f 4400 	mvn.w	r4, #2147483648	@ 0x80000000
10003fc0:	4a33      	ldr	r2, [pc, #204]	@ (10004090 <stdio_usb_out_chars+0xe4>)
10003fc2:	1882      	adds	r2, r0, r2
10003fc4:	f141 0300 	adc.w	r3, r1, #0
10003fc8:	4295      	cmp	r5, r2
10003fca:	eb74 0103 	sbcs.w	r1, r4, r3
10003fce:	bf3c      	itt	cc
10003fd0:	462a      	movcc	r2, r5
10003fd2:	4623      	movcc	r3, r4
10003fd4:	482f      	ldr	r0, [pc, #188]	@ (10004094 <stdio_usb_out_chars+0xe8>)
10003fd6:	f00e fd67 	bl	10012aa8 <__mutex_try_enter_block_until_veneer>
10003fda:	b908      	cbnz	r0, 10003fe0 <stdio_usb_out_chars+0x34>
10003fdc:	e8bd 83f8 	ldmia.w	sp!, {r3, r4, r5, r6, r7, r8, r9, pc}
10003fe0:	2000      	movs	r0, #0
10003fe2:	f001 fa67 	bl	100054b4 <tud_cdc_n_connected>
10003fe6:	2800      	cmp	r0, #0
10003fe8:	d048      	beq.n	1000407c <stdio_usb_out_chars+0xd0>
10003fea:	2e00      	cmp	r6, #0
10003fec:	dd41      	ble.n	10004072 <stdio_usb_out_chars+0xc6>
10003fee:	2500      	movs	r5, #0
10003ff0:	f8df 80a4 	ldr.w	r8, [pc, #164]	@ 10004098 <stdio_usb_out_chars+0xec>
10003ff4:	f8df 90a4 	ldr.w	r9, [pc, #164]	@ 1000409c <stdio_usb_out_chars+0xf0>
10003ff8:	e013      	b.n	10004022 <stdio_usb_out_chars+0x76>
10003ffa:	4622      	mov	r2, r4
10003ffc:	2000      	movs	r0, #0
10003ffe:	f001 fb09 	bl	10005614 <tud_cdc_n_write>
10004002:	2100      	movs	r1, #0
10004004:	4604      	mov	r4, r0
10004006:	f04f 30ff 	mov.w	r0, #4294967295	@ 0xffffffff
1000400a:	f000 fc89 	bl	10004920 <tud_task_ext>
1000400e:	2000      	movs	r0, #0
10004010:	f001 faba 	bl	10005588 <tud_cdc_n_write_flush>
10004014:	f7fd fb36 	bl	10001684 <time_us_64>
10004018:	e9c8 0100 	strd	r0, r1, [r8]
1000401c:	4425      	add	r5, r4
1000401e:	42ae      	cmp	r6, r5
10004020:	dd27      	ble.n	10004072 <stdio_usb_out_chars+0xc6>
10004022:	2000      	movs	r0, #0
10004024:	f001 fb16 	bl	10005654 <tud_cdc_n_write_available>
10004028:	1b74      	subs	r4, r6, r5
1000402a:	4284      	cmp	r4, r0
1000402c:	bfa8      	it	ge
1000402e:	4604      	movge	r4, r0
10004030:	1979      	adds	r1, r7, r5
10004032:	2c00      	cmp	r4, #0
10004034:	d1e1      	bne.n	10003ffa <stdio_usb_out_chars+0x4e>
10004036:	4621      	mov	r1, r4
10004038:	f04f 30ff 	mov.w	r0, #4294967295	@ 0xffffffff
1000403c:	f000 fc70 	bl	10004920 <tud_task_ext>
10004040:	4620      	mov	r0, r4
10004042:	f001 faa1 	bl	10005588 <tud_cdc_n_write_flush>
10004046:	4620      	mov	r0, r4
10004048:	f001 fa34 	bl	100054b4 <tud_cdc_n_connected>
1000404c:	b188      	cbz	r0, 10004072 <stdio_usb_out_chars+0xc6>
1000404e:	4620      	mov	r0, r4
10004050:	f001 fb00 	bl	10005654 <tud_cdc_n_write_available>
10004054:	2800      	cmp	r0, #0
10004056:	d1e2      	bne.n	1000401e <stdio_usb_out_chars+0x72>
10004058:	f7fd fb14 	bl	10001684 <time_us_64>
1000405c:	f8d8 3000 	ldr.w	r3, [r8]
10004060:	f8d8 2004 	ldr.w	r2, [r8, #4]
10004064:	eb13 0309 	adds.w	r3, r3, r9
10004068:	f142 0200 	adc.w	r2, r2, #0
1000406c:	4283      	cmp	r3, r0
1000406e:	418a      	sbcs	r2, r1
10004070:	d2d5      	bcs.n	1000401e <stdio_usb_out_chars+0x72>
10004072:	4808      	ldr	r0, [pc, #32]	@ (10004094 <stdio_usb_out_chars+0xe8>)
10004074:	e8bd 43f8 	ldmia.w	sp!, {r3, r4, r5, r6, r7, r8, r9, lr}
10004078:	f00e bcfe 	b.w	10012a78 <__mutex_exit_veneer>
1000407c:	2000      	movs	r0, #0
1000407e:	2100      	movs	r1, #0
10004080:	4b05      	ldr	r3, [pc, #20]	@ (10004098 <stdio_usb_out_chars+0xec>)
10004082:	e9c3 0100 	strd	r0, r1, [r3]
10004086:	e8bd 43f8 	ldmia.w	sp!, {r3, r4, r5, r6, r7, r8, r9, lr}
1000408a:	4802      	ldr	r0, [pc, #8]	@ (10004094 <stdio_usb_out_chars+0xe8>)
1000408c:	f00e bcf4 	b.w	10012a78 <__mutex_exit_veneer>
10004090:	000f4240 	.word	0x000f4240
10004094:	20003a50 	.word	0x20003a50
10004098:	20002f68 	.word	0x20002f68
1000409c:	0007a120 	.word	0x0007a120

100040a0 <low_priority_worker_irq>:
100040a0:	b530      	push	{r4, r5, lr}
100040a2:	2100      	movs	r1, #0
100040a4:	b085      	sub	sp, #20
100040a6:	482e      	ldr	r0, [pc, #184]	@ (10004160 <low_priority_worker_irq+0xc0>)
100040a8:	f00e fd12 	bl	10012ad0 <__mutex_try_enter_veneer>
100040ac:	b9f0      	cbnz	r0, 100040ec <low_priority_worker_irq+0x4c>
100040ae:	4b2d      	ldr	r3, [pc, #180]	@ (10004164 <low_priority_worker_irq+0xc4>)
100040b0:	681a      	ldr	r2, [r3, #0]
100040b2:	b1ca      	cbz	r2, 100040e8 <low_priority_worker_irq+0x48>
100040b4:	f3ef 8110 	mrs	r1, PRIMASK
100040b8:	b672      	cpsid	i
100040ba:	e8d2 5fcf 	ldaexb	r5, [r2]
100040be:	2401      	movs	r4, #1
100040c0:	2d00      	cmp	r5, #0
100040c2:	d1fa      	bne.n	100040ba <low_priority_worker_irq+0x1a>
100040c4:	e8c2 4f45 	strexb	r5, r4, [r2]
100040c8:	2d00      	cmp	r5, #0
100040ca:	d1f6      	bne.n	100040ba <low_priority_worker_irq+0x1a>
100040cc:	f3bf 8f5f 	dmb	sy
100040d0:	4c25      	ldr	r4, [pc, #148]	@ (10004168 <low_priority_worker_irq+0xc8>)
100040d2:	681d      	ldr	r5, [r3, #0]
100040d4:	7822      	ldrb	r2, [r4, #0]
100040d6:	6059      	str	r1, [r3, #4]
100040d8:	b2d3      	uxtb	r3, r2
100040da:	2201      	movs	r2, #1
100040dc:	7022      	strb	r2, [r4, #0]
100040de:	e8c5 0f8f 	stlb	r0, [r5]
100040e2:	f381 8810 	msr	PRIMASK, r1
100040e6:	b1cb      	cbz	r3, 1000411c <low_priority_worker_irq+0x7c>
100040e8:	b005      	add	sp, #20
100040ea:	bd30      	pop	{r4, r5, pc}
100040ec:	2100      	movs	r1, #0
100040ee:	f04f 30ff 	mov.w	r0, #4294967295	@ 0xffffffff
100040f2:	f000 fc15 	bl	10004920 <tud_task_ext>
100040f6:	2000      	movs	r0, #0
100040f8:	f001 f9f2 	bl	100054e0 <tud_cdc_n_available>
100040fc:	4604      	mov	r4, r0
100040fe:	4818      	ldr	r0, [pc, #96]	@ (10004160 <low_priority_worker_irq+0xc0>)
10004100:	f00e fcba 	bl	10012a78 <__mutex_exit_veneer>
10004104:	2c00      	cmp	r4, #0
10004106:	d0ef      	beq.n	100040e8 <low_priority_worker_irq+0x48>
10004108:	4b18      	ldr	r3, [pc, #96]	@ (1000416c <low_priority_worker_irq+0xcc>)
1000410a:	681b      	ldr	r3, [r3, #0]
1000410c:	2b00      	cmp	r3, #0
1000410e:	d0eb      	beq.n	100040e8 <low_priority_worker_irq+0x48>
10004110:	4a17      	ldr	r2, [pc, #92]	@ (10004170 <low_priority_worker_irq+0xd0>)
10004112:	6810      	ldr	r0, [r2, #0]
10004114:	b005      	add	sp, #20
10004116:	e8bd 4030 	ldmia.w	sp!, {r4, r5, lr}
1000411a:	4718      	bx	r3
1000411c:	f7fd f87a 	bl	10001214 <alarm_pool_get_default>
10004120:	4604      	mov	r4, r0
10004122:	f7fd faaf 	bl	10001684 <time_us_64>
10004126:	f04f 3cff 	mov.w	ip, #4294967295	@ 0xffffffff
1000412a:	f06f 4500 	mvn.w	r5, #2147483648	@ 0x80000000
1000412e:	f510 727a 	adds.w	r2, r0, #1000	@ 0x3e8
10004132:	f141 0300 	adc.w	r3, r1, #0
10004136:	4594      	cmp	ip, r2
10004138:	eb75 0103 	sbcs.w	r1, r5, r3
1000413c:	bf38      	it	cc
1000413e:	462b      	movcc	r3, r5
10004140:	f04f 0100 	mov.w	r1, #0
10004144:	f04f 0501 	mov.w	r5, #1
10004148:	4620      	mov	r0, r4
1000414a:	4c0a      	ldr	r4, [pc, #40]	@ (10004174 <low_priority_worker_irq+0xd4>)
1000414c:	bf38      	it	cc
1000414e:	4662      	movcc	r2, ip
10004150:	e9cd 1501 	strd	r1, r5, [sp, #4]
10004154:	9400      	str	r4, [sp, #0]
10004156:	f7fd f861 	bl	1000121c <alarm_pool_add_alarm_at>
1000415a:	b005      	add	sp, #20
1000415c:	bd30      	pop	{r4, r5, pc}
1000415e:	bf00      	nop
10004160:	20003a50 	.word	0x20003a50
10004164:	20003780 	.word	0x20003780
10004168:	20025167 	.word	0x20025167
1000416c:	200032dc 	.word	0x200032dc
10004170:	200032e4 	.word	0x200032e4
10004174:	10003e55 	.word	0x10003e55

10004178 <stdio_usb_init>:
10004178:	f04f 4350 	mov.w	r3, #3489660928	@ 0xd0000000
1000417c:	b530      	push	{r4, r5, lr}
1000417e:	b085      	sub	sp, #20
10004180:	681c      	ldr	r4, [r3, #0]
10004182:	f7fd f847 	bl	10001214 <alarm_pool_get_default>
10004186:	f7fd f95b 	bl	10001440 <alarm_pool_core_num>
1000418a:	42a0      	cmp	r0, r4
1000418c:	d002      	beq.n	10004194 <stdio_usb_init+0x1c>
1000418e:	2000      	movs	r0, #0
10004190:	b005      	add	sp, #20
10004192:	bd30      	pop	{r4, r5, pc}
10004194:	4b29      	ldr	r3, [pc, #164]	@ (1000423c <stdio_usb_init+0xc4>)
10004196:	781b      	ldrb	r3, [r3, #0]
10004198:	f001 fd7e 	bl	10005c98 <tusb_init>
1000419c:	4828      	ldr	r0, [pc, #160]	@ (10004240 <stdio_usb_init+0xc8>)
1000419e:	6803      	ldr	r3, [r0, #0]
100041a0:	2b00      	cmp	r3, #0
100041a2:	d047      	beq.n	10004234 <stdio_usb_init+0xbc>
100041a4:	2001      	movs	r0, #1
100041a6:	f7fc fdcb 	bl	10000d40 <user_irq_claim_unused>
100041aa:	4603      	mov	r3, r0
100041ac:	4c25      	ldr	r4, [pc, #148]	@ (10004244 <stdio_usb_init+0xcc>)
100041ae:	4926      	ldr	r1, [pc, #152]	@ (10004248 <stdio_usb_init+0xd0>)
100041b0:	b2c0      	uxtb	r0, r0
100041b2:	7023      	strb	r3, [r4, #0]
100041b4:	f7fc fb30 	bl	10000818 <irq_set_exclusive_handler>
100041b8:	7820      	ldrb	r0, [r4, #0]
100041ba:	2101      	movs	r1, #1
100041bc:	f7fc fae8 	bl	10000790 <irq_set_enabled>
100041c0:	200e      	movs	r0, #14
100041c2:	f7fc fb17 	bl	100007f4 <irq_has_shared_handler>
100041c6:	bb40      	cbnz	r0, 1000421a <stdio_usb_init+0xa2>
100041c8:	4b20      	ldr	r3, [pc, #128]	@ (1000424c <stdio_usb_init+0xd4>)
100041ca:	2501      	movs	r5, #1
100041cc:	e9c3 0000 	strd	r0, r0, [r3]
100041d0:	f7fd f820 	bl	10001214 <alarm_pool_get_default>
100041d4:	4604      	mov	r4, r0
100041d6:	f7fd fa55 	bl	10001684 <time_us_64>
100041da:	f04f 3eff 	mov.w	lr, #4294967295	@ 0xffffffff
100041de:	f06f 4c00 	mvn.w	ip, #2147483648	@ 0x80000000
100041e2:	f510 727a 	adds.w	r2, r0, #1000	@ 0x3e8
100041e6:	f141 0300 	adc.w	r3, r1, #0
100041ea:	4596      	cmp	lr, r2
100041ec:	eb7c 0103 	sbcs.w	r1, ip, r3
100041f0:	f04f 0100 	mov.w	r1, #0
100041f4:	4620      	mov	r0, r4
100041f6:	4c16      	ldr	r4, [pc, #88]	@ (10004250 <stdio_usb_init+0xd8>)
100041f8:	bf3c      	itt	cc
100041fa:	4672      	movcc	r2, lr
100041fc:	4663      	movcc	r3, ip
100041fe:	e9cd 1501 	strd	r1, r5, [sp, #4]
10004202:	9400      	str	r4, [sp, #0]
10004204:	f7fd f80a 	bl	1000121c <alarm_pool_add_alarm_at>
10004208:	2800      	cmp	r0, #0
1000420a:	dbc0      	blt.n	1000418e <stdio_usb_init+0x16>
1000420c:	2101      	movs	r1, #1
1000420e:	4811      	ldr	r0, [pc, #68]	@ (10004254 <stdio_usb_init+0xdc>)
10004210:	f7ff fbb6 	bl	10003980 <stdio_set_driver_enabled>
10004214:	2001      	movs	r0, #1
10004216:	b005      	add	sp, #20
10004218:	bd30      	pop	{r4, r5, pc}
1000421a:	2001      	movs	r0, #1
1000421c:	f7fc fa74 	bl	10000708 <spin_lock_claim_unused>
10004220:	4601      	mov	r1, r0
10004222:	480a      	ldr	r0, [pc, #40]	@ (1000424c <stdio_usb_init+0xd4>)
10004224:	f7fc fdec 	bl	10000e00 <critical_section_init_with_lock_num>
10004228:	2200      	movs	r2, #0
1000422a:	200e      	movs	r0, #14
1000422c:	490a      	ldr	r1, [pc, #40]	@ (10004258 <stdio_usb_init+0xe0>)
1000422e:	f7fc fb23 	bl	10000878 <irq_add_shared_handler>
10004232:	e7eb      	b.n	1000420c <stdio_usb_init+0x94>
10004234:	f7fc fdc8 	bl	10000dc8 <mutex_init>
10004238:	e7b4      	b.n	100041a4 <stdio_usb_init+0x2c>
1000423a:	bf00      	nop
1000423c:	100148a8 	.word	0x100148a8
10004240:	20003a50 	.word	0x20003a50
10004244:	20025166 	.word	0x20025166
10004248:	100040a1 	.word	0x100040a1
1000424c:	20003780 	.word	0x20003780
10004250:	10003e55 	.word	0x10003e55
10004254:	200022b4 	.word	0x200022b4
10004258:	10003ec5 	.word	0x10003ec5

1000425c <tud_descriptor_device_cb>:
1000425c:	4800      	ldr	r0, [pc, #0]	@ (10004260 <tud_descriptor_device_cb+0x4>)
1000425e:	4770      	bx	lr
10004260:	10013a74 	.word	0x10013a74

10004264 <tud_descriptor_configuration_cb>:
10004264:	4800      	ldr	r0, [pc, #0]	@ (10004268 <tud_descriptor_configuration_cb+0x4>)
10004266:	4770      	bx	lr
10004268:	10013a20 	.word	0x10013a20

1000426c <tud_descriptor_string_cb>:
1000426c:	b538      	push	{r3, r4, r5, lr}
1000426e:	4b18      	ldr	r3, [pc, #96]	@ (100042d0 <tud_descriptor_string_cb+0x64>)
10004270:	4604      	mov	r4, r0
10004272:	781a      	ldrb	r2, [r3, #0]
10004274:	b30a      	cbz	r2, 100042ba <tud_descriptor_string_cb+0x4e>
10004276:	b944      	cbnz	r4, 1000428a <tud_descriptor_string_cb+0x1e>
10004278:	f240 4209 	movw	r2, #1033	@ 0x409
1000427c:	f44f 7341 	mov.w	r3, #772	@ 0x304
10004280:	4d14      	ldr	r5, [pc, #80]	@ (100042d4 <tud_descriptor_string_cb+0x68>)
10004282:	806a      	strh	r2, [r5, #2]
10004284:	4813      	ldr	r0, [pc, #76]	@ (100042d4 <tud_descriptor_string_cb+0x68>)
10004286:	802b      	strh	r3, [r5, #0]
10004288:	bd38      	pop	{r3, r4, r5, pc}
1000428a:	2c05      	cmp	r4, #5
1000428c:	d81a      	bhi.n	100042c4 <tud_descriptor_string_cb+0x58>
1000428e:	4b12      	ldr	r3, [pc, #72]	@ (100042d8 <tud_descriptor_string_cb+0x6c>)
10004290:	4d10      	ldr	r5, [pc, #64]	@ (100042d4 <tud_descriptor_string_cb+0x68>)
10004292:	f853 1024 	ldr.w	r1, [r3, r4, lsl #2]
10004296:	4628      	mov	r0, r5
10004298:	2300      	movs	r3, #0
1000429a:	3901      	subs	r1, #1
1000429c:	e003      	b.n	100042a6 <tud_descriptor_string_cb+0x3a>
1000429e:	2b13      	cmp	r3, #19
100042a0:	f820 2f02 	strh.w	r2, [r0, #2]!
100042a4:	d010      	beq.n	100042c8 <tud_descriptor_string_cb+0x5c>
100042a6:	f811 2f01 	ldrb.w	r2, [r1, #1]!
100042aa:	3301      	adds	r3, #1
100042ac:	b2db      	uxtb	r3, r3
100042ae:	2a00      	cmp	r2, #0
100042b0:	d1f5      	bne.n	1000429e <tud_descriptor_string_cb+0x32>
100042b2:	005b      	lsls	r3, r3, #1
100042b4:	f443 7340 	orr.w	r3, r3, #768	@ 0x300
100042b8:	e7e4      	b.n	10004284 <tud_descriptor_string_cb+0x18>
100042ba:	2111      	movs	r1, #17
100042bc:	4618      	mov	r0, r3
100042be:	f000 f825 	bl	1000430c <pico_get_unique_board_id_string>
100042c2:	e7d8      	b.n	10004276 <tud_descriptor_string_cb+0xa>
100042c4:	2000      	movs	r0, #0
100042c6:	bd38      	pop	{r3, r4, r5, pc}
100042c8:	f44f 734a 	mov.w	r3, #808	@ 0x328
100042cc:	e7da      	b.n	10004284 <tud_descriptor_string_cb+0x18>
100042ce:	bf00      	nop
100042d0:	20023b0c 	.word	0x20023b0c
100042d4:	20003318 	.word	0x20003318
100042d8:	10013a08 	.word	0x10013a08

100042dc <_retrieve_unique_id_on_boot>:
100042dc:	b500      	push	{lr}
100042de:	f245 3047 	movw	r0, #21319	@ 0x5347
100042e2:	b08b      	sub	sp, #44	@ 0x2c
100042e4:	f7fd fcb2 	bl	10001c4c <rom_func_lookup>
100042e8:	2201      	movs	r2, #1
100042ea:	4603      	mov	r3, r0
100042ec:	2109      	movs	r1, #9
100042ee:	a801      	add	r0, sp, #4
100042f0:	4798      	blx	r3
100042f2:	e9dd 3203 	ldrd	r3, r2, [sp, #12]
100042f6:	4904      	ldr	r1, [pc, #16]	@ (10004308 <_retrieve_unique_id_on_boot+0x2c>)
100042f8:	ba12      	rev	r2, r2
100042fa:	ba1b      	rev	r3, r3
100042fc:	e9c1 2300 	strd	r2, r3, [r1]
10004300:	b00b      	add	sp, #44	@ 0x2c
10004302:	f85d fb04 	ldr.w	pc, [sp], #4
10004306:	bf00      	nop
10004308:	20003a44 	.word	0x20003a44

1000430c <pico_get_unique_board_id_string>:
1000430c:	2901      	cmp	r1, #1
1000430e:	f101 33ff 	add.w	r3, r1, #4294967295	@ 0xffffffff
10004312:	f000 80b3 	beq.w	1000447c <pico_get_unique_board_id_string+0x170>
10004316:	495d      	ldr	r1, [pc, #372]	@ (1000448c <pico_get_unique_board_id_string+0x180>)
10004318:	780a      	ldrb	r2, [r1, #0]
1000431a:	ea4f 1c12 	mov.w	ip, r2, lsr #4
1000431e:	2a9f      	cmp	r2, #159	@ 0x9f
10004320:	bf8c      	ite	hi
10004322:	f10c 0c37 	addhi.w	ip, ip, #55	@ 0x37
10004326:	f10c 0c30 	addls.w	ip, ip, #48	@ 0x30
1000432a:	2b01      	cmp	r3, #1
1000432c:	f880 c000 	strb.w	ip, [r0]
10004330:	f000 80a7 	beq.w	10004482 <pico_get_unique_board_id_string+0x176>
10004334:	f002 020f 	and.w	r2, r2, #15
10004338:	2a09      	cmp	r2, #9
1000433a:	bf8c      	ite	hi
1000433c:	3237      	addhi	r2, #55	@ 0x37
1000433e:	3230      	addls	r2, #48	@ 0x30
10004340:	2b02      	cmp	r3, #2
10004342:	7042      	strb	r2, [r0, #1]
10004344:	f000 809d 	beq.w	10004482 <pico_get_unique_board_id_string+0x176>
10004348:	784a      	ldrb	r2, [r1, #1]
1000434a:	ea4f 1c12 	mov.w	ip, r2, lsr #4
1000434e:	2a9f      	cmp	r2, #159	@ 0x9f
10004350:	bf8c      	ite	hi
10004352:	f10c 0c37 	addhi.w	ip, ip, #55	@ 0x37
10004356:	f10c 0c30 	addls.w	ip, ip, #48	@ 0x30
1000435a:	2b03      	cmp	r3, #3
1000435c:	f880 c002 	strb.w	ip, [r0, #2]
10004360:	f000 808f 	beq.w	10004482 <pico_get_unique_board_id_string+0x176>
10004364:	f002 020f 	and.w	r2, r2, #15
10004368:	2a09      	cmp	r2, #9
1000436a:	bf8c      	ite	hi
1000436c:	3237      	addhi	r2, #55	@ 0x37
1000436e:	3230      	addls	r2, #48	@ 0x30
10004370:	2b04      	cmp	r3, #4
10004372:	70c2      	strb	r2, [r0, #3]
10004374:	f000 8085 	beq.w	10004482 <pico_get_unique_board_id_string+0x176>
10004378:	788a      	ldrb	r2, [r1, #2]
1000437a:	ea4f 1c12 	mov.w	ip, r2, lsr #4
1000437e:	2a9f      	cmp	r2, #159	@ 0x9f
10004380:	bf8c      	ite	hi
10004382:	f10c 0c37 	addhi.w	ip, ip, #55	@ 0x37
10004386:	f10c 0c30 	addls.w	ip, ip, #48	@ 0x30
1000438a:	2b05      	cmp	r3, #5
1000438c:	f880 c004 	strb.w	ip, [r0, #4]
10004390:	d077      	beq.n	10004482 <pico_get_unique_board_id_string+0x176>
10004392:	f002 020f 	and.w	r2, r2, #15
10004396:	2a09      	cmp	r2, #9
10004398:	bf8c      	ite	hi
1000439a:	3237      	addhi	r2, #55	@ 0x37
1000439c:	3230      	addls	r2, #48	@ 0x30
1000439e:	2b06      	cmp	r3, #6
100043a0:	7142      	strb	r2, [r0, #5]
100043a2:	d06e      	beq.n	10004482 <pico_get_unique_board_id_string+0x176>
100043a4:	78ca      	ldrb	r2, [r1, #3]
100043a6:	ea4f 1c12 	mov.w	ip, r2, lsr #4
100043aa:	2a9f      	cmp	r2, #159	@ 0x9f
100043ac:	bf8c      	ite	hi
100043ae:	f10c 0c37 	addhi.w	ip, ip, #55	@ 0x37
100043b2:	f10c 0c30 	addls.w	ip, ip, #48	@ 0x30
100043b6:	2b07      	cmp	r3, #7
100043b8:	f880 c006 	strb.w	ip, [r0, #6]
100043bc:	d061      	beq.n	10004482 <pico_get_unique_board_id_string+0x176>
100043be:	f002 020f 	and.w	r2, r2, #15
100043c2:	2a09      	cmp	r2, #9
100043c4:	bf8c      	ite	hi
100043c6:	3237      	addhi	r2, #55	@ 0x37
100043c8:	3230      	addls	r2, #48	@ 0x30
100043ca:	2b08      	cmp	r3, #8
100043cc:	71c2      	strb	r2, [r0, #7]
100043ce:	d058      	beq.n	10004482 <pico_get_unique_board_id_string+0x176>
100043d0:	790a      	ldrb	r2, [r1, #4]
100043d2:	ea4f 1c12 	mov.w	ip, r2, lsr #4
100043d6:	2a9f      	cmp	r2, #159	@ 0x9f
100043d8:	bf8c      	ite	hi
100043da:	f10c 0c37 	addhi.w	ip, ip, #55	@ 0x37
100043de:	f10c 0c30 	addls.w	ip, ip, #48	@ 0x30
100043e2:	2b09      	cmp	r3, #9
100043e4:	f880 c008 	strb.w	ip, [r0, #8]
100043e8:	d04b      	beq.n	10004482 <pico_get_unique_board_id_string+0x176>
100043ea:	f002 020f 	and.w	r2, r2, #15
100043ee:	2a09      	cmp	r2, #9
100043f0:	bf8c      	ite	hi
100043f2:	3237      	addhi	r2, #55	@ 0x37
100043f4:	3230      	addls	r2, #48	@ 0x30
100043f6:	2b0a      	cmp	r3, #10
100043f8:	7242      	strb	r2, [r0, #9]
100043fa:	d042      	beq.n	10004482 <pico_get_unique_board_id_string+0x176>
100043fc:	794a      	ldrb	r2, [r1, #5]
100043fe:	ea4f 1c12 	mov.w	ip, r2, lsr #4
10004402:	2a9f      	cmp	r2, #159	@ 0x9f
10004404:	bf8c      	ite	hi
10004406:	f10c 0c37 	addhi.w	ip, ip, #55	@ 0x37
1000440a:	f10c 0c30 	addls.w	ip, ip, #48	@ 0x30
1000440e:	2b0b      	cmp	r3, #11
10004410:	f880 c00a 	strb.w	ip, [r0, #10]
10004414:	d035      	beq.n	10004482 <pico_get_unique_board_id_string+0x176>
10004416:	f002 020f 	and.w	r2, r2, #15
1000441a:	2a09      	cmp	r2, #9
1000441c:	bf8c      	ite	hi
1000441e:	3237      	addhi	r2, #55	@ 0x37
10004420:	3230      	addls	r2, #48	@ 0x30
10004422:	2b0c      	cmp	r3, #12
10004424:	72c2      	strb	r2, [r0, #11]
10004426:	d02c      	beq.n	10004482 <pico_get_unique_board_id_string+0x176>
10004428:	798a      	ldrb	r2, [r1, #6]
1000442a:	ea4f 1c12 	mov.w	ip, r2, lsr #4
1000442e:	2a9f      	cmp	r2, #159	@ 0x9f
10004430:	bf8c      	ite	hi
10004432:	f10c 0c37 	addhi.w	ip, ip, #55	@ 0x37
10004436:	f10c 0c30 	addls.w	ip, ip, #48	@ 0x30
1000443a:	2b0d      	cmp	r3, #13
1000443c:	f880 c00c 	strb.w	ip, [r0, #12]
10004440:	d01f      	beq.n	10004482 <pico_get_unique_board_id_string+0x176>
10004442:	f002 020f 	and.w	r2, r2, #15
10004446:	2a09      	cmp	r2, #9
10004448:	bf8c      	ite	hi
1000444a:	3237      	addhi	r2, #55	@ 0x37
1000444c:	3230      	addls	r2, #48	@ 0x30
1000444e:	2b0e      	cmp	r3, #14
10004450:	7342      	strb	r2, [r0, #13]
10004452:	d016      	beq.n	10004482 <pico_get_unique_board_id_string+0x176>
10004454:	79ca      	ldrb	r2, [r1, #7]
10004456:	0911      	lsrs	r1, r2, #4
10004458:	2a9f      	cmp	r2, #159	@ 0x9f
1000445a:	bf8c      	ite	hi
1000445c:	3137      	addhi	r1, #55	@ 0x37
1000445e:	3130      	addls	r1, #48	@ 0x30
10004460:	2b0f      	cmp	r3, #15
10004462:	7381      	strb	r1, [r0, #14]
10004464:	d00d      	beq.n	10004482 <pico_get_unique_board_id_string+0x176>
10004466:	f002 020f 	and.w	r2, r2, #15
1000446a:	2a09      	cmp	r2, #9
1000446c:	bf94      	ite	ls
1000446e:	3230      	addls	r2, #48	@ 0x30
10004470:	3237      	addhi	r2, #55	@ 0x37
10004472:	2b10      	cmp	r3, #16
10004474:	73c2      	strb	r2, [r0, #15]
10004476:	bf18      	it	ne
10004478:	3010      	addne	r0, #16
1000447a:	d002      	beq.n	10004482 <pico_get_unique_board_id_string+0x176>
1000447c:	2300      	movs	r3, #0
1000447e:	7003      	strb	r3, [r0, #0]
10004480:	4770      	bx	lr
10004482:	4418      	add	r0, r3
10004484:	2300      	movs	r3, #0
10004486:	7003      	strb	r3, [r0, #0]
10004488:	4770      	bx	lr
1000448a:	bf00      	nop
1000448c:	20003a44 	.word	0x20003a44

10004490 <dcd_init>:
10004490:	b570      	push	{r4, r5, r6, lr}
10004492:	f000 f92b 	bl	100046ec <rp2040_usb_init>
10004496:	230c      	movs	r3, #12
10004498:	2540      	movs	r5, #64	@ 0x40
1000449a:	4c1b      	ldr	r4, [pc, #108]	@ (10004508 <dcd_init+0x78>)
1000449c:	22ff      	movs	r2, #255	@ 0xff
1000449e:	200e      	movs	r0, #14
100044a0:	491a      	ldr	r1, [pc, #104]	@ (1000450c <dcd_init+0x7c>)
100044a2:	67a3      	str	r3, [r4, #120]	@ 0x78
100044a4:	f7fc f9e8 	bl	10000878 <irq_add_shared_handler>
100044a8:	4b19      	ldr	r3, [pc, #100]	@ (10004510 <dcd_init+0x80>)
100044aa:	2100      	movs	r1, #0
100044ac:	4618      	mov	r0, r3
100044ae:	462a      	mov	r2, r5
100044b0:	f00d f84c 	bl	1001154c <memset>
100044b4:	4603      	mov	r3, r0
100044b6:	2100      	movs	r1, #0
100044b8:	2080      	movs	r0, #128	@ 0x80
100044ba:	2601      	movs	r6, #1
100044bc:	4a15      	ldr	r2, [pc, #84]	@ (10004514 <dcd_init+0x84>)
100044be:	8458      	strh	r0, [r3, #34]	@ 0x22
100044c0:	609a      	str	r2, [r3, #8]
100044c2:	3a84      	subs	r2, #132	@ 0x84
100044c4:	6059      	str	r1, [r3, #4]
100044c6:	705e      	strb	r6, [r3, #1]
100044c8:	831d      	strh	r5, [r3, #24]
100044ca:	871d      	strh	r5, [r3, #56]	@ 0x38
100044cc:	f8c2 1084 	str.w	r1, [r2, #132]	@ 0x84
100044d0:	f8c2 1080 	str.w	r1, [r2, #128]	@ 0x80
100044d4:	f502 7280 	add.w	r2, r2, #256	@ 0x100
100044d8:	60da      	str	r2, [r3, #12]
100044da:	62da      	str	r2, [r3, #44]	@ 0x2c
100044dc:	3a80      	subs	r2, #128	@ 0x80
100044de:	f883 1021 	strb.w	r1, [r3, #33]	@ 0x21
100044e2:	f883 103b 	strb.w	r1, [r3, #59]	@ 0x3b
100044e6:	6259      	str	r1, [r3, #36]	@ 0x24
100044e8:	629a      	str	r2, [r3, #40]	@ 0x28
100044ea:	f00e fa95 	bl	10012a18 <__reset_non_control_endpoints_veneer>
100044ee:	f04f 5000 	mov.w	r0, #536870912	@ 0x20000000
100044f2:	f44f 3280 	mov.w	r2, #65536	@ 0x10000
100044f6:	4908      	ldr	r1, [pc, #32]	@ (10004518 <dcd_init+0x88>)
100044f8:	4b08      	ldr	r3, [pc, #32]	@ (1000451c <dcd_init+0x8c>)
100044fa:	6426      	str	r6, [r4, #64]	@ 0x40
100044fc:	64e0      	str	r0, [r4, #76]	@ 0x4c
100044fe:	f8c4 1090 	str.w	r1, [r4, #144]	@ 0x90
10004502:	64da      	str	r2, [r3, #76]	@ 0x4c
10004504:	bd70      	pop	{r4, r5, r6, pc}
10004506:	bf00      	nop
10004508:	50110000 	.word	0x50110000
1000450c:	200003f5 	.word	0x200003f5
10004510:	20003358 	.word	0x20003358
10004514:	50100084 	.word	0x50100084
10004518:	0001d010 	.word	0x0001d010
1000451c:	50112000 	.word	0x50112000

10004520 <dcd_int_enable>:
10004520:	2101      	movs	r1, #1
10004522:	200e      	movs	r0, #14
10004524:	f7fc b934 	b.w	10000790 <irq_set_enabled>

10004528 <dcd_set_address>:
10004528:	2200      	movs	r2, #0
1000452a:	4802      	ldr	r0, [pc, #8]	@ (10004534 <dcd_set_address+0xc>)
1000452c:	4611      	mov	r1, r2
1000452e:	f000 b8fd 	b.w	1000472c <hw_endpoint_xfer_start>
10004532:	bf00      	nop
10004534:	20003378 	.word	0x20003378

10004538 <dcd_sof_enable>:
10004538:	4b04      	ldr	r3, [pc, #16]	@ (1000454c <dcd_sof_enable+0x14>)
1000453a:	7019      	strb	r1, [r3, #0]
1000453c:	b121      	cbz	r1, 10004548 <dcd_sof_enable+0x10>
1000453e:	f44f 3200 	mov.w	r2, #131072	@ 0x20000
10004542:	4b03      	ldr	r3, [pc, #12]	@ (10004550 <dcd_sof_enable+0x18>)
10004544:	f8c3 2090 	str.w	r2, [r3, #144]	@ 0x90
10004548:	4770      	bx	lr
1000454a:	bf00      	nop
1000454c:	20025162 	.word	0x20025162
10004550:	50112000 	.word	0x50112000

10004554 <dcd_edpt0_status_complete>:
10004554:	780b      	ldrb	r3, [r1, #0]
10004556:	065b      	lsls	r3, r3, #25
10004558:	d102      	bne.n	10004560 <dcd_edpt0_status_complete+0xc>
1000455a:	784b      	ldrb	r3, [r1, #1]
1000455c:	2b05      	cmp	r3, #5
1000455e:	d000      	beq.n	10004562 <dcd_edpt0_status_complete+0xe>
10004560:	4770      	bx	lr
10004562:	884b      	ldrh	r3, [r1, #2]
10004564:	4a01      	ldr	r2, [pc, #4]	@ (1000456c <dcd_edpt0_status_complete+0x18>)
10004566:	b2db      	uxtb	r3, r3
10004568:	6013      	str	r3, [r2, #0]
1000456a:	4770      	bx	lr
1000456c:	50110000 	.word	0x50110000

10004570 <dcd_edpt_open>:
10004570:	f04f 0c00 	mov.w	ip, #0
10004574:	e92d 41f0 	stmdb	sp!, {r4, r5, r6, r7, r8, lr}
10004578:	7888      	ldrb	r0, [r1, #2]
1000457a:	4d35      	ldr	r5, [pc, #212]	@ (10004650 <dcd_edpt_open+0xe0>)
1000457c:	f000 027f 	and.w	r2, r0, #127	@ 0x7f
10004580:	0056      	lsls	r6, r2, #1
10004582:	78cf      	ldrb	r7, [r1, #3]
10004584:	888b      	ldrh	r3, [r1, #4]
10004586:	eb06 11d0 	add.w	r1, r6, r0, lsr #7
1000458a:	eb05 1141 	add.w	r1, r5, r1, lsl #5
1000458e:	09c4      	lsrs	r4, r0, #7
10004590:	7088      	strb	r0, [r1, #2]
10004592:	f3c7 0001 	ubfx	r0, r7, #0, #2
10004596:	76c8      	strb	r0, [r1, #27]
10004598:	f3c3 030a 	ubfx	r3, r3, #0, #11
1000459c:	f084 0001 	eor.w	r0, r4, #1
100045a0:	f881 c003 	strb.w	ip, [r1, #3]
100045a4:	830b      	strh	r3, [r1, #24]
100045a6:	7048      	strb	r0, [r1, #1]
100045a8:	f007 0703 	and.w	r7, r7, #3
100045ac:	00d1      	lsls	r1, r2, #3
100045ae:	bb84      	cbnz	r4, 10004612 <dcd_edpt_open+0xa2>
100045b0:	4828      	ldr	r0, [pc, #160]	@ (10004654 <dcd_edpt_open+0xe4>)
100045b2:	3104      	adds	r1, #4
100045b4:	eb05 1e82 	add.w	lr, r5, r2, lsl #6
100045b8:	eb01 0800 	add.w	r8, r1, r0
100045bc:	f8ce 8008 	str.w	r8, [lr, #8]
100045c0:	f841 c000 	str.w	ip, [r1, r0]
100045c4:	b382      	cbz	r2, 10004628 <dcd_edpt_open+0xb8>
100045c6:	4924      	ldr	r1, [pc, #144]	@ (10004658 <dcd_edpt_open+0xe8>)
100045c8:	00d2      	lsls	r2, r2, #3
100045ca:	4411      	add	r1, r2
100045cc:	f8ce 1004 	str.w	r1, [lr, #4]
100045d0:	4822      	ldr	r0, [pc, #136]	@ (1000465c <dcd_edpt_open+0xec>)
100045d2:	333f      	adds	r3, #63	@ 0x3f
100045d4:	6801      	ldr	r1, [r0, #0]
100045d6:	f023 033f 	bic.w	r3, r3, #63	@ 0x3f
100045da:	2f02      	cmp	r7, #2
100045dc:	4a20      	ldr	r2, [pc, #128]	@ (10004660 <dcd_edpt_open+0xf0>)
100045de:	bf08      	it	eq
100045e0:	005b      	lsleq	r3, r3, #1
100045e2:	440b      	add	r3, r1
100045e4:	6003      	str	r3, [r0, #0]
100045e6:	ea81 0802 	eor.w	r8, r1, r2
100045ea:	4053      	eors	r3, r2
100045ec:	1932      	adds	r2, r6, r4
100045ee:	eb05 1242 	add.w	r2, r5, r2, lsl #5
100045f2:	f5b3 5f80 	cmp.w	r3, #4096	@ 0x1000
100045f6:	60d1      	str	r1, [r2, #12]
100045f8:	d827      	bhi.n	1000464a <dcd_edpt_open+0xda>
100045fa:	4426      	add	r6, r4
100045fc:	eb05 1546 	add.w	r5, r5, r6, lsl #5
10004600:	686b      	ldr	r3, [r5, #4]
10004602:	ea48 6287 	orr.w	r2, r8, r7, lsl #26
10004606:	f042 4200 	orr.w	r2, r2, #2147483648	@ 0x80000000
1000460a:	2001      	movs	r0, #1
1000460c:	601a      	str	r2, [r3, #0]
1000460e:	e8bd 81f0 	ldmia.w	sp!, {r4, r5, r6, r7, r8, pc}
10004612:	f8df e040 	ldr.w	lr, [pc, #64]	@ 10004654 <dcd_edpt_open+0xe4>
10004616:	b210      	sxth	r0, r2
10004618:	4471      	add	r1, lr
1000461a:	eb05 1882 	add.w	r8, r5, r2, lsl #6
1000461e:	f8c8 1028 	str.w	r1, [r8, #40]	@ 0x28
10004622:	f84e c030 	str.w	ip, [lr, r0, lsl #3]
10004626:	b942      	cbnz	r2, 1000463a <dcd_edpt_open+0xca>
10004628:	2300      	movs	r3, #0
1000462a:	4a0e      	ldr	r2, [pc, #56]	@ (10004664 <dcd_edpt_open+0xf4>)
1000462c:	eb05 1444 	add.w	r4, r5, r4, lsl #5
10004630:	2001      	movs	r0, #1
10004632:	60e2      	str	r2, [r4, #12]
10004634:	6063      	str	r3, [r4, #4]
10004636:	e8bd 81f0 	ldmia.w	sp!, {r4, r5, r6, r7, r8, pc}
1000463a:	00d2      	lsls	r2, r2, #3
1000463c:	f102 42a0 	add.w	r2, r2, #1342177280	@ 0x50000000
10004640:	f502 1280 	add.w	r2, r2, #1048576	@ 0x100000
10004644:	f8c8 2024 	str.w	r2, [r8, #36]	@ 0x24
10004648:	e7c2      	b.n	100045d0 <dcd_edpt_open+0x60>
1000464a:	f7fd fa0f 	bl	10001a6c <hard_assertion_failure>
1000464e:	e7d4      	b.n	100045fa <dcd_edpt_open+0x8a>
10004650:	20003358 	.word	0x20003358
10004654:	50100080 	.word	0x50100080
10004658:	50100004 	.word	0x50100004
1000465c:	20003764 	.word	0x20003764
10004660:	50100000 	.word	0x50100000
10004664:	50100100 	.word	0x50100100

10004668 <dcd_edpt_close_all>:
10004668:	f00e b9d6 	b.w	10012a18 <__reset_non_control_endpoints_veneer>

1000466c <dcd_edpt_xfer>:
1000466c:	468c      	mov	ip, r1
1000466e:	b508      	push	{r3, lr}
10004670:	4611      	mov	r1, r2
10004672:	4807      	ldr	r0, [pc, #28]	@ (10004690 <dcd_edpt_xfer+0x24>)
10004674:	461a      	mov	r2, r3
10004676:	f00c 037f 	and.w	r3, ip, #127	@ 0x7f
1000467a:	ea4f 1cdc 	mov.w	ip, ip, lsr #7
1000467e:	eb0c 0c43 	add.w	ip, ip, r3, lsl #1
10004682:	eb00 104c 	add.w	r0, r0, ip, lsl #5
10004686:	f000 f851 	bl	1000472c <hw_endpoint_xfer_start>
1000468a:	2001      	movs	r0, #1
1000468c:	bd08      	pop	{r3, pc}
1000468e:	bf00      	nop
10004690:	20003358 	.word	0x20003358

10004694 <dcd_edpt_stall>:
10004694:	09cb      	lsrs	r3, r1, #7
10004696:	f011 017f 	ands.w	r1, r1, #127	@ 0x7f
1000469a:	d103      	bne.n	100046a4 <dcd_edpt_stall+0x10>
1000469c:	4a06      	ldr	r2, [pc, #24]	@ (100046b8 <dcd_edpt_stall+0x24>)
1000469e:	f1c3 0002 	rsb	r0, r3, #2
100046a2:	6690      	str	r0, [r2, #104]	@ 0x68
100046a4:	4805      	ldr	r0, [pc, #20]	@ (100046bc <dcd_edpt_stall+0x28>)
100046a6:	eb03 0341 	add.w	r3, r3, r1, lsl #1
100046aa:	f44f 6200 	mov.w	r2, #2048	@ 0x800
100046ae:	2100      	movs	r1, #0
100046b0:	eb00 1043 	add.w	r0, r0, r3, lsl #5
100046b4:	f00e b9f4 	b.w	10012aa0 <___hw_endpoint_buffer_control_update32_veneer>
100046b8:	50112000 	.word	0x50112000
100046bc:	20003358 	.word	0x20003358

100046c0 <dcd_edpt_clear_stall>:
100046c0:	f011 037f 	ands.w	r3, r1, #127	@ 0x7f
100046c4:	d100      	bne.n	100046c8 <dcd_edpt_clear_stall+0x8>
100046c6:	4770      	bx	lr
100046c8:	2200      	movs	r2, #0
100046ca:	b410      	push	{r4}
100046cc:	09c8      	lsrs	r0, r1, #7
100046ce:	4c06      	ldr	r4, [pc, #24]	@ (100046e8 <dcd_edpt_clear_stall+0x28>)
100046d0:	eb00 0043 	add.w	r0, r0, r3, lsl #1
100046d4:	eb04 1340 	add.w	r3, r4, r0, lsl #5
100046d8:	f46f 6100 	mvn.w	r1, #2048	@ 0x800
100046dc:	4618      	mov	r0, r3
100046de:	f85d 4b04 	ldr.w	r4, [sp], #4
100046e2:	70da      	strb	r2, [r3, #3]
100046e4:	f00e b9dc 	b.w	10012aa0 <___hw_endpoint_buffer_control_update32_veneer>
100046e8:	20003358 	.word	0x20003358

100046ec <rp2040_usb_init>:
100046ec:	f04f 5280 	mov.w	r2, #268435456	@ 0x10000000
100046f0:	4809      	ldr	r0, [pc, #36]	@ (10004718 <rp2040_usb_init+0x2c>)
100046f2:	490a      	ldr	r1, [pc, #40]	@ (1000471c <rp2040_usb_init+0x30>)
100046f4:	b508      	push	{r3, lr}
100046f6:	4b0a      	ldr	r3, [pc, #40]	@ (10004720 <rp2040_usb_init+0x34>)
100046f8:	6002      	str	r2, [r0, #0]
100046fa:	600a      	str	r2, [r1, #0]
100046fc:	6899      	ldr	r1, [r3, #8]
100046fe:	43c9      	mvns	r1, r1
10004700:	f011 5180 	ands.w	r1, r1, #268435456	@ 0x10000000
10004704:	d1fa      	bne.n	100046fc <rp2040_usb_init+0x10>
10004706:	f44f 5280 	mov.w	r2, #4096	@ 0x1000
1000470a:	4806      	ldr	r0, [pc, #24]	@ (10004724 <rp2040_usb_init+0x38>)
1000470c:	f00c ff1e 	bl	1001154c <memset>
10004710:	2209      	movs	r2, #9
10004712:	4b05      	ldr	r3, [pc, #20]	@ (10004728 <rp2040_usb_init+0x3c>)
10004714:	675a      	str	r2, [r3, #116]	@ 0x74
10004716:	bd08      	pop	{r3, pc}
10004718:	40022000 	.word	0x40022000
1000471c:	40023000 	.word	0x40023000
10004720:	40020000 	.word	0x40020000
10004724:	50100000 	.word	0x50100000
10004728:	50110000 	.word	0x50110000

1000472c <hw_endpoint_xfer_start>:
1000472c:	2300      	movs	r3, #0
1000472e:	f04f 0c01 	mov.w	ip, #1
10004732:	b510      	push	{r4, lr}
10004734:	f880 c01a 	strb.w	ip, [r0, #26]
10004738:	8282      	strh	r2, [r0, #20]
1000473a:	82c3      	strh	r3, [r0, #22]
1000473c:	6101      	str	r1, [r0, #16]
1000473e:	4604      	mov	r4, r0
10004740:	f00e f9ba 	bl	10012ab8 <__e15_is_bulkin_ep_veneer>
10004744:	b120      	cbz	r0, 10004750 <hw_endpoint_xfer_start+0x24>
10004746:	f44f 3200 	mov.w	r2, #131072	@ 0x20000
1000474a:	4b07      	ldr	r3, [pc, #28]	@ (10004768 <hw_endpoint_xfer_start+0x3c>)
1000474c:	f8c3 2090 	str.w	r2, [r3, #144]	@ 0x90
10004750:	4620      	mov	r0, r4
10004752:	f00e f97d 	bl	10012a50 <__e15_is_critical_frame_period_veneer>
10004756:	b110      	cbz	r0, 1000475e <hw_endpoint_xfer_start+0x32>
10004758:	2301      	movs	r3, #1
1000475a:	7723      	strb	r3, [r4, #28]
1000475c:	bd10      	pop	{r4, pc}
1000475e:	4620      	mov	r0, r4
10004760:	e8bd 4010 	ldmia.w	sp!, {r4, lr}
10004764:	f00e b970 	b.w	10012a48 <__hw_endpoint_start_next_buffer_veneer>
10004768:	50112000 	.word	0x50112000

1000476c <configuration_reset>:
1000476c:	e92d 41f0 	stmdb	sp!, {r4, r5, r6, r7, r8, lr}
10004770:	2400      	movs	r4, #0
10004772:	4e1d      	ldr	r6, [pc, #116]	@ (100047e8 <configuration_reset+0x7c>)
10004774:	4605      	mov	r5, r0
10004776:	4623      	mov	r3, r4
10004778:	7832      	ldrb	r2, [r6, #0]
1000477a:	f8df 8078 	ldr.w	r8, [pc, #120]	@ 100047f4 <configuration_reset+0x88>
1000477e:	4f1b      	ldr	r7, [pc, #108]	@ (100047ec <configuration_reset+0x80>)
10004780:	e00d      	b.n	1000479e <configuration_reset+0x32>
10004782:	683b      	ldr	r3, [r7, #0]
10004784:	eb13 1344 	adds.w	r3, r3, r4, lsl #5
10004788:	d025      	beq.n	100047d6 <configuration_reset+0x6a>
1000478a:	68db      	ldr	r3, [r3, #12]
1000478c:	4628      	mov	r0, r5
1000478e:	4798      	blx	r3
10004790:	7832      	ldrb	r2, [r6, #0]
10004792:	3401      	adds	r4, #1
10004794:	b2e4      	uxtb	r4, r4
10004796:	1c51      	adds	r1, r2, #1
10004798:	42a1      	cmp	r1, r4
1000479a:	4623      	mov	r3, r4
1000479c:	db06      	blt.n	100047ac <configuration_reset+0x40>
1000479e:	42a2      	cmp	r2, r4
100047a0:	eba3 0302 	sub.w	r3, r3, r2
100047a4:	d8ed      	bhi.n	10004782 <configuration_reset+0x16>
100047a6:	eb08 1343 	add.w	r3, r8, r3, lsl #5
100047aa:	e7ee      	b.n	1000478a <configuration_reset+0x1e>
100047ac:	4c10      	ldr	r4, [pc, #64]	@ (100047f0 <configuration_reset+0x84>)
100047ae:	2254      	movs	r2, #84	@ 0x54
100047b0:	2100      	movs	r1, #0
100047b2:	4620      	mov	r0, r4
100047b4:	f00c feca 	bl	1001154c <memset>
100047b8:	f04f 33ff 	mov.w	r3, #4294967295	@ 0xffffffff
100047bc:	1d25      	adds	r5, r4, #4
100047be:	6063      	str	r3, [r4, #4]
100047c0:	e9c5 3301 	strd	r3, r3, [r5, #4]
100047c4:	60eb      	str	r3, [r5, #12]
100047c6:	f104 0014 	add.w	r0, r4, #20
100047ca:	2220      	movs	r2, #32
100047cc:	e8bd 41f0 	ldmia.w	sp!, {r4, r5, r6, r7, r8, lr}
100047d0:	21ff      	movs	r1, #255	@ 0xff
100047d2:	f00c bebb 	b.w	1001154c <memset>
100047d6:	f04f 23e0 	mov.w	r3, #3758153728	@ 0xe000e000
100047da:	f8d3 3df0 	ldr.w	r3, [r3, #3568]	@ 0xdf0
100047de:	07db      	lsls	r3, r3, #31
100047e0:	d500      	bpl.n	100047e4 <configuration_reset+0x78>
100047e2:	be00      	bkpt	0x0000
100047e4:	e8bd 81f0 	ldmia.w	sp!, {r4, r5, r6, r7, r8, pc}
100047e8:	20025161 	.word	0x20025161
100047ec:	20003138 	.word	0x20003138
100047f0:	200031bc 	.word	0x200031bc
100047f4:	10013a88 	.word	0x10013a88

100047f8 <tud_event_hook_cb>:
100047f8:	4770      	bx	lr
100047fa:	bf00      	nop

100047fc <tud_sof_cb>:
100047fc:	4770      	bx	lr
100047fe:	bf00      	nop

10004800 <tud_descriptor_device_qualifier_cb>:
10004800:	2000      	movs	r0, #0
10004802:	4770      	bx	lr

10004804 <tud_descriptor_other_speed_configuration_cb>:
10004804:	2000      	movs	r0, #0
10004806:	4770      	bx	lr

10004808 <tud_mount_cb>:
10004808:	4770      	bx	lr
1000480a:	bf00      	nop

1000480c <tud_umount_cb>:
1000480c:	4770      	bx	lr
1000480e:	bf00      	nop

10004810 <tud_suspend_cb>:
10004810:	4770      	bx	lr
10004812:	bf00      	nop

10004814 <tud_resume_cb>:
10004814:	4770      	bx	lr
10004816:	bf00      	nop

10004818 <tud_mounted>:
10004818:	4b02      	ldr	r3, [pc, #8]	@ (10004824 <tud_mounted+0xc>)
1000481a:	7858      	ldrb	r0, [r3, #1]
1000481c:	3800      	subs	r0, #0
1000481e:	bf18      	it	ne
10004820:	2001      	movne	r0, #1
10004822:	4770      	bx	lr
10004824:	200031bc 	.word	0x200031bc

10004828 <tud_suspended>:
10004828:	4b02      	ldr	r3, [pc, #8]	@ (10004834 <tud_suspended+0xc>)
1000482a:	7818      	ldrb	r0, [r3, #0]
1000482c:	f3c0 0080 	ubfx	r0, r0, #2, #1
10004830:	4770      	bx	lr
10004832:	bf00      	nop
10004834:	200031bc 	.word	0x200031bc

10004838 <tud_init>:
10004838:	e92d 43f8 	stmdb	sp!, {r3, r4, r5, r6, r7, r8, r9, lr}
1000483c:	4f2c      	ldr	r7, [pc, #176]	@ (100048f0 <tud_init+0xb8>)
1000483e:	783b      	ldrb	r3, [r7, #0]
10004840:	2bff      	cmp	r3, #255	@ 0xff
10004842:	d002      	beq.n	1000484a <tud_init+0x12>
10004844:	2001      	movs	r0, #1
10004846:	e8bd 83f8 	ldmia.w	sp!, {r3, r4, r5, r6, r7, r8, r9, pc}
1000484a:	2100      	movs	r1, #0
1000484c:	2254      	movs	r2, #84	@ 0x54
1000484e:	4606      	mov	r6, r0
10004850:	4828      	ldr	r0, [pc, #160]	@ (100048f4 <tud_init+0xbc>)
10004852:	f00c fe7b 	bl	1001154c <memset>
10004856:	2200      	movs	r2, #0
10004858:	4c27      	ldr	r4, [pc, #156]	@ (100048f8 <tud_init+0xc0>)
1000485a:	4b28      	ldr	r3, [pc, #160]	@ (100048fc <tud_init+0xc4>)
1000485c:	4620      	mov	r0, r4
1000485e:	701a      	strb	r2, [r3, #0]
10004860:	f7fc fab2 	bl	10000dc8 <mutex_init>
10004864:	4b26      	ldr	r3, [pc, #152]	@ (10004900 <tud_init+0xc8>)
10004866:	4827      	ldr	r0, [pc, #156]	@ (10004904 <tud_init+0xcc>)
10004868:	601c      	str	r4, [r3, #0]
1000486a:	4c27      	ldr	r4, [pc, #156]	@ (10004908 <tud_init+0xd0>)
1000486c:	f7fc faba 	bl	10000de4 <critical_section_init>
10004870:	4620      	mov	r0, r4
10004872:	f001 fcd1 	bl	10006218 <tu_fifo_clear>
10004876:	4a25      	ldr	r2, [pc, #148]	@ (1000490c <tud_init+0xd4>)
10004878:	4b25      	ldr	r3, [pc, #148]	@ (10004910 <tud_init+0xd8>)
1000487a:	4d26      	ldr	r5, [pc, #152]	@ (10004914 <tud_init+0xdc>)
1000487c:	6014      	str	r4, [r2, #0]
1000487e:	b363      	cbz	r3, 100048da <tud_init+0xa2>
10004880:	4628      	mov	r0, r5
10004882:	f7ff facb 	bl	10003e1c <usbd_app_driver_get_cb>
10004886:	4b24      	ldr	r3, [pc, #144]	@ (10004918 <tud_init+0xe0>)
10004888:	782a      	ldrb	r2, [r5, #0]
1000488a:	6018      	str	r0, [r3, #0]
1000488c:	2400      	movs	r4, #0
1000488e:	f8df 908c 	ldr.w	r9, [pc, #140]	@ 1000491c <tud_init+0xe4>
10004892:	4623      	mov	r3, r4
10004894:	f8df 8080 	ldr.w	r8, [pc, #128]	@ 10004918 <tud_init+0xe0>
10004898:	e00e      	b.n	100048b8 <tud_init+0x80>
1000489a:	f8d8 3000 	ldr.w	r3, [r8]
1000489e:	eb13 1344 	adds.w	r3, r3, r4, lsl #5
100048a2:	d011      	beq.n	100048c8 <tud_init+0x90>
100048a4:	685b      	ldr	r3, [r3, #4]
100048a6:	b17b      	cbz	r3, 100048c8 <tud_init+0x90>
100048a8:	4798      	blx	r3
100048aa:	782a      	ldrb	r2, [r5, #0]
100048ac:	3401      	adds	r4, #1
100048ae:	b2e4      	uxtb	r4, r4
100048b0:	1c51      	adds	r1, r2, #1
100048b2:	42a1      	cmp	r1, r4
100048b4:	4623      	mov	r3, r4
100048b6:	db12      	blt.n	100048de <tud_init+0xa6>
100048b8:	42a2      	cmp	r2, r4
100048ba:	d8ee      	bhi.n	1000489a <tud_init+0x62>
100048bc:	1a9b      	subs	r3, r3, r2
100048be:	eb09 1343 	add.w	r3, r9, r3, lsl #5
100048c2:	685b      	ldr	r3, [r3, #4]
100048c4:	2b00      	cmp	r3, #0
100048c6:	d1ef      	bne.n	100048a8 <tud_init+0x70>
100048c8:	f04f 23e0 	mov.w	r3, #3758153728	@ 0xe000e000
100048cc:	f8d3 3df0 	ldr.w	r3, [r3, #3568]	@ 0xdf0
100048d0:	07db      	lsls	r3, r3, #31
100048d2:	d500      	bpl.n	100048d6 <tud_init+0x9e>
100048d4:	be00      	bkpt	0x0000
100048d6:	2000      	movs	r0, #0
100048d8:	e7b5      	b.n	10004846 <tud_init+0xe>
100048da:	782a      	ldrb	r2, [r5, #0]
100048dc:	e7d6      	b.n	1000488c <tud_init+0x54>
100048de:	4630      	mov	r0, r6
100048e0:	703e      	strb	r6, [r7, #0]
100048e2:	f7ff fdd5 	bl	10004490 <dcd_init>
100048e6:	4630      	mov	r0, r6
100048e8:	f7ff fe1a 	bl	10004520 <dcd_int_enable>
100048ec:	e7aa      	b.n	10004844 <tud_init+0xc>
100048ee:	bf00      	nop
100048f0:	200022e8 	.word	0x200022e8
100048f4:	200031bc 	.word	0x200031bc
100048f8:	20003174 	.word	0x20003174
100048fc:	20025163 	.word	0x20025163
10004900:	20003210 	.word	0x20003210
10004904:	200022e0 	.word	0x200022e0
10004908:	200022cc 	.word	0x200022cc
1000490c:	20003214 	.word	0x20003214
10004910:	10003e1d 	.word	0x10003e1d
10004914:	20025161 	.word	0x20025161
10004918:	20003138 	.word	0x20003138
1000491c:	10013a88 	.word	0x10013a88

10004920 <tud_task_ext>:
10004920:	e92d 4ff0 	stmdb	sp!, {r4, r5, r6, r7, r8, r9, sl, fp, lr}
10004924:	f8df 92c8 	ldr.w	r9, [pc, #712]	@ 10004bf0 <tud_task_ext+0x2d0>
10004928:	b08b      	sub	sp, #44	@ 0x2c
1000492a:	f899 3000 	ldrb.w	r3, [r9]
1000492e:	2bff      	cmp	r3, #255	@ 0xff
10004930:	f000 80f1 	beq.w	10004b16 <tud_task_ext+0x1f6>
10004934:	4ca8      	ldr	r4, [pc, #672]	@ (10004bd8 <tud_task_ext+0x2b8>)
10004936:	4da9      	ldr	r5, [pc, #676]	@ (10004bdc <tud_task_ext+0x2bc>)
10004938:	f8df a2b0 	ldr.w	sl, [pc, #688]	@ 10004bec <tud_task_ext+0x2cc>
1000493c:	f8df b2b4 	ldr.w	fp, [pc, #692]	@ 10004bf4 <tud_task_ext+0x2d4>
10004940:	6826      	ldr	r6, [r4, #0]
10004942:	6973      	ldr	r3, [r6, #20]
10004944:	f3ef 8210 	mrs	r2, PRIMASK
10004948:	b672      	cpsid	i
1000494a:	e8d3 0fcf 	ldaexb	r0, [r3]
1000494e:	2101      	movs	r1, #1
10004950:	2800      	cmp	r0, #0
10004952:	d1fa      	bne.n	1000494a <tud_task_ext+0x2a>
10004954:	e8c3 1f40 	strexb	r0, r1, [r3]
10004958:	2800      	cmp	r0, #0
1000495a:	d1f6      	bne.n	1000494a <tud_task_ext+0x2a>
1000495c:	f3bf 8f5f 	dmb	sy
10004960:	61b2      	str	r2, [r6, #24]
10004962:	4630      	mov	r0, r6
10004964:	a907      	add	r1, sp, #28
10004966:	f001 faa5 	bl	10005eb4 <tu_fifo_read>
1000496a:	2300      	movs	r3, #0
1000496c:	6972      	ldr	r2, [r6, #20]
1000496e:	e8c2 3f8f 	stlb	r3, [r2]
10004972:	69b3      	ldr	r3, [r6, #24]
10004974:	f383 8810 	msr	PRIMASK, r3
10004978:	2800      	cmp	r0, #0
1000497a:	f000 80cc 	beq.w	10004b16 <tud_task_ext+0x1f6>
1000497e:	f89d 301d 	ldrb.w	r3, [sp, #29]
10004982:	3b01      	subs	r3, #1
10004984:	2b07      	cmp	r3, #7
10004986:	f200 837d 	bhi.w	10005084 <tud_task_ext+0x764>
1000498a:	e8df f003 	tbb	[pc, r3]
1000498e:	b1a7      	.short	0xb1a7
10004990:	358e9d95 	.word	0x358e9d95
10004994:	040a      	.short	0x040a
10004996:	9b08      	ldr	r3, [sp, #32]
10004998:	2b00      	cmp	r3, #0
1000499a:	d0d1      	beq.n	10004940 <tud_task_ext+0x20>
1000499c:	9809      	ldr	r0, [sp, #36]	@ 0x24
1000499e:	4798      	blx	r3
100049a0:	e7ce      	b.n	10004940 <tud_task_ext+0x20>
100049a2:	f89d 1020 	ldrb.w	r1, [sp, #32]
100049a6:	f001 067f 	and.w	r6, r1, #127	@ 0x7f
100049aa:	eb05 0046 	add.w	r0, r5, r6, lsl #1
100049ae:	eb00 10d1 	add.w	r0, r0, r1, lsr #7
100049b2:	f890 3034 	ldrb.w	r3, [r0, #52]	@ 0x34
100049b6:	f023 0301 	bic.w	r3, r3, #1
100049ba:	f880 3034 	strb.w	r3, [r0, #52]	@ 0x34
100049be:	f890 3034 	ldrb.w	r3, [r0, #52]	@ 0x34
100049c2:	f023 0304 	bic.w	r3, r3, #4
100049c6:	f880 3034 	strb.w	r3, [r0, #52]	@ 0x34
100049ca:	2e00      	cmp	r6, #0
100049cc:	f000 80a6 	beq.w	10004b1c <tud_task_ext+0x1fc>
100049d0:	7d03      	ldrb	r3, [r0, #20]
100049d2:	f89a 2000 	ldrb.w	r2, [sl]
100049d6:	4293      	cmp	r3, r2
100049d8:	f080 8093 	bcs.w	10004b02 <tud_task_ext+0x1e2>
100049dc:	4a80      	ldr	r2, [pc, #512]	@ (10004be0 <tud_task_ext+0x2c0>)
100049de:	6812      	ldr	r2, [r2, #0]
100049e0:	eb12 1343 	adds.w	r3, r2, r3, lsl #5
100049e4:	f000 8090 	beq.w	10004b08 <tud_task_ext+0x1e8>
100049e8:	699e      	ldr	r6, [r3, #24]
100049ea:	f89d 2021 	ldrb.w	r2, [sp, #33]	@ 0x21
100049ee:	9b09      	ldr	r3, [sp, #36]	@ 0x24
100049f0:	f89d 001c 	ldrb.w	r0, [sp, #28]
100049f4:	47b0      	blx	r6
100049f6:	e7a3      	b.n	10004940 <tud_task_ext+0x20>
100049f8:	f89b 3000 	ldrb.w	r3, [fp]
100049fc:	2b00      	cmp	r3, #0
100049fe:	f000 8083 	beq.w	10004b08 <tud_task_ext+0x1e8>
10004a02:	f89b 3000 	ldrb.w	r3, [fp]
10004a06:	3b01      	subs	r3, #1
10004a08:	b2db      	uxtb	r3, r3
10004a0a:	f88b 3000 	strb.w	r3, [fp]
10004a0e:	f89b 3000 	ldrb.w	r3, [fp]
10004a12:	f003 00ff 	and.w	r0, r3, #255	@ 0xff
10004a16:	2b00      	cmp	r3, #0
10004a18:	d192      	bne.n	10004940 <tud_task_ext+0x20>
10004a1a:	4f70      	ldr	r7, [pc, #448]	@ (10004bdc <tud_task_ext+0x2bc>)
10004a1c:	f89d 801c 	ldrb.w	r8, [sp, #28]
10004a20:	783b      	ldrb	r3, [r7, #0]
10004a22:	f043 0301 	orr.w	r3, r3, #1
10004a26:	703b      	strb	r3, [r7, #0]
10004a28:	f897 3034 	ldrb.w	r3, [r7, #52]	@ 0x34
10004a2c:	f360 0300 	bfi	r3, r0, #0, #1
10004a30:	f887 3034 	strb.w	r3, [r7, #52]	@ 0x34
10004a34:	f897 3034 	ldrb.w	r3, [r7, #52]	@ 0x34
10004a38:	f360 0382 	bfi	r3, r0, #2, #1
10004a3c:	f887 3034 	strb.w	r3, [r7, #52]	@ 0x34
10004a40:	f897 3035 	ldrb.w	r3, [r7, #53]	@ 0x35
10004a44:	f360 0300 	bfi	r3, r0, #0, #1
10004a48:	f887 3035 	strb.w	r3, [r7, #53]	@ 0x35
10004a4c:	f897 3035 	ldrb.w	r3, [r7, #53]	@ 0x35
10004a50:	f360 0382 	bfi	r3, r0, #2, #1
10004a54:	f887 3035 	strb.w	r3, [r7, #53]	@ 0x35
10004a58:	f000 fc6a 	bl	10005330 <usbd_control_set_complete_callback>
10004a5c:	f89d 3020 	ldrb.w	r3, [sp, #32]
10004a60:	f003 0260 	and.w	r2, r3, #96	@ 0x60
10004a64:	2a60      	cmp	r2, #96	@ 0x60
10004a66:	d06c      	beq.n	10004b42 <tud_task_ext+0x222>
10004a68:	2a40      	cmp	r2, #64	@ 0x40
10004a6a:	d07c      	beq.n	10004b66 <tud_task_ext+0x246>
10004a6c:	f003 031f 	and.w	r3, r3, #31
10004a70:	2b01      	cmp	r3, #1
10004a72:	f000 80c1 	beq.w	10004bf8 <tud_task_ext+0x2d8>
10004a76:	2b02      	cmp	r3, #2
10004a78:	f000 8081 	beq.w	10004b7e <tud_task_ext+0x25e>
10004a7c:	2b00      	cmp	r3, #0
10004a7e:	d160      	bne.n	10004b42 <tud_task_ext+0x222>
10004a80:	2a20      	cmp	r2, #32
10004a82:	f000 81e9 	beq.w	10004e58 <tud_task_ext+0x538>
10004a86:	2a00      	cmp	r2, #0
10004a88:	d15b      	bne.n	10004b42 <tud_task_ext+0x222>
10004a8a:	f89d 3021 	ldrb.w	r3, [sp, #33]	@ 0x21
10004a8e:	2b09      	cmp	r3, #9
10004a90:	d857      	bhi.n	10004b42 <tud_task_ext+0x222>
10004a92:	e8df f013 	tbh	[pc, r3, lsl #1]
10004a96:	01b0      	.short	0x01b0
10004a98:	005601a2 	.word	0x005601a2
10004a9c:	005601c1 	.word	0x005601c1
10004aa0:	016b0195 	.word	0x016b0195
10004aa4:	01600056 	.word	0x01600056
10004aa8:	00f4      	.short	0x00f4
10004aaa:	782b      	ldrb	r3, [r5, #0]
10004aac:	07d9      	lsls	r1, r3, #31
10004aae:	f57f af47 	bpl.w	10004940 <tud_task_ext+0x20>
10004ab2:	f7ff feaf 	bl	10004814 <tud_resume_cb>
10004ab6:	e743      	b.n	10004940 <tud_task_ext+0x20>
10004ab8:	78eb      	ldrb	r3, [r5, #3]
10004aba:	07da      	lsls	r2, r3, #31
10004abc:	f57f af40 	bpl.w	10004940 <tud_task_ext+0x20>
10004ac0:	9808      	ldr	r0, [sp, #32]
10004ac2:	f7ff fe9b 	bl	100047fc <tud_sof_cb>
10004ac6:	e73b      	b.n	10004940 <tud_task_ext+0x20>
10004ac8:	782b      	ldrb	r3, [r5, #0]
10004aca:	07d8      	lsls	r0, r3, #31
10004acc:	f57f af38 	bpl.w	10004940 <tud_task_ext+0x20>
10004ad0:	7828      	ldrb	r0, [r5, #0]
10004ad2:	f3c0 00c0 	ubfx	r0, r0, #3, #1
10004ad6:	f7ff fe9b 	bl	10004810 <tud_suspend_cb>
10004ada:	e731      	b.n	10004940 <tud_task_ext+0x20>
10004adc:	f89d 001c 	ldrb.w	r0, [sp, #28]
10004ae0:	f7ff fe44 	bl	1000476c <configuration_reset>
10004ae4:	f000 fc1a 	bl	1000531c <usbd_control_reset>
10004ae8:	f89d 3020 	ldrb.w	r3, [sp, #32]
10004aec:	70ab      	strb	r3, [r5, #2]
10004aee:	e727      	b.n	10004940 <tud_task_ext+0x20>
10004af0:	f89d 001c 	ldrb.w	r0, [sp, #28]
10004af4:	f7ff fe3a 	bl	1000476c <configuration_reset>
10004af8:	f000 fc10 	bl	1000531c <usbd_control_reset>
10004afc:	f7ff fe86 	bl	1000480c <tud_umount_cb>
10004b00:	e71e      	b.n	10004940 <tud_task_ext+0x20>
10004b02:	1c50      	adds	r0, r2, #1
10004b04:	4298      	cmp	r0, r3
10004b06:	da11      	bge.n	10004b2c <tud_task_ext+0x20c>
10004b08:	f04f 23e0 	mov.w	r3, #3758153728	@ 0xe000e000
10004b0c:	f8d3 3df0 	ldr.w	r3, [r3, #3568]	@ 0xdf0
10004b10:	07dc      	lsls	r4, r3, #31
10004b12:	d500      	bpl.n	10004b16 <tud_task_ext+0x1f6>
10004b14:	be00      	bkpt	0x0000
10004b16:	b00b      	add	sp, #44	@ 0x2c
10004b18:	e8bd 8ff0 	ldmia.w	sp!, {r4, r5, r6, r7, r8, r9, sl, fp, pc}
10004b1c:	9b09      	ldr	r3, [sp, #36]	@ 0x24
10004b1e:	f89d 2021 	ldrb.w	r2, [sp, #33]	@ 0x21
10004b22:	f89d 001c 	ldrb.w	r0, [sp, #28]
10004b26:	f000 fc17 	bl	10005358 <usbd_control_xfer_cb>
10004b2a:	e709      	b.n	10004940 <tud_task_ext+0x20>
10004b2c:	1a9b      	subs	r3, r3, r2
10004b2e:	4a2d      	ldr	r2, [pc, #180]	@ (10004be4 <tud_task_ext+0x2c4>)
10004b30:	eb02 1343 	add.w	r3, r2, r3, lsl #5
10004b34:	e758      	b.n	100049e8 <tud_task_ext+0xc8>
10004b36:	f7ff fb95 	bl	10004264 <tud_descriptor_configuration_cb>
10004b3a:	4602      	mov	r2, r0
10004b3c:	2800      	cmp	r0, #0
10004b3e:	f040 8182 	bne.w	10004e46 <tud_task_ext+0x526>
10004b42:	f04f 23e0 	mov.w	r3, #3758153728	@ 0xe000e000
10004b46:	f8d3 3df0 	ldr.w	r3, [r3, #3568]	@ 0xdf0
10004b4a:	07de      	lsls	r6, r3, #31
10004b4c:	d500      	bpl.n	10004b50 <tud_task_ext+0x230>
10004b4e:	be00      	bkpt	0x0000
10004b50:	f89d 001c 	ldrb.w	r0, [sp, #28]
10004b54:	2100      	movs	r1, #0
10004b56:	f7ff fd9d 	bl	10004694 <dcd_edpt_stall>
10004b5a:	2180      	movs	r1, #128	@ 0x80
10004b5c:	f89d 001c 	ldrb.w	r0, [sp, #28]
10004b60:	f7ff fd98 	bl	10004694 <dcd_edpt_stall>
10004b64:	e6ec      	b.n	10004940 <tud_task_ext+0x20>
10004b66:	4820      	ldr	r0, [pc, #128]	@ (10004be8 <tud_task_ext+0x2c8>)
10004b68:	f000 fbe2 	bl	10005330 <usbd_control_set_complete_callback>
10004b6c:	2101      	movs	r1, #1
10004b6e:	4640      	mov	r0, r8
10004b70:	aa08      	add	r2, sp, #32
10004b72:	f7ff f93f 	bl	10003df4 <tud_vendor_control_xfer_cb>
10004b76:	2800      	cmp	r0, #0
10004b78:	f47f aee2 	bne.w	10004940 <tud_task_ext+0x20>
10004b7c:	e7e8      	b.n	10004b50 <tud_task_ext+0x230>
10004b7e:	f89d 1024 	ldrb.w	r1, [sp, #36]	@ 0x24
10004b82:	f011 0f70 	tst.w	r1, #112	@ 0x70
10004b86:	d1dc      	bne.n	10004b42 <tud_task_ext+0x222>
10004b88:	f001 067f 	and.w	r6, r1, #127	@ 0x7f
10004b8c:	eb07 0046 	add.w	r0, r7, r6, lsl #1
10004b90:	4b16      	ldr	r3, [pc, #88]	@ (10004bec <tud_task_ext+0x2cc>)
10004b92:	eb00 10d1 	add.w	r0, r0, r1, lsr #7
10004b96:	781b      	ldrb	r3, [r3, #0]
10004b98:	7d00      	ldrb	r0, [r0, #20]
10004b9a:	0076      	lsls	r6, r6, #1
10004b9c:	9601      	str	r6, [sp, #4]
10004b9e:	4298      	cmp	r0, r3
10004ba0:	ea4f 16d1 	mov.w	r6, r1, lsr #7
10004ba4:	9600      	str	r6, [sp, #0]
10004ba6:	d359      	bcc.n	10004c5c <tud_task_ext+0x33c>
10004ba8:	1c5e      	adds	r6, r3, #1
10004baa:	4286      	cmp	r6, r0
10004bac:	f2c0 8166 	blt.w	10004e7c <tud_task_ext+0x55c>
10004bb0:	1ac0      	subs	r0, r0, r3
10004bb2:	4b0c      	ldr	r3, [pc, #48]	@ (10004be4 <tud_task_ext+0x2c4>)
10004bb4:	eb03 1640 	add.w	r6, r3, r0, lsl #5
10004bb8:	2a00      	cmp	r2, #0
10004bba:	f000 8163 	beq.w	10004e84 <tud_task_ext+0x564>
10004bbe:	6970      	ldr	r0, [r6, #20]
10004bc0:	f000 fbb6 	bl	10005330 <usbd_control_set_complete_callback>
10004bc4:	2101      	movs	r1, #1
10004bc6:	4640      	mov	r0, r8
10004bc8:	6973      	ldr	r3, [r6, #20]
10004bca:	aa08      	add	r2, sp, #32
10004bcc:	4798      	blx	r3
10004bce:	2800      	cmp	r0, #0
10004bd0:	f47f aeb6 	bne.w	10004940 <tud_task_ext+0x20>
10004bd4:	e7bc      	b.n	10004b50 <tud_task_ext+0x230>
10004bd6:	bf00      	nop
10004bd8:	20003214 	.word	0x20003214
10004bdc:	200031bc 	.word	0x200031bc
10004be0:	20003138 	.word	0x20003138
10004be4:	10013a88 	.word	0x10013a88
10004be8:	10003df5 	.word	0x10003df5
10004bec:	20025161 	.word	0x20025161
10004bf0:	200022e8 	.word	0x200022e8
10004bf4:	20025163 	.word	0x20025163
10004bf8:	f89d 3024 	ldrb.w	r3, [sp, #36]	@ 0x24
10004bfc:	2b0f      	cmp	r3, #15
10004bfe:	d8a7      	bhi.n	10004b50 <tud_task_ext+0x230>
10004c00:	4aae      	ldr	r2, [pc, #696]	@ (10004ebc <tud_task_ext+0x59c>)
10004c02:	443b      	add	r3, r7
10004c04:	791b      	ldrb	r3, [r3, #4]
10004c06:	7812      	ldrb	r2, [r2, #0]
10004c08:	4293      	cmp	r3, r2
10004c0a:	d332      	bcc.n	10004c72 <tud_task_ext+0x352>
10004c0c:	1c51      	adds	r1, r2, #1
10004c0e:	4299      	cmp	r1, r3
10004c10:	db9e      	blt.n	10004b50 <tud_task_ext+0x230>
10004c12:	4eab      	ldr	r6, [pc, #684]	@ (10004ec0 <tud_task_ext+0x5a0>)
10004c14:	1a9b      	subs	r3, r3, r2
10004c16:	eb06 1643 	add.w	r6, r6, r3, lsl #5
10004c1a:	6970      	ldr	r0, [r6, #20]
10004c1c:	f000 fb88 	bl	10005330 <usbd_control_set_complete_callback>
10004c20:	2101      	movs	r1, #1
10004c22:	4640      	mov	r0, r8
10004c24:	6973      	ldr	r3, [r6, #20]
10004c26:	aa08      	add	r2, sp, #32
10004c28:	4798      	blx	r3
10004c2a:	2800      	cmp	r0, #0
10004c2c:	f47f ae88 	bne.w	10004940 <tud_task_ext+0x20>
10004c30:	f89d 3020 	ldrb.w	r3, [sp, #32]
10004c34:	f013 0660 	ands.w	r6, r3, #96	@ 0x60
10004c38:	d18a      	bne.n	10004b50 <tud_task_ext+0x230>
10004c3a:	f89d 3021 	ldrb.w	r3, [sp, #33]	@ 0x21
10004c3e:	3b0a      	subs	r3, #10
10004c40:	2b01      	cmp	r3, #1
10004c42:	d885      	bhi.n	10004b50 <tud_task_ext+0x230>
10004c44:	f000 fb74 	bl	10005330 <usbd_control_set_complete_callback>
10004c48:	f89d 3021 	ldrb.w	r3, [sp, #33]	@ 0x21
10004c4c:	2b0a      	cmp	r3, #10
10004c4e:	f000 81f2 	beq.w	10005036 <tud_task_ext+0x716>
10004c52:	4640      	mov	r0, r8
10004c54:	a908      	add	r1, sp, #32
10004c56:	f000 faf1 	bl	1000523c <tud_control_status>
10004c5a:	e671      	b.n	10004940 <tud_task_ext+0x20>
10004c5c:	4b99      	ldr	r3, [pc, #612]	@ (10004ec4 <tud_task_ext+0x5a4>)
10004c5e:	681b      	ldr	r3, [r3, #0]
10004c60:	eb03 1640 	add.w	r6, r3, r0, lsl #5
10004c64:	2a00      	cmp	r2, #0
10004c66:	f000 810d 	beq.w	10004e84 <tud_task_ext+0x564>
10004c6a:	2e00      	cmp	r6, #0
10004c6c:	f43f af70 	beq.w	10004b50 <tud_task_ext+0x230>
10004c70:	e7a5      	b.n	10004bbe <tud_task_ext+0x29e>
10004c72:	4a94      	ldr	r2, [pc, #592]	@ (10004ec4 <tud_task_ext+0x5a4>)
10004c74:	6816      	ldr	r6, [r2, #0]
10004c76:	eb16 1643 	adds.w	r6, r6, r3, lsl #5
10004c7a:	d1ce      	bne.n	10004c1a <tud_task_ext+0x2fa>
10004c7c:	e768      	b.n	10004b50 <tud_task_ext+0x230>
10004c7e:	787b      	ldrb	r3, [r7, #1]
10004c80:	f89d 6022 	ldrb.w	r6, [sp, #34]	@ 0x22
10004c84:	429e      	cmp	r6, r3
10004c86:	f000 814f 	beq.w	10004f28 <tud_task_ext+0x608>
10004c8a:	787b      	ldrb	r3, [r7, #1]
10004c8c:	2b00      	cmp	r3, #0
10004c8e:	f040 81be 	bne.w	1000500e <tud_task_ext+0x6ee>
10004c92:	707e      	strb	r6, [r7, #1]
10004c94:	2e00      	cmp	r6, #0
10004c96:	f000 8145 	beq.w	10004f24 <tud_task_ext+0x604>
10004c9a:	1e70      	subs	r0, r6, #1
10004c9c:	b2c0      	uxtb	r0, r0
10004c9e:	f7ff fae1 	bl	10004264 <tud_descriptor_configuration_cb>
10004ca2:	4603      	mov	r3, r0
10004ca4:	2800      	cmp	r0, #0
10004ca6:	f000 815f 	beq.w	10004f68 <tud_task_ext+0x648>
10004caa:	7842      	ldrb	r2, [r0, #1]
10004cac:	2a02      	cmp	r2, #2
10004cae:	f040 815b 	bne.w	10004f68 <tud_task_ext+0x648>
10004cb2:	79c1      	ldrb	r1, [r0, #7]
10004cb4:	f103 0609 	add.w	r6, r3, #9
10004cb8:	f3c1 1240 	ubfx	r2, r1, #5, #1
10004cbc:	0112      	lsls	r2, r2, #4
10004cbe:	f3c1 1180 	ubfx	r1, r1, #6, #1
10004cc2:	ea42 1241 	orr.w	r2, r2, r1, lsl #5
10004cc6:	4631      	mov	r1, r6
10004cc8:	7838      	ldrb	r0, [r7, #0]
10004cca:	f020 0030 	bic.w	r0, r0, #48	@ 0x30
10004cce:	4302      	orrs	r2, r0
10004cd0:	703a      	strb	r2, [r7, #0]
10004cd2:	885a      	ldrh	r2, [r3, #2]
10004cd4:	f8cd 800c 	str.w	r8, [sp, #12]
10004cd8:	189a      	adds	r2, r3, r2
10004cda:	9201      	str	r2, [sp, #4]
10004cdc:	9b01      	ldr	r3, [sp, #4]
10004cde:	428b      	cmp	r3, r1
10004ce0:	f240 81a4 	bls.w	1000502c <tud_task_ext+0x70c>
10004ce4:	784a      	ldrb	r2, [r1, #1]
10004ce6:	2a0b      	cmp	r2, #11
10004ce8:	f000 81af 	beq.w	1000504a <tud_task_ext+0x72a>
10004cec:	2301      	movs	r3, #1
10004cee:	2a04      	cmp	r2, #4
10004cf0:	f040 813a 	bne.w	10004f68 <tud_task_ext+0x648>
10004cf4:	2600      	movs	r6, #0
10004cf6:	9a01      	ldr	r2, [sp, #4]
10004cf8:	9600      	str	r6, [sp, #0]
10004cfa:	1a52      	subs	r2, r2, r1
10004cfc:	b292      	uxth	r2, r2
10004cfe:	9202      	str	r2, [sp, #8]
10004d00:	4a6e      	ldr	r2, [pc, #440]	@ (10004ebc <tud_task_ext+0x59c>)
10004d02:	9304      	str	r3, [sp, #16]
10004d04:	7812      	ldrb	r2, [r2, #0]
10004d06:	e01d      	b.n	10004d44 <tud_task_ext+0x424>
10004d08:	4b6e      	ldr	r3, [pc, #440]	@ (10004ec4 <tud_task_ext+0x5a4>)
10004d0a:	681b      	ldr	r3, [r3, #0]
10004d0c:	eb13 1846 	adds.w	r8, r3, r6, lsl #5
10004d10:	f000 812a 	beq.w	10004f68 <tud_task_ext+0x648>
10004d14:	9a02      	ldr	r2, [sp, #8]
10004d16:	f8d8 3010 	ldr.w	r3, [r8, #16]
10004d1a:	9803      	ldr	r0, [sp, #12]
10004d1c:	9105      	str	r1, [sp, #20]
10004d1e:	4798      	blx	r3
10004d20:	2808      	cmp	r0, #8
10004d22:	4602      	mov	r2, r0
10004d24:	9905      	ldr	r1, [sp, #20]
10004d26:	f106 0301 	add.w	r3, r6, #1
10004d2a:	d903      	bls.n	10004d34 <tud_task_ext+0x414>
10004d2c:	9802      	ldr	r0, [sp, #8]
10004d2e:	4290      	cmp	r0, r2
10004d30:	f080 80ff 	bcs.w	10004f32 <tud_task_ext+0x612>
10004d34:	b2de      	uxtb	r6, r3
10004d36:	4b61      	ldr	r3, [pc, #388]	@ (10004ebc <tud_task_ext+0x59c>)
10004d38:	9600      	str	r6, [sp, #0]
10004d3a:	781a      	ldrb	r2, [r3, #0]
10004d3c:	1c53      	adds	r3, r2, #1
10004d3e:	429e      	cmp	r6, r3
10004d40:	f300 8112 	bgt.w	10004f68 <tud_task_ext+0x648>
10004d44:	9b00      	ldr	r3, [sp, #0]
10004d46:	42b2      	cmp	r2, r6
10004d48:	eba3 0202 	sub.w	r2, r3, r2
10004d4c:	d8dc      	bhi.n	10004d08 <tud_task_ext+0x3e8>
10004d4e:	4b5c      	ldr	r3, [pc, #368]	@ (10004ec0 <tud_task_ext+0x5a0>)
10004d50:	eb03 1842 	add.w	r8, r3, r2, lsl #5
10004d54:	e7de      	b.n	10004d14 <tud_task_ext+0x3f4>
10004d56:	787b      	ldrb	r3, [r7, #1]
10004d58:	4640      	mov	r0, r8
10004d5a:	f88d 301a 	strb.w	r3, [sp, #26]
10004d5e:	f10d 021a 	add.w	r2, sp, #26
10004d62:	2301      	movs	r3, #1
10004d64:	a908      	add	r1, sp, #32
10004d66:	f000 fa83 	bl	10005270 <tud_control_xfer>
10004d6a:	e5e9      	b.n	10004940 <tud_task_ext+0x20>
10004d6c:	f8bd 0022 	ldrh.w	r0, [sp, #34]	@ 0x22
10004d70:	0a03      	lsrs	r3, r0, #8
10004d72:	3b01      	subs	r3, #1
10004d74:	0a02      	lsrs	r2, r0, #8
10004d76:	b2c0      	uxtb	r0, r0
10004d78:	2b0e      	cmp	r3, #14
10004d7a:	f63f aee9 	bhi.w	10004b50 <tud_task_ext+0x230>
10004d7e:	a101      	add	r1, pc, #4	@ (adr r1, 10004d84 <tud_task_ext+0x464>)
10004d80:	f851 f023 	ldr.w	pc, [r1, r3, lsl #2]
10004d84:	10004f99 	.word	0x10004f99
10004d88:	10004e35 	.word	0x10004e35
10004d8c:	10004fd5 	.word	0x10004fd5
10004d90:	10004b51 	.word	0x10004b51
10004d94:	10004b51 	.word	0x10004b51
10004d98:	10004fb7 	.word	0x10004fb7
10004d9c:	10004e35 	.word	0x10004e35
10004da0:	10004b51 	.word	0x10004b51
10004da4:	10004b51 	.word	0x10004b51
10004da8:	10004b51 	.word	0x10004b51
10004dac:	10004b51 	.word	0x10004b51
10004db0:	10004b51 	.word	0x10004b51
10004db4:	10004b51 	.word	0x10004b51
10004db8:	10004b51 	.word	0x10004b51
10004dbc:	10004f8b 	.word	0x10004f8b
10004dc0:	a808      	add	r0, sp, #32
10004dc2:	f000 fabb 	bl	1000533c <usbd_control_set_request>
10004dc6:	4640      	mov	r0, r8
10004dc8:	f89d 1022 	ldrb.w	r1, [sp, #34]	@ 0x22
10004dcc:	f7ff fbac 	bl	10004528 <dcd_set_address>
10004dd0:	783b      	ldrb	r3, [r7, #0]
10004dd2:	f043 0302 	orr.w	r3, r3, #2
10004dd6:	703b      	strb	r3, [r7, #0]
10004dd8:	e5b2      	b.n	10004940 <tud_task_ext+0x20>
10004dda:	f8bd 3022 	ldrh.w	r3, [sp, #34]	@ 0x22
10004dde:	2b01      	cmp	r3, #1
10004de0:	f47f aeb6 	bne.w	10004b50 <tud_task_ext+0x230>
10004de4:	783b      	ldrb	r3, [r7, #0]
10004de6:	4640      	mov	r0, r8
10004de8:	f023 0308 	bic.w	r3, r3, #8
10004dec:	a908      	add	r1, sp, #32
10004dee:	703b      	strb	r3, [r7, #0]
10004df0:	f000 fa24 	bl	1000523c <tud_control_status>
10004df4:	e5a4      	b.n	10004940 <tud_task_ext+0x20>
10004df6:	4640      	mov	r0, r8
10004df8:	783b      	ldrb	r3, [r7, #0]
10004dfa:	089a      	lsrs	r2, r3, #2
10004dfc:	f002 0202 	and.w	r2, r2, #2
10004e00:	f3c3 1340 	ubfx	r3, r3, #5, #1
10004e04:	4313      	orrs	r3, r2
10004e06:	f8ad 301a 	strh.w	r3, [sp, #26]
10004e0a:	f10d 021a 	add.w	r2, sp, #26
10004e0e:	2302      	movs	r3, #2
10004e10:	a908      	add	r1, sp, #32
10004e12:	f000 fa2d 	bl	10005270 <tud_control_xfer>
10004e16:	e593      	b.n	10004940 <tud_task_ext+0x20>
10004e18:	f8bd 3022 	ldrh.w	r3, [sp, #34]	@ 0x22
10004e1c:	2b01      	cmp	r3, #1
10004e1e:	f47f ae97 	bne.w	10004b50 <tud_task_ext+0x230>
10004e22:	783b      	ldrb	r3, [r7, #0]
10004e24:	4640      	mov	r0, r8
10004e26:	f043 0308 	orr.w	r3, r3, #8
10004e2a:	a908      	add	r1, sp, #32
10004e2c:	703b      	strb	r3, [r7, #0]
10004e2e:	f000 fa05 	bl	1000523c <tud_control_status>
10004e32:	e585      	b.n	10004940 <tud_task_ext+0x20>
10004e34:	2a02      	cmp	r2, #2
10004e36:	f43f ae7e 	beq.w	10004b36 <tud_task_ext+0x216>
10004e3a:	f7ff fce3 	bl	10004804 <tud_descriptor_other_speed_configuration_cb>
10004e3e:	4602      	mov	r2, r0
10004e40:	2800      	cmp	r0, #0
10004e42:	f43f ae85 	beq.w	10004b50 <tud_task_ext+0x230>
10004e46:	4640      	mov	r0, r8
10004e48:	8853      	ldrh	r3, [r2, #2]
10004e4a:	a908      	add	r1, sp, #32
10004e4c:	f000 fa10 	bl	10005270 <tud_control_xfer>
10004e50:	2800      	cmp	r0, #0
10004e52:	f47f ad75 	bne.w	10004940 <tud_task_ext+0x20>
10004e56:	e67b      	b.n	10004b50 <tud_task_ext+0x230>
10004e58:	f89d 3024 	ldrb.w	r3, [sp, #36]	@ 0x24
10004e5c:	2b0f      	cmp	r3, #15
10004e5e:	f63f ae77 	bhi.w	10004b50 <tud_task_ext+0x230>
10004e62:	4a16      	ldr	r2, [pc, #88]	@ (10004ebc <tud_task_ext+0x59c>)
10004e64:	443b      	add	r3, r7
10004e66:	791b      	ldrb	r3, [r3, #4]
10004e68:	7812      	ldrb	r2, [r2, #0]
10004e6a:	4293      	cmp	r3, r2
10004e6c:	d21d      	bcs.n	10004eaa <tud_task_ext+0x58a>
10004e6e:	4a15      	ldr	r2, [pc, #84]	@ (10004ec4 <tud_task_ext+0x5a4>)
10004e70:	6816      	ldr	r6, [r2, #0]
10004e72:	eb16 1643 	adds.w	r6, r6, r3, lsl #5
10004e76:	f47f aea2 	bne.w	10004bbe <tud_task_ext+0x29e>
10004e7a:	e669      	b.n	10004b50 <tud_task_ext+0x230>
10004e7c:	2a00      	cmp	r2, #0
10004e7e:	f47f ae67 	bne.w	10004b50 <tud_task_ext+0x230>
10004e82:	2600      	movs	r6, #0
10004e84:	f89d 2021 	ldrb.w	r2, [sp, #33]	@ 0x21
10004e88:	f002 03fd 	and.w	r3, r2, #253	@ 0xfd
10004e8c:	2b01      	cmp	r3, #1
10004e8e:	d01b      	beq.n	10004ec8 <tud_task_ext+0x5a8>
10004e90:	2a00      	cmp	r2, #0
10004e92:	f47f ae56 	bne.w	10004b42 <tud_task_ext+0x222>
10004e96:	9b01      	ldr	r3, [sp, #4]
10004e98:	9a00      	ldr	r2, [sp, #0]
10004e9a:	443b      	add	r3, r7
10004e9c:	4413      	add	r3, r2
10004e9e:	f893 3034 	ldrb.w	r3, [r3, #52]	@ 0x34
10004ea2:	4640      	mov	r0, r8
10004ea4:	f3c3 0340 	ubfx	r3, r3, #1, #1
10004ea8:	e7ad      	b.n	10004e06 <tud_task_ext+0x4e6>
10004eaa:	1c51      	adds	r1, r2, #1
10004eac:	4299      	cmp	r1, r3
10004eae:	f6ff ae4f 	blt.w	10004b50 <tud_task_ext+0x230>
10004eb2:	4e03      	ldr	r6, [pc, #12]	@ (10004ec0 <tud_task_ext+0x5a0>)
10004eb4:	1a9b      	subs	r3, r3, r2
10004eb6:	eb06 1643 	add.w	r6, r6, r3, lsl #5
10004eba:	e680      	b.n	10004bbe <tud_task_ext+0x29e>
10004ebc:	20025161 	.word	0x20025161
10004ec0:	10013a88 	.word	0x10013a88
10004ec4:	20003138 	.word	0x20003138
10004ec8:	f8bd 3022 	ldrh.w	r3, [sp, #34]	@ 0x22
10004ecc:	b9b3      	cbnz	r3, 10004efc <tud_task_ext+0x5dc>
10004ece:	2a01      	cmp	r2, #1
10004ed0:	f899 0000 	ldrb.w	r0, [r9]
10004ed4:	f000 8086 	beq.w	10004fe4 <tud_task_ext+0x6c4>
10004ed8:	f7ff fbdc 	bl	10004694 <dcd_edpt_stall>
10004edc:	9b01      	ldr	r3, [sp, #4]
10004ede:	9a00      	ldr	r2, [sp, #0]
10004ee0:	443b      	add	r3, r7
10004ee2:	4413      	add	r3, r2
10004ee4:	f893 2034 	ldrb.w	r2, [r3, #52]	@ 0x34
10004ee8:	f042 0202 	orr.w	r2, r2, #2
10004eec:	f883 2034 	strb.w	r2, [r3, #52]	@ 0x34
10004ef0:	f893 2034 	ldrb.w	r2, [r3, #52]	@ 0x34
10004ef4:	f042 0201 	orr.w	r2, r2, #1
10004ef8:	f883 2034 	strb.w	r2, [r3, #52]	@ 0x34
10004efc:	2e00      	cmp	r6, #0
10004efe:	f43f ad1f 	beq.w	10004940 <tud_task_ext+0x20>
10004f02:	6970      	ldr	r0, [r6, #20]
10004f04:	f000 fa14 	bl	10005330 <usbd_control_set_complete_callback>
10004f08:	6973      	ldr	r3, [r6, #20]
10004f0a:	2101      	movs	r1, #1
10004f0c:	aa08      	add	r2, sp, #32
10004f0e:	4640      	mov	r0, r8
10004f10:	4798      	blx	r3
10004f12:	2000      	movs	r0, #0
10004f14:	f000 fa0c 	bl	10005330 <usbd_control_set_complete_callback>
10004f18:	f897 3035 	ldrb.w	r3, [r7, #53]	@ 0x35
10004f1c:	07df      	lsls	r7, r3, #31
10004f1e:	f53f ad0f 	bmi.w	10004940 <tud_task_ext+0x20>
10004f22:	e696      	b.n	10004c52 <tud_task_ext+0x332>
10004f24:	f7ff fc72 	bl	1000480c <tud_umount_cb>
10004f28:	4640      	mov	r0, r8
10004f2a:	a908      	add	r1, sp, #32
10004f2c:	f000 f986 	bl	1000523c <tud_control_status>
10004f30:	e506      	b.n	10004940 <tud_task_ext+0x20>
10004f32:	9b04      	ldr	r3, [sp, #16]
10004f34:	2b01      	cmp	r3, #1
10004f36:	f000 809e 	beq.w	10005076 <tud_task_ext+0x756>
10004f3a:	2b00      	cmp	r3, #0
10004f3c:	f000 808a 	beq.w	10005054 <tud_task_ext+0x734>
10004f40:	2000      	movs	r0, #0
10004f42:	f891 8002 	ldrb.w	r8, [r1, #2]
10004f46:	e005      	b.n	10004f54 <tud_task_ext+0x634>
10004f48:	f88c 6004 	strb.w	r6, [ip, #4]
10004f4c:	fa5f fc80 	uxtb.w	ip, r0
10004f50:	4563      	cmp	r3, ip
10004f52:	d97f      	bls.n	10005054 <tud_task_ext+0x734>
10004f54:	eb08 0c00 	add.w	ip, r8, r0
10004f58:	fa57 fc8c 	uxtab	ip, r7, ip
10004f5c:	f89c e004 	ldrb.w	lr, [ip, #4]
10004f60:	3001      	adds	r0, #1
10004f62:	f1be 0fff 	cmp.w	lr, #255	@ 0xff
10004f66:	d0ef      	beq.n	10004f48 <tud_task_ext+0x628>
10004f68:	f04f 23e0 	mov.w	r3, #3758153728	@ 0xe000e000
10004f6c:	f8d3 3df0 	ldr.w	r3, [r3, #3568]	@ 0xdf0
10004f70:	07da      	lsls	r2, r3, #31
10004f72:	d500      	bpl.n	10004f76 <tud_task_ext+0x656>
10004f74:	be00      	bkpt	0x0000
10004f76:	f04f 23e0 	mov.w	r3, #3758153728	@ 0xe000e000
10004f7a:	f8d3 3df0 	ldr.w	r3, [r3, #3568]	@ 0xdf0
10004f7e:	07db      	lsls	r3, r3, #31
10004f80:	d500      	bpl.n	10004f84 <tud_task_ext+0x664>
10004f82:	be00      	bkpt	0x0000
10004f84:	2300      	movs	r3, #0
10004f86:	707b      	strb	r3, [r7, #1]
10004f88:	e5e2      	b.n	10004b50 <tud_task_ext+0x230>
10004f8a:	f7fe ff2f 	bl	10003dec <tud_descriptor_bos_cb>
10004f8e:	4602      	mov	r2, r0
10004f90:	2800      	cmp	r0, #0
10004f92:	f47f af58 	bne.w	10004e46 <tud_task_ext+0x526>
10004f96:	e5db      	b.n	10004b50 <tud_task_ext+0x230>
10004f98:	f7ff f960 	bl	1000425c <tud_descriptor_device_cb>
10004f9c:	4602      	mov	r2, r0
10004f9e:	2800      	cmp	r0, #0
10004fa0:	f43f adcf 	beq.w	10004b42 <tud_task_ext+0x222>
10004fa4:	4640      	mov	r0, r8
10004fa6:	2312      	movs	r3, #18
10004fa8:	a908      	add	r1, sp, #32
10004faa:	f000 f961 	bl	10005270 <tud_control_xfer>
10004fae:	2800      	cmp	r0, #0
10004fb0:	f47f acc6 	bne.w	10004940 <tud_task_ext+0x20>
10004fb4:	e5cc      	b.n	10004b50 <tud_task_ext+0x230>
10004fb6:	f7ff fc23 	bl	10004800 <tud_descriptor_device_qualifier_cb>
10004fba:	4602      	mov	r2, r0
10004fbc:	2800      	cmp	r0, #0
10004fbe:	f43f adc7 	beq.w	10004b50 <tud_task_ext+0x230>
10004fc2:	4640      	mov	r0, r8
10004fc4:	7813      	ldrb	r3, [r2, #0]
10004fc6:	a908      	add	r1, sp, #32
10004fc8:	f000 f952 	bl	10005270 <tud_control_xfer>
10004fcc:	2800      	cmp	r0, #0
10004fce:	f47f acb7 	bne.w	10004940 <tud_task_ext+0x20>
10004fd2:	e5bd      	b.n	10004b50 <tud_task_ext+0x230>
10004fd4:	f8bd 1024 	ldrh.w	r1, [sp, #36]	@ 0x24
10004fd8:	f7ff f948 	bl	1000426c <tud_descriptor_string_cb>
10004fdc:	4602      	mov	r2, r0
10004fde:	2800      	cmp	r0, #0
10004fe0:	d1ef      	bne.n	10004fc2 <tud_task_ext+0x6a2>
10004fe2:	e5b5      	b.n	10004b50 <tud_task_ext+0x230>
10004fe4:	9302      	str	r3, [sp, #8]
10004fe6:	f7ff fb6b 	bl	100046c0 <dcd_edpt_clear_stall>
10004fea:	9a01      	ldr	r2, [sp, #4]
10004fec:	9b00      	ldr	r3, [sp, #0]
10004fee:	443a      	add	r2, r7
10004ff0:	441a      	add	r2, r3
10004ff2:	f892 1034 	ldrb.w	r1, [r2, #52]	@ 0x34
10004ff6:	9b02      	ldr	r3, [sp, #8]
10004ff8:	f363 0141 	bfi	r1, r3, #1, #1
10004ffc:	f882 1034 	strb.w	r1, [r2, #52]	@ 0x34
10005000:	f892 1034 	ldrb.w	r1, [r2, #52]	@ 0x34
10005004:	f363 0100 	bfi	r1, r3, #0, #1
10005008:	f882 1034 	strb.w	r1, [r2, #52]	@ 0x34
1000500c:	e776      	b.n	10004efc <tud_task_ext+0x5dc>
1000500e:	2100      	movs	r1, #0
10005010:	4640      	mov	r0, r8
10005012:	f7ff fa91 	bl	10004538 <dcd_sof_enable>
10005016:	4640      	mov	r0, r8
10005018:	f7ff fb26 	bl	10004668 <dcd_edpt_close_all>
1000501c:	78bb      	ldrb	r3, [r7, #2]
1000501e:	4640      	mov	r0, r8
10005020:	9300      	str	r3, [sp, #0]
10005022:	f7ff fba3 	bl	1000476c <configuration_reset>
10005026:	9b00      	ldr	r3, [sp, #0]
10005028:	70bb      	strb	r3, [r7, #2]
1000502a:	e632      	b.n	10004c92 <tud_task_ext+0x372>
1000502c:	f8dd 800c 	ldr.w	r8, [sp, #12]
10005030:	f7ff fbea 	bl	10004808 <tud_mount_cb>
10005034:	e778      	b.n	10004f28 <tud_task_ext+0x608>
10005036:	4640      	mov	r0, r8
10005038:	2301      	movs	r3, #1
1000503a:	a908      	add	r1, sp, #32
1000503c:	f10d 021a 	add.w	r2, sp, #26
10005040:	f88d 601a 	strb.w	r6, [sp, #26]
10005044:	f000 f914 	bl	10005270 <tud_control_xfer>
10005048:	e47a      	b.n	10004940 <tud_task_ext+0x20>
1000504a:	780a      	ldrb	r2, [r1, #0]
1000504c:	78cb      	ldrb	r3, [r1, #3]
1000504e:	4411      	add	r1, r2
10005050:	784a      	ldrb	r2, [r1, #1]
10005052:	e64c      	b.n	10004cee <tud_task_ext+0x3ce>
10005054:	4633      	mov	r3, r6
10005056:	4810      	ldr	r0, [pc, #64]	@ (10005098 <tud_task_ext+0x778>)
10005058:	9204      	str	r2, [sp, #16]
1000505a:	9102      	str	r1, [sp, #8]
1000505c:	f000 fea2 	bl	10005da4 <tu_edpt_bind_driver>
10005060:	4b0e      	ldr	r3, [pc, #56]	@ (1000509c <tud_task_ext+0x77c>)
10005062:	9a04      	ldr	r2, [sp, #16]
10005064:	9902      	ldr	r1, [sp, #8]
10005066:	781b      	ldrb	r3, [r3, #0]
10005068:	4411      	add	r1, r2
1000506a:	9a00      	ldr	r2, [sp, #0]
1000506c:	3301      	adds	r3, #1
1000506e:	4293      	cmp	r3, r2
10005070:	f6bf ae34 	bge.w	10004cdc <tud_task_ext+0x3bc>
10005074:	e778      	b.n	10004f68 <tud_task_ext+0x648>
10005076:	f8d8 c010 	ldr.w	ip, [r8, #16]
1000507a:	4809      	ldr	r0, [pc, #36]	@ (100050a0 <tud_task_ext+0x780>)
1000507c:	4584      	cmp	ip, r0
1000507e:	bf08      	it	eq
10005080:	2302      	moveq	r3, #2
10005082:	e75d      	b.n	10004f40 <tud_task_ext+0x620>
10005084:	f04f 23e0 	mov.w	r3, #3758153728	@ 0xe000e000
10005088:	f8d3 3df0 	ldr.w	r3, [r3, #3568]	@ 0xdf0
1000508c:	07db      	lsls	r3, r3, #31
1000508e:	f57f ac57 	bpl.w	10004940 <tud_task_ext+0x20>
10005092:	be00      	bkpt	0x0000
10005094:	e454      	b.n	10004940 <tud_task_ext+0x20>
10005096:	bf00      	nop
10005098:	200031d0 	.word	0x200031d0
1000509c:	20025161 	.word	0x20025161
100050a0:	1000575d 	.word	0x1000575d

100050a4 <usbd_open_edpt_pair>:
100050a4:	e92d 4ff8 	stmdb	sp!, {r3, r4, r5, r6, r7, r8, r9, sl, fp, lr}
100050a8:	f8dd 8028 	ldr.w	r8, [sp, #40]	@ 0x28
100050ac:	2a00      	cmp	r2, #0
100050ae:	d03f      	beq.n	10005130 <usbd_open_edpt_pair+0x8c>
100050b0:	460c      	mov	r4, r1
100050b2:	461e      	mov	r6, r3
100050b4:	4615      	mov	r5, r2
100050b6:	f04f 0b00 	mov.w	fp, #0
100050ba:	4f1f      	ldr	r7, [pc, #124]	@ (10005138 <usbd_open_edpt_pair+0x94>)
100050bc:	f8df 907c 	ldr.w	r9, [pc, #124]	@ 1000513c <usbd_open_edpt_pair+0x98>
100050c0:	e017      	b.n	100050f2 <usbd_open_edpt_pair+0x4e>
100050c2:	4620      	mov	r0, r4
100050c4:	f899 1002 	ldrb.w	r1, [r9, #2]
100050c8:	f000 fe3a 	bl	10005d40 <tu_edpt_validate>
100050cc:	b1f8      	cbz	r0, 1000510e <usbd_open_edpt_pair+0x6a>
100050ce:	4621      	mov	r1, r4
100050d0:	4650      	mov	r0, sl
100050d2:	f7ff fa4d 	bl	10004570 <dcd_edpt_open>
100050d6:	b308      	cbz	r0, 1000511c <usbd_open_edpt_pair+0x78>
100050d8:	78a3      	ldrb	r3, [r4, #2]
100050da:	f10b 0b01 	add.w	fp, fp, #1
100050de:	09da      	lsrs	r2, r3, #7
100050e0:	bf16      	itet	ne
100050e2:	9a0b      	ldrne	r2, [sp, #44]	@ 0x2c
100050e4:	f888 3000 	strbeq.w	r3, [r8]
100050e8:	7013      	strbne	r3, [r2, #0]
100050ea:	7823      	ldrb	r3, [r4, #0]
100050ec:	45ab      	cmp	fp, r5
100050ee:	441c      	add	r4, r3
100050f0:	d01e      	beq.n	10005130 <usbd_open_edpt_pair+0x8c>
100050f2:	7863      	ldrb	r3, [r4, #1]
100050f4:	2b05      	cmp	r3, #5
100050f6:	d111      	bne.n	1000511c <usbd_open_edpt_pair+0x78>
100050f8:	78e1      	ldrb	r1, [r4, #3]
100050fa:	f001 0103 	and.w	r1, r1, #3
100050fe:	42b1      	cmp	r1, r6
10005100:	d10c      	bne.n	1000511c <usbd_open_edpt_pair+0x78>
10005102:	78a3      	ldrb	r3, [r4, #2]
10005104:	f897 a000 	ldrb.w	sl, [r7]
10005108:	f013 0f70 	tst.w	r3, #112	@ 0x70
1000510c:	d0d9      	beq.n	100050c2 <usbd_open_edpt_pair+0x1e>
1000510e:	f04f 23e0 	mov.w	r3, #3758153728	@ 0xe000e000
10005112:	f8d3 3df0 	ldr.w	r3, [r3, #3568]	@ 0xdf0
10005116:	07da      	lsls	r2, r3, #31
10005118:	d500      	bpl.n	1000511c <usbd_open_edpt_pair+0x78>
1000511a:	be00      	bkpt	0x0000
1000511c:	f04f 23e0 	mov.w	r3, #3758153728	@ 0xe000e000
10005120:	f8d3 3df0 	ldr.w	r3, [r3, #3568]	@ 0xdf0
10005124:	07db      	lsls	r3, r3, #31
10005126:	d500      	bpl.n	1000512a <usbd_open_edpt_pair+0x86>
10005128:	be00      	bkpt	0x0000
1000512a:	2000      	movs	r0, #0
1000512c:	e8bd 8ff8 	ldmia.w	sp!, {r3, r4, r5, r6, r7, r8, r9, sl, fp, pc}
10005130:	2001      	movs	r0, #1
10005132:	e8bd 8ff8 	ldmia.w	sp!, {r3, r4, r5, r6, r7, r8, r9, sl, fp, pc}
10005136:	bf00      	nop
10005138:	200022e8 	.word	0x200022e8
1000513c:	200031bc 	.word	0x200031bc

10005140 <usbd_edpt_open>:
10005140:	b538      	push	{r3, r4, r5, lr}
10005142:	4b0e      	ldr	r3, [pc, #56]	@ (1000517c <usbd_edpt_open+0x3c>)
10005144:	781d      	ldrb	r5, [r3, #0]
10005146:	788b      	ldrb	r3, [r1, #2]
10005148:	f013 0f70 	tst.w	r3, #112	@ 0x70
1000514c:	d008      	beq.n	10005160 <usbd_edpt_open+0x20>
1000514e:	f04f 23e0 	mov.w	r3, #3758153728	@ 0xe000e000
10005152:	f8d3 3df0 	ldr.w	r3, [r3, #3568]	@ 0xdf0
10005156:	07db      	lsls	r3, r3, #31
10005158:	d500      	bpl.n	1000515c <usbd_edpt_open+0x1c>
1000515a:	be00      	bkpt	0x0000
1000515c:	2000      	movs	r0, #0
1000515e:	bd38      	pop	{r3, r4, r5, pc}
10005160:	4b07      	ldr	r3, [pc, #28]	@ (10005180 <usbd_edpt_open+0x40>)
10005162:	460c      	mov	r4, r1
10005164:	4608      	mov	r0, r1
10005166:	7899      	ldrb	r1, [r3, #2]
10005168:	f000 fdea 	bl	10005d40 <tu_edpt_validate>
1000516c:	2800      	cmp	r0, #0
1000516e:	d0ee      	beq.n	1000514e <usbd_edpt_open+0xe>
10005170:	4621      	mov	r1, r4
10005172:	4628      	mov	r0, r5
10005174:	e8bd 4038 	ldmia.w	sp!, {r3, r4, r5, lr}
10005178:	f7ff b9fa 	b.w	10004570 <dcd_edpt_open>
1000517c:	200022e8 	.word	0x200022e8
10005180:	200031bc 	.word	0x200031bc

10005184 <usbd_edpt_claim>:
10005184:	460b      	mov	r3, r1
10005186:	4a06      	ldr	r2, [pc, #24]	@ (100051a0 <usbd_edpt_claim+0x1c>)
10005188:	4806      	ldr	r0, [pc, #24]	@ (100051a4 <usbd_edpt_claim+0x20>)
1000518a:	6811      	ldr	r1, [r2, #0]
1000518c:	09da      	lsrs	r2, r3, #7
1000518e:	3234      	adds	r2, #52	@ 0x34
10005190:	f003 037f 	and.w	r3, r3, #127	@ 0x7f
10005194:	eb02 0343 	add.w	r3, r2, r3, lsl #1
10005198:	4418      	add	r0, r3
1000519a:	f000 bd8b 	b.w	10005cb4 <tu_edpt_claim>
1000519e:	bf00      	nop
100051a0:	20003210 	.word	0x20003210
100051a4:	200031bc 	.word	0x200031bc

100051a8 <usbd_edpt_release>:
100051a8:	460b      	mov	r3, r1
100051aa:	4a06      	ldr	r2, [pc, #24]	@ (100051c4 <usbd_edpt_release+0x1c>)
100051ac:	4806      	ldr	r0, [pc, #24]	@ (100051c8 <usbd_edpt_release+0x20>)
100051ae:	6811      	ldr	r1, [r2, #0]
100051b0:	09da      	lsrs	r2, r3, #7
100051b2:	3234      	adds	r2, #52	@ 0x34
100051b4:	f003 037f 	and.w	r3, r3, #127	@ 0x7f
100051b8:	eb02 0343 	add.w	r3, r2, r3, lsl #1
100051bc:	4418      	add	r0, r3
100051be:	f000 bda3 	b.w	10005d08 <tu_edpt_release>
100051c2:	bf00      	nop
100051c4:	20003210 	.word	0x20003210
100051c8:	200031bc 	.word	0x200031bc

100051cc <usbd_edpt_xfer>:
100051cc:	b510      	push	{r4, lr}
100051ce:	4c19      	ldr	r4, [pc, #100]	@ (10005234 <usbd_edpt_xfer+0x68>)
100051d0:	f001 0e7f 	and.w	lr, r1, #127	@ 0x7f
100051d4:	eb04 044e 	add.w	r4, r4, lr, lsl #1
100051d8:	eb04 14d1 	add.w	r4, r4, r1, lsr #7
100051dc:	f894 c034 	ldrb.w	ip, [r4, #52]	@ 0x34
100051e0:	4815      	ldr	r0, [pc, #84]	@ (10005238 <usbd_edpt_xfer+0x6c>)
100051e2:	f01c 0f01 	tst.w	ip, #1
100051e6:	f104 0430 	add.w	r4, r4, #48	@ 0x30
100051ea:	7800      	ldrb	r0, [r0, #0]
100051ec:	d008      	beq.n	10005200 <usbd_edpt_xfer+0x34>
100051ee:	f04f 23e0 	mov.w	r3, #3758153728	@ 0xe000e000
100051f2:	f8d3 3df0 	ldr.w	r3, [r3, #3568]	@ 0xdf0
100051f6:	07da      	lsls	r2, r3, #31
100051f8:	d500      	bpl.n	100051fc <usbd_edpt_xfer+0x30>
100051fa:	be00      	bkpt	0x0000
100051fc:	2000      	movs	r0, #0
100051fe:	bd10      	pop	{r4, pc}
10005200:	f894 c004 	ldrb.w	ip, [r4, #4]
10005204:	f04c 0c01 	orr.w	ip, ip, #1
10005208:	f884 c004 	strb.w	ip, [r4, #4]
1000520c:	f7ff fa2e 	bl	1000466c <dcd_edpt_xfer>
10005210:	2800      	cmp	r0, #0
10005212:	d1f4      	bne.n	100051fe <usbd_edpt_xfer+0x32>
10005214:	f04f 21e0 	mov.w	r1, #3758153728	@ 0xe000e000
10005218:	7922      	ldrb	r2, [r4, #4]
1000521a:	f360 0200 	bfi	r2, r0, #0, #1
1000521e:	7122      	strb	r2, [r4, #4]
10005220:	7922      	ldrb	r2, [r4, #4]
10005222:	f360 0282 	bfi	r2, r0, #2, #1
10005226:	7122      	strb	r2, [r4, #4]
10005228:	f8d1 3df0 	ldr.w	r3, [r1, #3568]	@ 0xdf0
1000522c:	07db      	lsls	r3, r3, #31
1000522e:	d5e5      	bpl.n	100051fc <usbd_edpt_xfer+0x30>
10005230:	e7e3      	b.n	100051fa <usbd_edpt_xfer+0x2e>
10005232:	bf00      	nop
10005234:	200031bc 	.word	0x200031bc
10005238:	200022e8 	.word	0x200022e8

1000523c <tud_control_status>:
1000523c:	b530      	push	{r4, r5, lr}
1000523e:	4c0b      	ldr	r4, [pc, #44]	@ (1000526c <tud_control_status+0x30>)
10005240:	468c      	mov	ip, r1
10005242:	46a6      	mov	lr, r4
10005244:	4605      	mov	r5, r0
10005246:	6808      	ldr	r0, [r1, #0]
10005248:	6849      	ldr	r1, [r1, #4]
1000524a:	2300      	movs	r3, #0
1000524c:	e8ae 0003 	stmia.w	lr!, {r0, r1}
10005250:	f89c 1000 	ldrb.w	r1, [ip]
10005254:	4628      	mov	r0, r5
10005256:	43c9      	mvns	r1, r1
10005258:	e9c4 3302 	strd	r3, r3, [r4, #8]
1000525c:	e8bd 4030 	ldmia.w	sp!, {r4, r5, lr}
10005260:	461a      	mov	r2, r3
10005262:	f001 0180 	and.w	r1, r1, #128	@ 0x80
10005266:	f7ff bfb1 	b.w	100051cc <usbd_edpt_xfer>
1000526a:	bf00      	nop
1000526c:	20003140 	.word	0x20003140

10005270 <tud_control_xfer>:
10005270:	e92d 41f0 	stmdb	sp!, {r4, r5, r6, r7, r8, lr}
10005274:	4f27      	ldr	r7, [pc, #156]	@ (10005314 <tud_control_xfer+0xa4>)
10005276:	f04f 0800 	mov.w	r8, #0
1000527a:	46be      	mov	lr, r7
1000527c:	468c      	mov	ip, r1
1000527e:	4606      	mov	r6, r0
10005280:	6808      	ldr	r0, [r1, #0]
10005282:	6849      	ldr	r1, [r1, #4]
10005284:	60ba      	str	r2, [r7, #8]
10005286:	e8ae 0003 	stmia.w	lr!, {r0, r1}
1000528a:	f8a7 800e 	strh.w	r8, [r7, #14]
1000528e:	4615      	mov	r5, r2
10005290:	f8bc 2006 	ldrh.w	r2, [ip, #6]
10005294:	4293      	cmp	r3, r2
10005296:	bf28      	it	cs
10005298:	4613      	movcs	r3, r2
1000529a:	81bb      	strh	r3, [r7, #12]
1000529c:	b19a      	cbz	r2, 100052c6 <tud_control_xfer+0x56>
1000529e:	461c      	mov	r4, r3
100052a0:	b32b      	cbz	r3, 100052ee <tud_control_xfer+0x7e>
100052a2:	b1dd      	cbz	r5, 100052dc <tud_control_xfer+0x6c>
100052a4:	f997 3000 	ldrsb.w	r3, [r7]
100052a8:	2c40      	cmp	r4, #64	@ 0x40
100052aa:	bf28      	it	cs
100052ac:	2440      	movcs	r4, #64	@ 0x40
100052ae:	2b00      	cmp	r3, #0
100052b0:	db28      	blt.n	10005304 <tud_control_xfer+0x94>
100052b2:	4641      	mov	r1, r8
100052b4:	4623      	mov	r3, r4
100052b6:	4630      	mov	r0, r6
100052b8:	4a17      	ldr	r2, [pc, #92]	@ (10005318 <tud_control_xfer+0xa8>)
100052ba:	f7ff ff87 	bl	100051cc <usbd_edpt_xfer>
100052be:	b168      	cbz	r0, 100052dc <tud_control_xfer+0x6c>
100052c0:	2001      	movs	r0, #1
100052c2:	e8bd 81f0 	ldmia.w	sp!, {r4, r5, r6, r7, r8, pc}
100052c6:	f89c 1000 	ldrb.w	r1, [ip]
100052ca:	4613      	mov	r3, r2
100052cc:	43c9      	mvns	r1, r1
100052ce:	4630      	mov	r0, r6
100052d0:	f001 0180 	and.w	r1, r1, #128	@ 0x80
100052d4:	f7ff ff7a 	bl	100051cc <usbd_edpt_xfer>
100052d8:	2800      	cmp	r0, #0
100052da:	d1f1      	bne.n	100052c0 <tud_control_xfer+0x50>
100052dc:	f04f 23e0 	mov.w	r3, #3758153728	@ 0xe000e000
100052e0:	f8d3 3df0 	ldr.w	r3, [r3, #3568]	@ 0xdf0
100052e4:	07db      	lsls	r3, r3, #31
100052e6:	d500      	bpl.n	100052ea <tud_control_xfer+0x7a>
100052e8:	be00      	bkpt	0x0000
100052ea:	2000      	movs	r0, #0
100052ec:	e7e9      	b.n	100052c2 <tud_control_xfer+0x52>
100052ee:	461a      	mov	r2, r3
100052f0:	7839      	ldrb	r1, [r7, #0]
100052f2:	f001 0180 	and.w	r1, r1, #128	@ 0x80
100052f6:	4623      	mov	r3, r4
100052f8:	4630      	mov	r0, r6
100052fa:	f7ff ff67 	bl	100051cc <usbd_edpt_xfer>
100052fe:	2800      	cmp	r0, #0
10005300:	d1de      	bne.n	100052c0 <tud_control_xfer+0x50>
10005302:	e7eb      	b.n	100052dc <tud_control_xfer+0x6c>
10005304:	4622      	mov	r2, r4
10005306:	4629      	mov	r1, r5
10005308:	4803      	ldr	r0, [pc, #12]	@ (10005318 <tud_control_xfer+0xa8>)
1000530a:	f00c fdcd 	bl	10011ea8 <memcpy>
1000530e:	2180      	movs	r1, #128	@ 0x80
10005310:	4a01      	ldr	r2, [pc, #4]	@ (10005318 <tud_control_xfer+0xa8>)
10005312:	e7f0      	b.n	100052f6 <tud_control_xfer+0x86>
10005314:	20003140 	.word	0x20003140
10005318:	2000317c 	.word	0x2000317c

1000531c <usbd_control_reset>:
1000531c:	2200      	movs	r2, #0
1000531e:	4b03      	ldr	r3, [pc, #12]	@ (1000532c <usbd_control_reset+0x10>)
10005320:	e9c3 2200 	strd	r2, r2, [r3]
10005324:	e9c3 2202 	strd	r2, r2, [r3, #8]
10005328:	611a      	str	r2, [r3, #16]
1000532a:	4770      	bx	lr
1000532c:	20003140 	.word	0x20003140

10005330 <usbd_control_set_complete_callback>:
10005330:	4b01      	ldr	r3, [pc, #4]	@ (10005338 <usbd_control_set_complete_callback+0x8>)
10005332:	6118      	str	r0, [r3, #16]
10005334:	4770      	bx	lr
10005336:	bf00      	nop
10005338:	20003140 	.word	0x20003140

1000533c <usbd_control_set_request>:
1000533c:	b430      	push	{r4, r5}
1000533e:	4602      	mov	r2, r0
10005340:	4c04      	ldr	r4, [pc, #16]	@ (10005354 <usbd_control_set_request+0x18>)
10005342:	2500      	movs	r5, #0
10005344:	4623      	mov	r3, r4
10005346:	6800      	ldr	r0, [r0, #0]
10005348:	6851      	ldr	r1, [r2, #4]
1000534a:	e9c4 5502 	strd	r5, r5, [r4, #8]
1000534e:	bc30      	pop	{r4, r5}
10005350:	c303      	stmia	r3!, {r0, r1}
10005352:	4770      	bx	lr
10005354:	20003140 	.word	0x20003140

10005358 <usbd_control_xfer_cb>:
10005358:	b570      	push	{r4, r5, r6, lr}
1000535a:	4c3c      	ldr	r4, [pc, #240]	@ (1000544c <usbd_control_xfer_cb+0xf4>)
1000535c:	09c9      	lsrs	r1, r1, #7
1000535e:	7822      	ldrb	r2, [r4, #0]
10005360:	4606      	mov	r6, r0
10005362:	ebb1 1fd2 	cmp.w	r1, r2, lsr #7
10005366:	461d      	mov	r5, r3
10005368:	b082      	sub	sp, #8
1000536a:	d017      	beq.n	1000539c <usbd_control_xfer_cb+0x44>
1000536c:	b153      	cbz	r3, 10005384 <usbd_control_xfer_cb+0x2c>
1000536e:	f04f 23e0 	mov.w	r3, #3758153728	@ 0xe000e000
10005372:	f8d3 3df0 	ldr.w	r3, [r3, #3568]	@ 0xdf0
10005376:	07db      	lsls	r3, r3, #31
10005378:	d402      	bmi.n	10005380 <usbd_control_xfer_cb+0x28>
1000537a:	2000      	movs	r0, #0
1000537c:	b002      	add	sp, #8
1000537e:	bd70      	pop	{r4, r5, r6, pc}
10005380:	be00      	bkpt	0x0000
10005382:	e7fa      	b.n	1000537a <usbd_control_xfer_cb+0x22>
10005384:	4621      	mov	r1, r4
10005386:	f7ff f8e5 	bl	10004554 <dcd_edpt0_status_complete>
1000538a:	6923      	ldr	r3, [r4, #16]
1000538c:	b11b      	cbz	r3, 10005396 <usbd_control_xfer_cb+0x3e>
1000538e:	4622      	mov	r2, r4
10005390:	2103      	movs	r1, #3
10005392:	4630      	mov	r0, r6
10005394:	4798      	blx	r3
10005396:	2001      	movs	r0, #1
10005398:	b002      	add	sp, #8
1000539a:	bd70      	pop	{r4, r5, r6, pc}
1000539c:	f994 3000 	ldrsb.w	r3, [r4]
100053a0:	68a0      	ldr	r0, [r4, #8]
100053a2:	2b00      	cmp	r3, #0
100053a4:	db05      	blt.n	100053b2 <usbd_control_xfer_cb+0x5a>
100053a6:	2800      	cmp	r0, #0
100053a8:	d0e7      	beq.n	1000537a <usbd_control_xfer_cb+0x22>
100053aa:	462a      	mov	r2, r5
100053ac:	4928      	ldr	r1, [pc, #160]	@ (10005450 <usbd_control_xfer_cb+0xf8>)
100053ae:	f00c fd7b 	bl	10011ea8 <memcpy>
100053b2:	89e0      	ldrh	r0, [r4, #14]
100053b4:	68a1      	ldr	r1, [r4, #8]
100053b6:	88e3      	ldrh	r3, [r4, #6]
100053b8:	4428      	add	r0, r5
100053ba:	b280      	uxth	r0, r0
100053bc:	4429      	add	r1, r5
100053be:	4283      	cmp	r3, r0
100053c0:	81e0      	strh	r0, [r4, #14]
100053c2:	60a1      	str	r1, [r4, #8]
100053c4:	d016      	beq.n	100053f4 <usbd_control_xfer_cb+0x9c>
100053c6:	2d3f      	cmp	r5, #63	@ 0x3f
100053c8:	d914      	bls.n	100053f4 <usbd_control_xfer_cb+0x9c>
100053ca:	89a2      	ldrh	r2, [r4, #12]
100053cc:	f994 4000 	ldrsb.w	r4, [r4]
100053d0:	1a13      	subs	r3, r2, r0
100053d2:	b29b      	uxth	r3, r3
100053d4:	2b40      	cmp	r3, #64	@ 0x40
100053d6:	bf28      	it	cs
100053d8:	2340      	movcs	r3, #64	@ 0x40
100053da:	2c00      	cmp	r4, #0
100053dc:	db26      	blt.n	1000542c <usbd_control_xfer_cb+0xd4>
100053de:	4290      	cmp	r0, r2
100053e0:	f04f 0100 	mov.w	r1, #0
100053e4:	d030      	beq.n	10005448 <usbd_control_xfer_cb+0xf0>
100053e6:	4a1a      	ldr	r2, [pc, #104]	@ (10005450 <usbd_control_xfer_cb+0xf8>)
100053e8:	4630      	mov	r0, r6
100053ea:	f7ff feef 	bl	100051cc <usbd_edpt_xfer>
100053ee:	2800      	cmp	r0, #0
100053f0:	d1d1      	bne.n	10005396 <usbd_control_xfer_cb+0x3e>
100053f2:	e7bc      	b.n	1000536e <usbd_control_xfer_cb+0x16>
100053f4:	6923      	ldr	r3, [r4, #16]
100053f6:	b123      	cbz	r3, 10005402 <usbd_control_xfer_cb+0xaa>
100053f8:	2102      	movs	r1, #2
100053fa:	4630      	mov	r0, r6
100053fc:	4a13      	ldr	r2, [pc, #76]	@ (1000544c <usbd_control_xfer_cb+0xf4>)
100053fe:	4798      	blx	r3
10005400:	b158      	cbz	r0, 1000541a <usbd_control_xfer_cb+0xc2>
10005402:	7821      	ldrb	r1, [r4, #0]
10005404:	2300      	movs	r3, #0
10005406:	43c9      	mvns	r1, r1
10005408:	4630      	mov	r0, r6
1000540a:	461a      	mov	r2, r3
1000540c:	f001 0180 	and.w	r1, r1, #128	@ 0x80
10005410:	f7ff fedc 	bl	100051cc <usbd_edpt_xfer>
10005414:	2800      	cmp	r0, #0
10005416:	d1be      	bne.n	10005396 <usbd_control_xfer_cb+0x3e>
10005418:	e7a9      	b.n	1000536e <usbd_control_xfer_cb+0x16>
1000541a:	4601      	mov	r1, r0
1000541c:	4630      	mov	r0, r6
1000541e:	f7ff f939 	bl	10004694 <dcd_edpt_stall>
10005422:	2180      	movs	r1, #128	@ 0x80
10005424:	4630      	mov	r0, r6
10005426:	f7ff f935 	bl	10004694 <dcd_edpt_stall>
1000542a:	e7b4      	b.n	10005396 <usbd_control_xfer_cb+0x3e>
1000542c:	4290      	cmp	r0, r2
1000542e:	d008      	beq.n	10005442 <usbd_control_xfer_cb+0xea>
10005430:	461a      	mov	r2, r3
10005432:	4807      	ldr	r0, [pc, #28]	@ (10005450 <usbd_control_xfer_cb+0xf8>)
10005434:	9301      	str	r3, [sp, #4]
10005436:	f00c fd37 	bl	10011ea8 <memcpy>
1000543a:	2180      	movs	r1, #128	@ 0x80
1000543c:	4a04      	ldr	r2, [pc, #16]	@ (10005450 <usbd_control_xfer_cb+0xf8>)
1000543e:	9b01      	ldr	r3, [sp, #4]
10005440:	e7d2      	b.n	100053e8 <usbd_control_xfer_cb+0x90>
10005442:	2180      	movs	r1, #128	@ 0x80
10005444:	2200      	movs	r2, #0
10005446:	e7cf      	b.n	100053e8 <usbd_control_xfer_cb+0x90>
10005448:	460a      	mov	r2, r1
1000544a:	e7cd      	b.n	100053e8 <usbd_control_xfer_cb+0x90>
1000544c:	20003140 	.word	0x20003140
10005450:	2000317c 	.word	0x2000317c

10005454 <_prep_out_transaction.isra.0>:
10005454:	b570      	push	{r4, r5, r6, lr}
10005456:	4604      	mov	r4, r0
10005458:	f7ff f9de 	bl	10004818 <tud_mounted>
1000545c:	b900      	cbnz	r0, 10005460 <_prep_out_transaction.isra.0+0xc>
1000545e:	bd70      	pop	{r4, r5, r6, pc}
10005460:	f7ff f9e2 	bl	10004828 <tud_suspended>
10005464:	4605      	mov	r5, r0
10005466:	2800      	cmp	r0, #0
10005468:	d1f9      	bne.n	1000545e <_prep_out_transaction.isra.0+0xa>
1000546a:	78e3      	ldrb	r3, [r4, #3]
1000546c:	2b00      	cmp	r3, #0
1000546e:	d0f6      	beq.n	1000545e <_prep_out_transaction.isra.0+0xa>
10005470:	f104 0610 	add.w	r6, r4, #16
10005474:	4630      	mov	r0, r6
10005476:	f000 fd0b 	bl	10005e90 <tu_fifo_remaining>
1000547a:	283f      	cmp	r0, #63	@ 0x3f
1000547c:	d9ef      	bls.n	1000545e <_prep_out_transaction.isra.0+0xa>
1000547e:	4628      	mov	r0, r5
10005480:	78e1      	ldrb	r1, [r4, #3]
10005482:	f7ff fe7f 	bl	10005184 <usbd_edpt_claim>
10005486:	2800      	cmp	r0, #0
10005488:	d0e9      	beq.n	1000545e <_prep_out_transaction.isra.0+0xa>
1000548a:	4630      	mov	r0, r6
1000548c:	f000 fd00 	bl	10005e90 <tu_fifo_remaining>
10005490:	283f      	cmp	r0, #63	@ 0x3f
10005492:	d908      	bls.n	100054a6 <_prep_out_transaction.isra.0+0x52>
10005494:	4628      	mov	r0, r5
10005496:	78e1      	ldrb	r1, [r4, #3]
10005498:	f504 7212 	add.w	r2, r4, #584	@ 0x248
1000549c:	2340      	movs	r3, #64	@ 0x40
1000549e:	e8bd 4070 	ldmia.w	sp!, {r4, r5, r6, lr}
100054a2:	f7ff be93 	b.w	100051cc <usbd_edpt_xfer>
100054a6:	4628      	mov	r0, r5
100054a8:	78e1      	ldrb	r1, [r4, #3]
100054aa:	e8bd 4070 	ldmia.w	sp!, {r4, r5, r6, lr}
100054ae:	f7ff be7b 	b.w	100051a8 <usbd_edpt_release>
100054b2:	bf00      	nop

100054b4 <tud_cdc_n_connected>:
100054b4:	b510      	push	{r4, lr}
100054b6:	4604      	mov	r4, r0
100054b8:	f7ff f9ae 	bl	10004818 <tud_mounted>
100054bc:	b908      	cbnz	r0, 100054c2 <tud_cdc_n_connected+0xe>
100054be:	2000      	movs	r0, #0
100054c0:	bd10      	pop	{r4, pc}
100054c2:	f7ff f9b1 	bl	10004828 <tud_suspended>
100054c6:	2800      	cmp	r0, #0
100054c8:	d1f9      	bne.n	100054be <tud_cdc_n_connected+0xa>
100054ca:	f44f 7232 	mov.w	r2, #712	@ 0x2c8
100054ce:	4b03      	ldr	r3, [pc, #12]	@ (100054dc <tud_cdc_n_connected+0x28>)
100054d0:	fb02 3304 	mla	r3, r2, r4, r3
100054d4:	7918      	ldrb	r0, [r3, #4]
100054d6:	f000 0001 	and.w	r0, r0, #1
100054da:	bd10      	pop	{r4, pc}
100054dc:	20002860 	.word	0x20002860

100054e0 <tud_cdc_n_available>:
100054e0:	f44f 7232 	mov.w	r2, #712	@ 0x2c8
100054e4:	b508      	push	{r3, lr}
100054e6:	4b03      	ldr	r3, [pc, #12]	@ (100054f4 <tud_cdc_n_available+0x14>)
100054e8:	fb02 3000 	mla	r0, r2, r0, r3
100054ec:	f000 fcb6 	bl	10005e5c <tu_fifo_count>
100054f0:	bd08      	pop	{r3, pc}
100054f2:	bf00      	nop
100054f4:	20002870 	.word	0x20002870

100054f8 <tud_cdc_n_read>:
100054f8:	e92d 43f8 	stmdb	sp!, {r3, r4, r5, r6, r7, r8, r9, lr}
100054fc:	f64f 74ff 	movw	r4, #65535	@ 0xffff
10005500:	f44f 7332 	mov.w	r3, #712	@ 0x2c8
10005504:	42a2      	cmp	r2, r4
10005506:	bf28      	it	cs
10005508:	4622      	movcs	r2, r4
1000550a:	fb03 f400 	mul.w	r4, r3, r0
1000550e:	4f1d      	ldr	r7, [pc, #116]	@ (10005584 <tud_cdc_n_read+0x8c>)
10005510:	f104 0510 	add.w	r5, r4, #16
10005514:	443d      	add	r5, r7
10005516:	4628      	mov	r0, r5
10005518:	b292      	uxth	r2, r2
1000551a:	f000 fd15 	bl	10005f48 <tu_fifo_read_n>
1000551e:	4606      	mov	r6, r0
10005520:	f7ff f97a 	bl	10004818 <tud_mounted>
10005524:	b910      	cbnz	r0, 1000552c <tud_cdc_n_read+0x34>
10005526:	4630      	mov	r0, r6
10005528:	e8bd 83f8 	ldmia.w	sp!, {r3, r4, r5, r6, r7, r8, r9, pc}
1000552c:	f7ff f97c 	bl	10004828 <tud_suspended>
10005530:	4681      	mov	r9, r0
10005532:	2800      	cmp	r0, #0
10005534:	d1f7      	bne.n	10005526 <tud_cdc_n_read+0x2e>
10005536:	eb07 0804 	add.w	r8, r7, r4
1000553a:	f898 3003 	ldrb.w	r3, [r8, #3]
1000553e:	2b00      	cmp	r3, #0
10005540:	d0f1      	beq.n	10005526 <tud_cdc_n_read+0x2e>
10005542:	4628      	mov	r0, r5
10005544:	f000 fca4 	bl	10005e90 <tu_fifo_remaining>
10005548:	283f      	cmp	r0, #63	@ 0x3f
1000554a:	d9ec      	bls.n	10005526 <tud_cdc_n_read+0x2e>
1000554c:	4648      	mov	r0, r9
1000554e:	f898 1003 	ldrb.w	r1, [r8, #3]
10005552:	f7ff fe17 	bl	10005184 <usbd_edpt_claim>
10005556:	2800      	cmp	r0, #0
10005558:	d0e5      	beq.n	10005526 <tud_cdc_n_read+0x2e>
1000555a:	4628      	mov	r0, r5
1000555c:	f000 fc98 	bl	10005e90 <tu_fifo_remaining>
10005560:	283f      	cmp	r0, #63	@ 0x3f
10005562:	d909      	bls.n	10005578 <tud_cdc_n_read+0x80>
10005564:	f504 7212 	add.w	r2, r4, #584	@ 0x248
10005568:	4648      	mov	r0, r9
1000556a:	2340      	movs	r3, #64	@ 0x40
1000556c:	f898 1003 	ldrb.w	r1, [r8, #3]
10005570:	443a      	add	r2, r7
10005572:	f7ff fe2b 	bl	100051cc <usbd_edpt_xfer>
10005576:	e7d6      	b.n	10005526 <tud_cdc_n_read+0x2e>
10005578:	4648      	mov	r0, r9
1000557a:	f898 1003 	ldrb.w	r1, [r8, #3]
1000557e:	f7ff fe13 	bl	100051a8 <usbd_edpt_release>
10005582:	e7d0      	b.n	10005526 <tud_cdc_n_read+0x2e>
10005584:	20002860 	.word	0x20002860

10005588 <tud_cdc_n_write_flush>:
10005588:	e92d 41f0 	stmdb	sp!, {r4, r5, r6, r7, r8, lr}
1000558c:	4604      	mov	r4, r0
1000558e:	f7ff f943 	bl	10004818 <tud_mounted>
10005592:	b910      	cbnz	r0, 1000559a <tud_cdc_n_write_flush+0x12>
10005594:	2000      	movs	r0, #0
10005596:	e8bd 81f0 	ldmia.w	sp!, {r4, r5, r6, r7, r8, pc}
1000559a:	f7ff f945 	bl	10004828 <tud_suspended>
1000559e:	4606      	mov	r6, r0
100055a0:	2800      	cmp	r0, #0
100055a2:	d1f7      	bne.n	10005594 <tud_cdc_n_write_flush+0xc>
100055a4:	f44f 7332 	mov.w	r3, #712	@ 0x2c8
100055a8:	fb03 f404 	mul.w	r4, r3, r4
100055ac:	f8df 8060 	ldr.w	r8, [pc, #96]	@ 10005610 <tud_cdc_n_write_flush+0x88>
100055b0:	f104 0524 	add.w	r5, r4, #36	@ 0x24
100055b4:	4445      	add	r5, r8
100055b6:	4628      	mov	r0, r5
100055b8:	f000 fc50 	bl	10005e5c <tu_fifo_count>
100055bc:	2800      	cmp	r0, #0
100055be:	d0e9      	beq.n	10005594 <tud_cdc_n_write_flush+0xc>
100055c0:	eb08 0704 	add.w	r7, r8, r4
100055c4:	4630      	mov	r0, r6
100055c6:	78b9      	ldrb	r1, [r7, #2]
100055c8:	f7ff fddc 	bl	10005184 <usbd_edpt_claim>
100055cc:	2800      	cmp	r0, #0
100055ce:	d0e1      	beq.n	10005594 <tud_cdc_n_write_flush+0xc>
100055d0:	f504 7422 	add.w	r4, r4, #648	@ 0x288
100055d4:	4444      	add	r4, r8
100055d6:	4628      	mov	r0, r5
100055d8:	2240      	movs	r2, #64	@ 0x40
100055da:	4621      	mov	r1, r4
100055dc:	f000 fcb4 	bl	10005f48 <tu_fifo_read_n>
100055e0:	4605      	mov	r5, r0
100055e2:	b180      	cbz	r0, 10005606 <tud_cdc_n_write_flush+0x7e>
100055e4:	4603      	mov	r3, r0
100055e6:	4622      	mov	r2, r4
100055e8:	4630      	mov	r0, r6
100055ea:	78b9      	ldrb	r1, [r7, #2]
100055ec:	f7ff fdee 	bl	100051cc <usbd_edpt_xfer>
100055f0:	b938      	cbnz	r0, 10005602 <tud_cdc_n_write_flush+0x7a>
100055f2:	f04f 23e0 	mov.w	r3, #3758153728	@ 0xe000e000
100055f6:	f8d3 3df0 	ldr.w	r3, [r3, #3568]	@ 0xdf0
100055fa:	07db      	lsls	r3, r3, #31
100055fc:	d5ca      	bpl.n	10005594 <tud_cdc_n_write_flush+0xc>
100055fe:	be00      	bkpt	0x0000
10005600:	e7c8      	b.n	10005594 <tud_cdc_n_write_flush+0xc>
10005602:	4628      	mov	r0, r5
10005604:	e7c7      	b.n	10005596 <tud_cdc_n_write_flush+0xe>
10005606:	78b9      	ldrb	r1, [r7, #2]
10005608:	f7ff fdce 	bl	100051a8 <usbd_edpt_release>
1000560c:	e7c2      	b.n	10005594 <tud_cdc_n_write_flush+0xc>
1000560e:	bf00      	nop
10005610:	20002860 	.word	0x20002860

10005614 <tud_cdc_n_write>:
10005614:	b538      	push	{r3, r4, r5, lr}
10005616:	f64f 75ff 	movw	r5, #65535	@ 0xffff
1000561a:	f44f 7332 	mov.w	r3, #712	@ 0x2c8
1000561e:	42aa      	cmp	r2, r5
10005620:	bf28      	it	cs
10005622:	462a      	movcs	r2, r5
10005624:	4c0a      	ldr	r4, [pc, #40]	@ (10005650 <tud_cdc_n_write+0x3c>)
10005626:	b292      	uxth	r2, r2
10005628:	fb03 4400 	mla	r4, r3, r0, r4
1000562c:	4605      	mov	r5, r0
1000562e:	4620      	mov	r0, r4
10005630:	f000 fd46 	bl	100060c0 <tu_fifo_write_n>
10005634:	4603      	mov	r3, r0
10005636:	4620      	mov	r0, r4
10005638:	461c      	mov	r4, r3
1000563a:	f000 fc0f 	bl	10005e5c <tu_fifo_count>
1000563e:	283f      	cmp	r0, #63	@ 0x3f
10005640:	d801      	bhi.n	10005646 <tud_cdc_n_write+0x32>
10005642:	4620      	mov	r0, r4
10005644:	bd38      	pop	{r3, r4, r5, pc}
10005646:	4628      	mov	r0, r5
10005648:	f7ff ff9e 	bl	10005588 <tud_cdc_n_write_flush>
1000564c:	4620      	mov	r0, r4
1000564e:	bd38      	pop	{r3, r4, r5, pc}
10005650:	20002884 	.word	0x20002884

10005654 <tud_cdc_n_write_available>:
10005654:	f44f 7232 	mov.w	r2, #712	@ 0x2c8
10005658:	b508      	push	{r3, lr}
1000565a:	4b03      	ldr	r3, [pc, #12]	@ (10005668 <tud_cdc_n_write_available+0x14>)
1000565c:	fb02 3000 	mla	r0, r2, r0, r3
10005660:	f000 fc16 	bl	10005e90 <tu_fifo_remaining>
10005664:	bd08      	pop	{r3, pc}
10005666:	bf00      	nop
10005668:	20002884 	.word	0x20002884

1000566c <cdcd_init>:
1000566c:	b5f0      	push	{r4, r5, r6, r7, lr}
1000566e:	4c1b      	ldr	r4, [pc, #108]	@ (100056dc <cdcd_init+0x70>)
10005670:	b083      	sub	sp, #12
10005672:	f44f 7232 	mov.w	r2, #712	@ 0x2c8
10005676:	2100      	movs	r1, #0
10005678:	4620      	mov	r0, r4
1000567a:	f00b ff67 	bl	1001154c <memset>
1000567e:	2500      	movs	r5, #0
10005680:	23ff      	movs	r3, #255	@ 0xff
10005682:	f44f 31e1 	mov.w	r1, #115200	@ 0x1c200
10005686:	2208      	movs	r2, #8
10005688:	4815      	ldr	r0, [pc, #84]	@ (100056e0 <cdcd_init+0x74>)
1000568a:	f504 770e 	add.w	r7, r4, #568	@ 0x238
1000568e:	7005      	strb	r5, [r0, #0]
10005690:	9500      	str	r5, [sp, #0]
10005692:	f104 0010 	add.w	r0, r4, #16
10005696:	7163      	strb	r3, [r4, #5]
10005698:	60a1      	str	r1, [r4, #8]
1000569a:	73a2      	strb	r2, [r4, #14]
1000569c:	f104 0138 	add.w	r1, r4, #56	@ 0x38
100056a0:	2301      	movs	r3, #1
100056a2:	f44f 7280 	mov.w	r2, #256	@ 0x100
100056a6:	f000 fba9 	bl	10005dfc <tu_fifo_config>
100056aa:	2301      	movs	r3, #1
100056ac:	f44f 7280 	mov.w	r2, #256	@ 0x100
100056b0:	f504 719c 	add.w	r1, r4, #312	@ 0x138
100056b4:	9300      	str	r3, [sp, #0]
100056b6:	f104 0024 	add.w	r0, r4, #36	@ 0x24
100056ba:	f000 fb9f 	bl	10005dfc <tu_fifo_config>
100056be:	f504 7610 	add.w	r6, r4, #576	@ 0x240
100056c2:	4638      	mov	r0, r7
100056c4:	f7fb fb80 	bl	10000dc8 <mutex_init>
100056c8:	4630      	mov	r0, r6
100056ca:	f7fb fb7d 	bl	10000dc8 <mutex_init>
100056ce:	e9c4 5707 	strd	r5, r7, [r4, #28]
100056d2:	e9c4 650c 	strd	r6, r5, [r4, #48]	@ 0x30
100056d6:	b003      	add	sp, #12
100056d8:	bdf0      	pop	{r4, r5, r6, r7, pc}
100056da:	bf00      	nop
100056dc:	20002860 	.word	0x20002860
100056e0:	2000313c 	.word	0x2000313c

100056e4 <cdcd_deinit>:
100056e4:	4b09      	ldr	r3, [pc, #36]	@ (1000570c <cdcd_deinit+0x28>)
100056e6:	6b19      	ldr	r1, [r3, #48]	@ 0x30
100056e8:	b149      	cbz	r1, 100056fe <cdcd_deinit+0x1a>
100056ea:	6a1a      	ldr	r2, [r3, #32]
100056ec:	b112      	cbz	r2, 100056f4 <cdcd_deinit+0x10>
100056ee:	2200      	movs	r2, #0
100056f0:	e9c3 2207 	strd	r2, r2, [r3, #28]
100056f4:	2200      	movs	r2, #0
100056f6:	e9c3 220c 	strd	r2, r2, [r3, #48]	@ 0x30
100056fa:	2001      	movs	r0, #1
100056fc:	4770      	bx	lr
100056fe:	6a1a      	ldr	r2, [r3, #32]
10005700:	2a00      	cmp	r2, #0
10005702:	d0fa      	beq.n	100056fa <cdcd_deinit+0x16>
10005704:	2001      	movs	r0, #1
10005706:	e9c3 1107 	strd	r1, r1, [r3, #28]
1000570a:	4770      	bx	lr
1000570c:	20002860 	.word	0x20002860

10005710 <cdcd_reset>:
10005710:	2200      	movs	r2, #0
10005712:	b510      	push	{r4, lr}
10005714:	4c0e      	ldr	r4, [pc, #56]	@ (10005750 <cdcd_reset+0x40>)
10005716:	480f      	ldr	r0, [pc, #60]	@ (10005754 <cdcd_reset+0x44>)
10005718:	7823      	ldrb	r3, [r4, #0]
1000571a:	6002      	str	r2, [r0, #0]
1000571c:	7102      	strb	r2, [r0, #4]
1000571e:	07da      	lsls	r2, r3, #31
10005720:	d507      	bpl.n	10005732 <cdcd_reset+0x22>
10005722:	079b      	lsls	r3, r3, #30
10005724:	d50b      	bpl.n	1000573e <cdcd_reset+0x2e>
10005726:	e8bd 4010 	ldmia.w	sp!, {r4, lr}
1000572a:	2101      	movs	r1, #1
1000572c:	480a      	ldr	r0, [pc, #40]	@ (10005758 <cdcd_reset+0x48>)
1000572e:	f000 bd8f 	b.w	10006250 <tu_fifo_set_overwritable>
10005732:	3010      	adds	r0, #16
10005734:	f000 fd70 	bl	10006218 <tu_fifo_clear>
10005738:	7823      	ldrb	r3, [r4, #0]
1000573a:	079b      	lsls	r3, r3, #30
1000573c:	d4f3      	bmi.n	10005726 <cdcd_reset+0x16>
1000573e:	4806      	ldr	r0, [pc, #24]	@ (10005758 <cdcd_reset+0x48>)
10005740:	f000 fd6a 	bl	10006218 <tu_fifo_clear>
10005744:	e8bd 4010 	ldmia.w	sp!, {r4, lr}
10005748:	2101      	movs	r1, #1
1000574a:	4803      	ldr	r0, [pc, #12]	@ (10005758 <cdcd_reset+0x48>)
1000574c:	f000 bd80 	b.w	10006250 <tu_fifo_set_overwritable>
10005750:	2000313c 	.word	0x2000313c
10005754:	20002860 	.word	0x20002860
10005758:	20002884 	.word	0x20002884

1000575c <cdcd_open>:
1000575c:	b5f0      	push	{r4, r5, r6, r7, lr}
1000575e:	794b      	ldrb	r3, [r1, #5]
10005760:	b083      	sub	sp, #12
10005762:	2b02      	cmp	r3, #2
10005764:	d003      	beq.n	1000576e <cdcd_open+0x12>
10005766:	2500      	movs	r5, #0
10005768:	4628      	mov	r0, r5
1000576a:	b003      	add	sp, #12
1000576c:	bdf0      	pop	{r4, r5, r6, r7, pc}
1000576e:	798b      	ldrb	r3, [r1, #6]
10005770:	2b02      	cmp	r3, #2
10005772:	d1f8      	bne.n	10005766 <cdcd_open+0xa>
10005774:	4f24      	ldr	r7, [pc, #144]	@ (10005808 <cdcd_open+0xac>)
10005776:	78bb      	ldrb	r3, [r7, #2]
10005778:	bb7b      	cbnz	r3, 100057da <cdcd_open+0x7e>
1000577a:	788b      	ldrb	r3, [r1, #2]
1000577c:	4606      	mov	r6, r0
1000577e:	703b      	strb	r3, [r7, #0]
10005780:	780b      	ldrb	r3, [r1, #0]
10005782:	2509      	movs	r5, #9
10005784:	18cc      	adds	r4, r1, r3
10005786:	7861      	ldrb	r1, [r4, #1]
10005788:	2924      	cmp	r1, #36	@ 0x24
1000578a:	d10b      	bne.n	100057a4 <cdcd_open+0x48>
1000578c:	2a08      	cmp	r2, #8
1000578e:	d802      	bhi.n	10005796 <cdcd_open+0x3a>
10005790:	e01f      	b.n	100057d2 <cdcd_open+0x76>
10005792:	42aa      	cmp	r2, r5
10005794:	d31d      	bcc.n	100057d2 <cdcd_open+0x76>
10005796:	7823      	ldrb	r3, [r4, #0]
10005798:	441c      	add	r4, r3
1000579a:	7861      	ldrb	r1, [r4, #1]
1000579c:	442b      	add	r3, r5
1000579e:	2924      	cmp	r1, #36	@ 0x24
100057a0:	b29d      	uxth	r5, r3
100057a2:	d0f6      	beq.n	10005792 <cdcd_open+0x36>
100057a4:	2905      	cmp	r1, #5
100057a6:	d020      	beq.n	100057ea <cdcd_open+0x8e>
100057a8:	2904      	cmp	r1, #4
100057aa:	d112      	bne.n	100057d2 <cdcd_open+0x76>
100057ac:	7963      	ldrb	r3, [r4, #5]
100057ae:	2b0a      	cmp	r3, #10
100057b0:	d10f      	bne.n	100057d2 <cdcd_open+0x76>
100057b2:	4b16      	ldr	r3, [pc, #88]	@ (1000580c <cdcd_open+0xb0>)
100057b4:	7827      	ldrb	r7, [r4, #0]
100057b6:	9301      	str	r3, [sp, #4]
100057b8:	3301      	adds	r3, #1
100057ba:	9300      	str	r3, [sp, #0]
100057bc:	2302      	movs	r3, #2
100057be:	4630      	mov	r0, r6
100057c0:	461a      	mov	r2, r3
100057c2:	19e1      	adds	r1, r4, r7
100057c4:	f7ff fc6e 	bl	100050a4 <usbd_open_edpt_pair>
100057c8:	b138      	cbz	r0, 100057da <cdcd_open+0x7e>
100057ca:	350e      	adds	r5, #14
100057cc:	fa17 f585 	uxtah	r5, r7, r5
100057d0:	b2ad      	uxth	r5, r5
100057d2:	480d      	ldr	r0, [pc, #52]	@ (10005808 <cdcd_open+0xac>)
100057d4:	f7ff fe3e 	bl	10005454 <_prep_out_transaction.isra.0>
100057d8:	e7c6      	b.n	10005768 <cdcd_open+0xc>
100057da:	f04f 23e0 	mov.w	r3, #3758153728	@ 0xe000e000
100057de:	f8d3 3df0 	ldr.w	r3, [r3, #3568]	@ 0xdf0
100057e2:	07db      	lsls	r3, r3, #31
100057e4:	d5bf      	bpl.n	10005766 <cdcd_open+0xa>
100057e6:	be00      	bkpt	0x0000
100057e8:	e7bd      	b.n	10005766 <cdcd_open+0xa>
100057ea:	4621      	mov	r1, r4
100057ec:	4630      	mov	r0, r6
100057ee:	f7ff fca7 	bl	10005140 <usbd_edpt_open>
100057f2:	2800      	cmp	r0, #0
100057f4:	d0f1      	beq.n	100057da <cdcd_open+0x7e>
100057f6:	78a3      	ldrb	r3, [r4, #2]
100057f8:	707b      	strb	r3, [r7, #1]
100057fa:	7823      	ldrb	r3, [r4, #0]
100057fc:	441c      	add	r4, r3
100057fe:	442b      	add	r3, r5
10005800:	7861      	ldrb	r1, [r4, #1]
10005802:	b29d      	uxth	r5, r3
10005804:	e7d0      	b.n	100057a8 <cdcd_open+0x4c>
10005806:	bf00      	nop
10005808:	20002860 	.word	0x20002860
1000580c:	20002862 	.word	0x20002862

10005810 <cdcd_control_xfer_cb>:
10005810:	7813      	ldrb	r3, [r2, #0]
10005812:	f003 0360 	and.w	r3, r3, #96	@ 0x60
10005816:	2b20      	cmp	r3, #32
10005818:	d10e      	bne.n	10005838 <cdcd_control_xfer_cb+0x28>
1000581a:	b570      	push	{r4, r5, r6, lr}
1000581c:	4c27      	ldr	r4, [pc, #156]	@ (100058bc <cdcd_control_xfer_cb+0xac>)
1000581e:	8893      	ldrh	r3, [r2, #4]
10005820:	f894 c000 	ldrb.w	ip, [r4]
10005824:	459c      	cmp	ip, r3
10005826:	d109      	bne.n	1000583c <cdcd_control_xfer_cb+0x2c>
10005828:	7853      	ldrb	r3, [r2, #1]
1000582a:	3b20      	subs	r3, #32
1000582c:	2b03      	cmp	r3, #3
1000582e:	d805      	bhi.n	1000583c <cdcd_control_xfer_cb+0x2c>
10005830:	e8df f003 	tbb	[pc, r3]
10005834:	0620180c 	.word	0x0620180c
10005838:	2000      	movs	r0, #0
1000583a:	4770      	bx	lr
1000583c:	2000      	movs	r0, #0
1000583e:	bd70      	pop	{r4, r5, r6, pc}
10005840:	2901      	cmp	r1, #1
10005842:	d02e      	beq.n	100058a2 <cdcd_control_xfer_cb+0x92>
10005844:	2903      	cmp	r1, #3
10005846:	d030      	beq.n	100058aa <cdcd_control_xfer_cb+0x9a>
10005848:	2001      	movs	r0, #1
1000584a:	bd70      	pop	{r4, r5, r6, pc}
1000584c:	2901      	cmp	r1, #1
1000584e:	d00b      	beq.n	10005868 <cdcd_control_xfer_cb+0x58>
10005850:	2903      	cmp	r1, #3
10005852:	d1f9      	bne.n	10005848 <cdcd_control_xfer_cb+0x38>
10005854:	4b1a      	ldr	r3, [pc, #104]	@ (100058c0 <cdcd_control_xfer_cb+0xb0>)
10005856:	2b00      	cmp	r3, #0
10005858:	d0f6      	beq.n	10005848 <cdcd_control_xfer_cb+0x38>
1000585a:	2000      	movs	r0, #0
1000585c:	4919      	ldr	r1, [pc, #100]	@ (100058c4 <cdcd_control_xfer_cb+0xb4>)
1000585e:	f7fe fae5 	bl	10003e2c <tud_cdc_line_coding_cb>
10005862:	e7f1      	b.n	10005848 <cdcd_control_xfer_cb+0x38>
10005864:	2901      	cmp	r1, #1
10005866:	d1ef      	bne.n	10005848 <cdcd_control_xfer_cb+0x38>
10005868:	4611      	mov	r1, r2
1000586a:	2307      	movs	r3, #7
1000586c:	4a15      	ldr	r2, [pc, #84]	@ (100058c4 <cdcd_control_xfer_cb+0xb4>)
1000586e:	f7ff fcff 	bl	10005270 <tud_control_xfer>
10005872:	e7e9      	b.n	10005848 <cdcd_control_xfer_cb+0x38>
10005874:	2901      	cmp	r1, #1
10005876:	d014      	beq.n	100058a2 <cdcd_control_xfer_cb+0x92>
10005878:	2903      	cmp	r1, #3
1000587a:	d1e5      	bne.n	10005848 <cdcd_control_xfer_cb+0x38>
1000587c:	8855      	ldrh	r5, [r2, #2]
1000587e:	4812      	ldr	r0, [pc, #72]	@ (100058c8 <cdcd_control_xfer_cb+0xb8>)
10005880:	f005 0601 	and.w	r6, r5, #1
10005884:	f086 0101 	eor.w	r1, r6, #1
10005888:	7125      	strb	r5, [r4, #4]
1000588a:	f000 fce1 	bl	10006250 <tu_fifo_set_overwritable>
1000588e:	4b0f      	ldr	r3, [pc, #60]	@ (100058cc <cdcd_control_xfer_cb+0xbc>)
10005890:	2b00      	cmp	r3, #0
10005892:	d0d9      	beq.n	10005848 <cdcd_control_xfer_cb+0x38>
10005894:	4631      	mov	r1, r6
10005896:	2000      	movs	r0, #0
10005898:	f3c5 0240 	ubfx	r2, r5, #1, #1
1000589c:	f3af 8000 	nop.w
100058a0:	e7d2      	b.n	10005848 <cdcd_control_xfer_cb+0x38>
100058a2:	4611      	mov	r1, r2
100058a4:	f7ff fcca 	bl	1000523c <tud_control_status>
100058a8:	e7ce      	b.n	10005848 <cdcd_control_xfer_cb+0x38>
100058aa:	4b09      	ldr	r3, [pc, #36]	@ (100058d0 <cdcd_control_xfer_cb+0xc0>)
100058ac:	2b00      	cmp	r3, #0
100058ae:	d0cb      	beq.n	10005848 <cdcd_control_xfer_cb+0x38>
100058b0:	2000      	movs	r0, #0
100058b2:	8851      	ldrh	r1, [r2, #2]
100058b4:	f3af 8000 	nop.w
100058b8:	e7c6      	b.n	10005848 <cdcd_control_xfer_cb+0x38>
100058ba:	bf00      	nop
100058bc:	20002860 	.word	0x20002860
100058c0:	10003e2d 	.word	0x10003e2d
100058c4:	20002868 	.word	0x20002868
100058c8:	20002884 	.word	0x20002884
	...

100058d4 <cdcd_xfer_cb>:
100058d4:	e92d 47f0 	stmdb	sp!, {r4, r5, r6, r7, r8, r9, sl, lr}
100058d8:	4e37      	ldr	r6, [pc, #220]	@ (100059b8 <cdcd_xfer_cb+0xe4>)
100058da:	460c      	mov	r4, r1
100058dc:	78f2      	ldrb	r2, [r6, #3]
100058de:	4607      	mov	r7, r0
100058e0:	428a      	cmp	r2, r1
100058e2:	461d      	mov	r5, r3
100058e4:	f896 c002 	ldrb.w	ip, [r6, #2]
100058e8:	d03c      	beq.n	10005964 <cdcd_xfer_cb+0x90>
100058ea:	458c      	cmp	ip, r1
100058ec:	d013      	beq.n	10005916 <cdcd_xfer_cb+0x42>
100058ee:	f04f 23e0 	mov.w	r3, #3758153728	@ 0xe000e000
100058f2:	f8d3 3df0 	ldr.w	r3, [r3, #3568]	@ 0xdf0
100058f6:	07db      	lsls	r3, r3, #31
100058f8:	d500      	bpl.n	100058fc <cdcd_xfer_cb+0x28>
100058fa:	be00      	bkpt	0x0000
100058fc:	2000      	movs	r0, #0
100058fe:	e8bd 87f0 	ldmia.w	sp!, {r4, r5, r6, r7, r8, r9, sl, pc}
10005902:	4b2e      	ldr	r3, [pc, #184]	@ (100059bc <cdcd_xfer_cb+0xe8>)
10005904:	b123      	cbz	r3, 10005910 <cdcd_xfer_cb+0x3c>
10005906:	482e      	ldr	r0, [pc, #184]	@ (100059c0 <cdcd_xfer_cb+0xec>)
10005908:	f000 fab8 	bl	10005e7c <tu_fifo_empty>
1000590c:	2800      	cmp	r0, #0
1000590e:	d04f      	beq.n	100059b0 <cdcd_xfer_cb+0xdc>
10005910:	4829      	ldr	r0, [pc, #164]	@ (100059b8 <cdcd_xfer_cb+0xe4>)
10005912:	f7ff fd9f 	bl	10005454 <_prep_out_transaction.isra.0>
10005916:	78b3      	ldrb	r3, [r6, #2]
10005918:	42a3      	cmp	r3, r4
1000591a:	d002      	beq.n	10005922 <cdcd_xfer_cb+0x4e>
1000591c:	2001      	movs	r0, #1
1000591e:	e8bd 87f0 	ldmia.w	sp!, {r4, r5, r6, r7, r8, r9, sl, pc}
10005922:	4b28      	ldr	r3, [pc, #160]	@ (100059c4 <cdcd_xfer_cb+0xf0>)
10005924:	b113      	cbz	r3, 1000592c <cdcd_xfer_cb+0x58>
10005926:	2000      	movs	r0, #0
10005928:	f3af 8000 	nop.w
1000592c:	2000      	movs	r0, #0
1000592e:	f7ff fe2b 	bl	10005588 <tud_cdc_n_write_flush>
10005932:	2800      	cmp	r0, #0
10005934:	d1f2      	bne.n	1000591c <cdcd_xfer_cb+0x48>
10005936:	4824      	ldr	r0, [pc, #144]	@ (100059c8 <cdcd_xfer_cb+0xf4>)
10005938:	f000 fa90 	bl	10005e5c <tu_fifo_count>
1000593c:	2800      	cmp	r0, #0
1000593e:	d1ed      	bne.n	1000591c <cdcd_xfer_cb+0x48>
10005940:	2d00      	cmp	r5, #0
10005942:	d0eb      	beq.n	1000591c <cdcd_xfer_cb+0x48>
10005944:	f015 053f 	ands.w	r5, r5, #63	@ 0x3f
10005948:	d1e8      	bne.n	1000591c <cdcd_xfer_cb+0x48>
1000594a:	4638      	mov	r0, r7
1000594c:	78b1      	ldrb	r1, [r6, #2]
1000594e:	f7ff fc19 	bl	10005184 <usbd_edpt_claim>
10005952:	2800      	cmp	r0, #0
10005954:	d0e2      	beq.n	1000591c <cdcd_xfer_cb+0x48>
10005956:	462b      	mov	r3, r5
10005958:	462a      	mov	r2, r5
1000595a:	4638      	mov	r0, r7
1000595c:	78b1      	ldrb	r1, [r6, #2]
1000595e:	f7ff fc35 	bl	100051cc <usbd_edpt_xfer>
10005962:	e7db      	b.n	1000591c <cdcd_xfer_cb+0x48>
10005964:	b29a      	uxth	r2, r3
10005966:	f506 7112 	add.w	r1, r6, #584	@ 0x248
1000596a:	f106 0010 	add.w	r0, r6, #16
1000596e:	f000 fba7 	bl	100060c0 <tu_fifo_write_n>
10005972:	4b16      	ldr	r3, [pc, #88]	@ (100059cc <cdcd_xfer_cb+0xf8>)
10005974:	2b00      	cmp	r3, #0
10005976:	d0c4      	beq.n	10005902 <cdcd_xfer_cb+0x2e>
10005978:	7973      	ldrb	r3, [r6, #5]
1000597a:	2bff      	cmp	r3, #255	@ 0xff
1000597c:	d0c1      	beq.n	10005902 <cdcd_xfer_cb+0x2e>
1000597e:	2d00      	cmp	r5, #0
10005980:	d0bf      	beq.n	10005902 <cdcd_xfer_cb+0x2e>
10005982:	f206 2847 	addw	r8, r6, #583	@ 0x247
10005986:	eb08 0a05 	add.w	sl, r8, r5
1000598a:	f2a8 2937 	subw	r9, r8, #567	@ 0x237
1000598e:	e002      	b.n	10005996 <cdcd_xfer_cb+0xc2>
10005990:	45c2      	cmp	sl, r8
10005992:	d0b6      	beq.n	10005902 <cdcd_xfer_cb+0x2e>
10005994:	7973      	ldrb	r3, [r6, #5]
10005996:	f818 2f01 	ldrb.w	r2, [r8, #1]!
1000599a:	429a      	cmp	r2, r3
1000599c:	d1f8      	bne.n	10005990 <cdcd_xfer_cb+0xbc>
1000599e:	4648      	mov	r0, r9
100059a0:	f000 fa6c 	bl	10005e7c <tu_fifo_empty>
100059a4:	2800      	cmp	r0, #0
100059a6:	d1f3      	bne.n	10005990 <cdcd_xfer_cb+0xbc>
100059a8:	7971      	ldrb	r1, [r6, #5]
100059aa:	f3af 8000 	nop.w
100059ae:	e7ef      	b.n	10005990 <cdcd_xfer_cb+0xbc>
100059b0:	f3af 8000 	nop.w
100059b4:	e7ac      	b.n	10005910 <cdcd_xfer_cb+0x3c>
100059b6:	bf00      	nop
100059b8:	20002860 	.word	0x20002860
100059bc:	00000000 	.word	0x00000000
100059c0:	20002870 	.word	0x20002870
100059c4:	00000000 	.word	0x00000000
100059c8:	20002884 	.word	0x20002884
100059cc:	00000000 	.word	0x00000000

100059d0 <tud_vendor_n_write_flush>:
100059d0:	e92d 41f0 	stmdb	sp!, {r4, r5, r6, r7, r8, lr}
100059d4:	4604      	mov	r4, r0
100059d6:	f7fe ff1f 	bl	10004818 <tud_mounted>
100059da:	b910      	cbnz	r0, 100059e2 <tud_vendor_n_write_flush+0x12>
100059dc:	2000      	movs	r0, #0
100059de:	e8bd 81f0 	ldmia.w	sp!, {r4, r5, r6, r7, r8, pc}
100059e2:	f7fe ff21 	bl	10004828 <tud_suspended>
100059e6:	4606      	mov	r6, r0
100059e8:	2800      	cmp	r0, #0
100059ea:	d1f7      	bne.n	100059dc <tud_vendor_n_write_flush+0xc>
100059ec:	f44f 732f 	mov.w	r3, #700	@ 0x2bc
100059f0:	fb03 f404 	mul.w	r4, r3, r4
100059f4:	f8df 8060 	ldr.w	r8, [pc, #96]	@ 10005a58 <tud_vendor_n_write_flush+0x88>
100059f8:	f104 0518 	add.w	r5, r4, #24
100059fc:	4445      	add	r5, r8
100059fe:	4628      	mov	r0, r5
10005a00:	f000 fa2c 	bl	10005e5c <tu_fifo_count>
10005a04:	2800      	cmp	r0, #0
10005a06:	d0e9      	beq.n	100059dc <tud_vendor_n_write_flush+0xc>
10005a08:	eb08 0704 	add.w	r7, r8, r4
10005a0c:	4630      	mov	r0, r6
10005a0e:	7879      	ldrb	r1, [r7, #1]
10005a10:	f7ff fbb8 	bl	10005184 <usbd_edpt_claim>
10005a14:	2800      	cmp	r0, #0
10005a16:	d0e1      	beq.n	100059dc <tud_vendor_n_write_flush+0xc>
10005a18:	f504 741f 	add.w	r4, r4, #636	@ 0x27c
10005a1c:	4444      	add	r4, r8
10005a1e:	4628      	mov	r0, r5
10005a20:	2240      	movs	r2, #64	@ 0x40
10005a22:	4621      	mov	r1, r4
10005a24:	f000 fa90 	bl	10005f48 <tu_fifo_read_n>
10005a28:	4605      	mov	r5, r0
10005a2a:	b180      	cbz	r0, 10005a4e <tud_vendor_n_write_flush+0x7e>
10005a2c:	4603      	mov	r3, r0
10005a2e:	4622      	mov	r2, r4
10005a30:	4630      	mov	r0, r6
10005a32:	7879      	ldrb	r1, [r7, #1]
10005a34:	f7ff fbca 	bl	100051cc <usbd_edpt_xfer>
10005a38:	b938      	cbnz	r0, 10005a4a <tud_vendor_n_write_flush+0x7a>
10005a3a:	f04f 23e0 	mov.w	r3, #3758153728	@ 0xe000e000
10005a3e:	f8d3 3df0 	ldr.w	r3, [r3, #3568]	@ 0xdf0
10005a42:	07db      	lsls	r3, r3, #31
10005a44:	d5ca      	bpl.n	100059dc <tud_vendor_n_write_flush+0xc>
10005a46:	be00      	bkpt	0x0000
10005a48:	e7c8      	b.n	100059dc <tud_vendor_n_write_flush+0xc>
10005a4a:	4628      	mov	r0, r5
10005a4c:	e7c7      	b.n	100059de <tud_vendor_n_write_flush+0xe>
10005a4e:	7879      	ldrb	r1, [r7, #1]
10005a50:	f7ff fbaa 	bl	100051a8 <usbd_edpt_release>
10005a54:	e7c2      	b.n	100059dc <tud_vendor_n_write_flush+0xc>
10005a56:	bf00      	nop
10005a58:	20002b28 	.word	0x20002b28

10005a5c <vendord_init>:
10005a5c:	b5f0      	push	{r4, r5, r6, r7, lr}
10005a5e:	2500      	movs	r5, #0
10005a60:	4c15      	ldr	r4, [pc, #84]	@ (10005ab8 <vendord_init+0x5c>)
10005a62:	b083      	sub	sp, #12
10005a64:	f44f 722f 	mov.w	r2, #700	@ 0x2bc
10005a68:	2100      	movs	r1, #0
10005a6a:	4620      	mov	r0, r4
10005a6c:	f00b fd6e 	bl	1001154c <memset>
10005a70:	f104 012c 	add.w	r1, r4, #44	@ 0x2c
10005a74:	2301      	movs	r3, #1
10005a76:	f44f 7280 	mov.w	r2, #256	@ 0x100
10005a7a:	9500      	str	r5, [sp, #0]
10005a7c:	1d20      	adds	r0, r4, #4
10005a7e:	f000 f9bd 	bl	10005dfc <tu_fifo_config>
10005a82:	f504 770b 	add.w	r7, r4, #556	@ 0x22c
10005a86:	2301      	movs	r3, #1
10005a88:	f44f 7280 	mov.w	r2, #256	@ 0x100
10005a8c:	f504 7196 	add.w	r1, r4, #300	@ 0x12c
10005a90:	9500      	str	r5, [sp, #0]
10005a92:	f104 0018 	add.w	r0, r4, #24
10005a96:	f000 f9b1 	bl	10005dfc <tu_fifo_config>
10005a9a:	f504 760d 	add.w	r6, r4, #564	@ 0x234
10005a9e:	4638      	mov	r0, r7
10005aa0:	f7fb f992 	bl	10000dc8 <mutex_init>
10005aa4:	4630      	mov	r0, r6
10005aa6:	f7fb f98f 	bl	10000dc8 <mutex_init>
10005aaa:	e9c4 5704 	strd	r5, r7, [r4, #16]
10005aae:	e9c4 6509 	strd	r6, r5, [r4, #36]	@ 0x24
10005ab2:	b003      	add	sp, #12
10005ab4:	bdf0      	pop	{r4, r5, r6, r7, pc}
10005ab6:	bf00      	nop
10005ab8:	20002b28 	.word	0x20002b28

10005abc <vendord_deinit>:
10005abc:	4b0b      	ldr	r3, [pc, #44]	@ (10005aec <vendord_deinit+0x30>)
10005abe:	6a5a      	ldr	r2, [r3, #36]	@ 0x24
10005ac0:	b152      	cbz	r2, 10005ad8 <vendord_deinit+0x1c>
10005ac2:	695a      	ldr	r2, [r3, #20]
10005ac4:	b11a      	cbz	r2, 10005ace <vendord_deinit+0x12>
10005ac6:	2000      	movs	r0, #0
10005ac8:	2100      	movs	r1, #0
10005aca:	e9c3 0104 	strd	r0, r1, [r3, #16]
10005ace:	2200      	movs	r2, #0
10005ad0:	e9c3 2209 	strd	r2, r2, [r3, #36]	@ 0x24
10005ad4:	2001      	movs	r0, #1
10005ad6:	4770      	bx	lr
10005ad8:	695a      	ldr	r2, [r3, #20]
10005ada:	2a00      	cmp	r2, #0
10005adc:	d0fa      	beq.n	10005ad4 <vendord_deinit+0x18>
10005ade:	2000      	movs	r0, #0
10005ae0:	2100      	movs	r1, #0
10005ae2:	e9c3 0104 	strd	r0, r1, [r3, #16]
10005ae6:	2001      	movs	r0, #1
10005ae8:	4770      	bx	lr
10005aea:	bf00      	nop
10005aec:	20002b28 	.word	0x20002b28

10005af0 <vendord_reset>:
10005af0:	b510      	push	{r4, lr}
10005af2:	4c06      	ldr	r4, [pc, #24]	@ (10005b0c <vendord_reset+0x1c>)
10005af4:	2300      	movs	r3, #0
10005af6:	4620      	mov	r0, r4
10005af8:	f840 3b04 	str.w	r3, [r0], #4
10005afc:	f000 fb8c 	bl	10006218 <tu_fifo_clear>
10005b00:	f104 0018 	add.w	r0, r4, #24
10005b04:	e8bd 4010 	ldmia.w	sp!, {r4, lr}
10005b08:	f000 bb86 	b.w	10006218 <tu_fifo_clear>
10005b0c:	20002b28 	.word	0x20002b28

10005b10 <vendord_open>:
10005b10:	794b      	ldrb	r3, [r1, #5]
10005b12:	2bff      	cmp	r3, #255	@ 0xff
10005b14:	d001      	beq.n	10005b1a <vendord_open+0xa>
10005b16:	2000      	movs	r0, #0
10005b18:	4770      	bx	lr
10005b1a:	e92d 41f0 	stmdb	sp!, {r4, r5, r6, r7, r8, lr}
10005b1e:	4e2d      	ldr	r6, [pc, #180]	@ (10005bd4 <vendord_open+0xc4>)
10005b20:	460d      	mov	r5, r1
10005b22:	7873      	ldrb	r3, [r6, #1]
10005b24:	780c      	ldrb	r4, [r1, #0]
10005b26:	b082      	sub	sp, #8
10005b28:	78b1      	ldrb	r1, [r6, #2]
10005b2a:	b903      	cbnz	r3, 10005b2e <vendord_open+0x1e>
10005b2c:	b119      	cbz	r1, 10005b36 <vendord_open+0x26>
10005b2e:	2000      	movs	r0, #0
10005b30:	b002      	add	sp, #8
10005b32:	e8bd 81f0 	ldmia.w	sp!, {r4, r5, r6, r7, r8, pc}
10005b36:	78ab      	ldrb	r3, [r5, #2]
10005b38:	792f      	ldrb	r7, [r5, #4]
10005b3a:	442c      	add	r4, r5
10005b3c:	7033      	strb	r3, [r6, #0]
10005b3e:	b307      	cbz	r7, 10005b82 <vendord_open+0x72>
10005b40:	7863      	ldrb	r3, [r4, #1]
10005b42:	2b05      	cmp	r3, #5
10005b44:	d00a      	beq.n	10005b5c <vendord_open+0x4c>
10005b46:	18a3      	adds	r3, r4, r2
10005b48:	429c      	cmp	r4, r3
10005b4a:	d302      	bcc.n	10005b52 <vendord_open+0x42>
10005b4c:	e006      	b.n	10005b5c <vendord_open+0x4c>
10005b4e:	42a3      	cmp	r3, r4
10005b50:	d904      	bls.n	10005b5c <vendord_open+0x4c>
10005b52:	7821      	ldrb	r1, [r4, #0]
10005b54:	440c      	add	r4, r1
10005b56:	7861      	ldrb	r1, [r4, #1]
10005b58:	2905      	cmp	r1, #5
10005b5a:	d1f8      	bne.n	10005b4e <vendord_open+0x3e>
10005b5c:	463a      	mov	r2, r7
10005b5e:	4f1e      	ldr	r7, [pc, #120]	@ (10005bd8 <vendord_open+0xc8>)
10005b60:	4621      	mov	r1, r4
10005b62:	1c7b      	adds	r3, r7, #1
10005b64:	9300      	str	r3, [sp, #0]
10005b66:	9701      	str	r7, [sp, #4]
10005b68:	2302      	movs	r3, #2
10005b6a:	f7ff fa9b 	bl	100050a4 <usbd_open_edpt_pair>
10005b6e:	b318      	cbz	r0, 10005bb8 <vendord_open+0xa8>
10005b70:	78b1      	ldrb	r1, [r6, #2]
10005b72:	f895 8004 	ldrb.w	r8, [r5, #4]
10005b76:	b969      	cbnz	r1, 10005b94 <vendord_open+0x84>
10005b78:	7873      	ldrb	r3, [r6, #1]
10005b7a:	b93b      	cbnz	r3, 10005b8c <vendord_open+0x7c>
10005b7c:	ebc8 08c8 	rsb	r8, r8, r8, lsl #3
10005b80:	4444      	add	r4, r8
10005b82:	1b61      	subs	r1, r4, r5
10005b84:	b288      	uxth	r0, r1
10005b86:	b002      	add	sp, #8
10005b88:	e8bd 81f0 	ldmia.w	sp!, {r4, r5, r6, r7, r8, pc}
10005b8c:	2000      	movs	r0, #0
10005b8e:	f7ff ff1f 	bl	100059d0 <tud_vendor_n_write_flush>
10005b92:	e7f3      	b.n	10005b7c <vendord_open+0x6c>
10005b94:	2000      	movs	r0, #0
10005b96:	f7ff faf5 	bl	10005184 <usbd_edpt_claim>
10005b9a:	2800      	cmp	r0, #0
10005b9c:	d0ec      	beq.n	10005b78 <vendord_open+0x68>
10005b9e:	1cf8      	adds	r0, r7, #3
10005ba0:	f000 f976 	bl	10005e90 <tu_fifo_remaining>
10005ba4:	283f      	cmp	r0, #63	@ 0x3f
10005ba6:	d90f      	bls.n	10005bc8 <vendord_open+0xb8>
10005ba8:	2340      	movs	r3, #64	@ 0x40
10005baa:	78b1      	ldrb	r1, [r6, #2]
10005bac:	f207 223b 	addw	r2, r7, #571	@ 0x23b
10005bb0:	2000      	movs	r0, #0
10005bb2:	f7ff fb0b 	bl	100051cc <usbd_edpt_xfer>
10005bb6:	e7df      	b.n	10005b78 <vendord_open+0x68>
10005bb8:	f04f 23e0 	mov.w	r3, #3758153728	@ 0xe000e000
10005bbc:	f8d3 3df0 	ldr.w	r3, [r3, #3568]	@ 0xdf0
10005bc0:	07db      	lsls	r3, r3, #31
10005bc2:	d5b4      	bpl.n	10005b2e <vendord_open+0x1e>
10005bc4:	be00      	bkpt	0x0000
10005bc6:	e7b2      	b.n	10005b2e <vendord_open+0x1e>
10005bc8:	78b1      	ldrb	r1, [r6, #2]
10005bca:	2000      	movs	r0, #0
10005bcc:	f7ff faec 	bl	100051a8 <usbd_edpt_release>
10005bd0:	e7d2      	b.n	10005b78 <vendord_open+0x68>
10005bd2:	bf00      	nop
10005bd4:	20002b28 	.word	0x20002b28
10005bd8:	20002b29 	.word	0x20002b29

10005bdc <vendord_xfer_cb>:
10005bdc:	b570      	push	{r4, r5, r6, lr}
10005bde:	4d28      	ldr	r5, [pc, #160]	@ (10005c80 <vendord_xfer_cb+0xa4>)
10005be0:	461c      	mov	r4, r3
10005be2:	78aa      	ldrb	r2, [r5, #2]
10005be4:	428a      	cmp	r2, r1
10005be6:	d011      	beq.n	10005c0c <vendord_xfer_cb+0x30>
10005be8:	786b      	ldrb	r3, [r5, #1]
10005bea:	428b      	cmp	r3, r1
10005bec:	d10c      	bne.n	10005c08 <vendord_xfer_cb+0x2c>
10005bee:	4b25      	ldr	r3, [pc, #148]	@ (10005c84 <vendord_xfer_cb+0xa8>)
10005bf0:	4606      	mov	r6, r0
10005bf2:	b11b      	cbz	r3, 10005bfc <vendord_xfer_cb+0x20>
10005bf4:	2000      	movs	r0, #0
10005bf6:	b2a1      	uxth	r1, r4
10005bf8:	f3af 8000 	nop.w
10005bfc:	2000      	movs	r0, #0
10005bfe:	f7ff fee7 	bl	100059d0 <tud_vendor_n_write_flush>
10005c02:	b300      	cbz	r0, 10005c46 <vendord_xfer_cb+0x6a>
10005c04:	2001      	movs	r0, #1
10005c06:	bd70      	pop	{r4, r5, r6, pc}
10005c08:	2000      	movs	r0, #0
10005c0a:	bd70      	pop	{r4, r5, r6, pc}
10005c0c:	b29a      	uxth	r2, r3
10005c0e:	f505 710f 	add.w	r1, r5, #572	@ 0x23c
10005c12:	1d28      	adds	r0, r5, #4
10005c14:	f000 fa54 	bl	100060c0 <tu_fifo_write_n>
10005c18:	4b1b      	ldr	r3, [pc, #108]	@ (10005c88 <vendord_xfer_cb+0xac>)
10005c1a:	b113      	cbz	r3, 10005c22 <vendord_xfer_cb+0x46>
10005c1c:	2000      	movs	r0, #0
10005c1e:	f3af 8000 	nop.w
10005c22:	2000      	movs	r0, #0
10005c24:	78a9      	ldrb	r1, [r5, #2]
10005c26:	f7ff faad 	bl	10005184 <usbd_edpt_claim>
10005c2a:	2800      	cmp	r0, #0
10005c2c:	d0ea      	beq.n	10005c04 <vendord_xfer_cb+0x28>
10005c2e:	4817      	ldr	r0, [pc, #92]	@ (10005c8c <vendord_xfer_cb+0xb0>)
10005c30:	f000 f92e 	bl	10005e90 <tu_fifo_remaining>
10005c34:	283f      	cmp	r0, #63	@ 0x3f
10005c36:	d91d      	bls.n	10005c74 <vendord_xfer_cb+0x98>
10005c38:	2340      	movs	r3, #64	@ 0x40
10005c3a:	4a15      	ldr	r2, [pc, #84]	@ (10005c90 <vendord_xfer_cb+0xb4>)
10005c3c:	78a9      	ldrb	r1, [r5, #2]
10005c3e:	2000      	movs	r0, #0
10005c40:	f7ff fac4 	bl	100051cc <usbd_edpt_xfer>
10005c44:	e7de      	b.n	10005c04 <vendord_xfer_cb+0x28>
10005c46:	4813      	ldr	r0, [pc, #76]	@ (10005c94 <vendord_xfer_cb+0xb8>)
10005c48:	f000 f908 	bl	10005e5c <tu_fifo_count>
10005c4c:	2800      	cmp	r0, #0
10005c4e:	d1d9      	bne.n	10005c04 <vendord_xfer_cb+0x28>
10005c50:	2c00      	cmp	r4, #0
10005c52:	d0d7      	beq.n	10005c04 <vendord_xfer_cb+0x28>
10005c54:	f014 043f 	ands.w	r4, r4, #63	@ 0x3f
10005c58:	d1d4      	bne.n	10005c04 <vendord_xfer_cb+0x28>
10005c5a:	4630      	mov	r0, r6
10005c5c:	7869      	ldrb	r1, [r5, #1]
10005c5e:	f7ff fa91 	bl	10005184 <usbd_edpt_claim>
10005c62:	2800      	cmp	r0, #0
10005c64:	d0ce      	beq.n	10005c04 <vendord_xfer_cb+0x28>
10005c66:	4623      	mov	r3, r4
10005c68:	4622      	mov	r2, r4
10005c6a:	4630      	mov	r0, r6
10005c6c:	7869      	ldrb	r1, [r5, #1]
10005c6e:	f7ff faad 	bl	100051cc <usbd_edpt_xfer>
10005c72:	e7c7      	b.n	10005c04 <vendord_xfer_cb+0x28>
10005c74:	78a9      	ldrb	r1, [r5, #2]
10005c76:	2000      	movs	r0, #0
10005c78:	f7ff fa96 	bl	100051a8 <usbd_edpt_release>
10005c7c:	e7c2      	b.n	10005c04 <vendord_xfer_cb+0x28>
10005c7e:	bf00      	nop
10005c80:	20002b28 	.word	0x20002b28
	...
10005c8c:	20002b2c 	.word	0x20002b2c
10005c90:	20002d64 	.word	0x20002d64
10005c94:	20002b40 	.word	0x20002b40

10005c98 <tusb_init>:
10005c98:	b508      	push	{r3, lr}
10005c9a:	2000      	movs	r0, #0
10005c9c:	f7fe fdcc 	bl	10004838 <tud_init>
10005ca0:	b100      	cbz	r0, 10005ca4 <tusb_init+0xc>
10005ca2:	bd08      	pop	{r3, pc}
10005ca4:	f04f 23e0 	mov.w	r3, #3758153728	@ 0xe000e000
10005ca8:	f8d3 3df0 	ldr.w	r3, [r3, #3568]	@ 0xdf0
10005cac:	07db      	lsls	r3, r3, #31
10005cae:	d5f8      	bpl.n	10005ca2 <tusb_init+0xa>
10005cb0:	be00      	bkpt	0x0000
10005cb2:	bd08      	pop	{r3, pc}

10005cb4 <tu_edpt_claim>:
10005cb4:	b5f8      	push	{r3, r4, r5, r6, r7, lr}
10005cb6:	7803      	ldrb	r3, [r0, #0]
10005cb8:	f013 0401 	ands.w	r4, r3, #1
10005cbc:	d11a      	bne.n	10005cf4 <tu_edpt_claim+0x40>
10005cbe:	7803      	ldrb	r3, [r0, #0]
10005cc0:	4605      	mov	r5, r0
10005cc2:	075a      	lsls	r2, r3, #29
10005cc4:	f3c3 0780 	ubfx	r7, r3, #2, #1
10005cc8:	d501      	bpl.n	10005cce <tu_edpt_claim+0x1a>
10005cca:	4620      	mov	r0, r4
10005ccc:	bdf8      	pop	{r3, r4, r5, r6, r7, pc}
10005cce:	460e      	mov	r6, r1
10005cd0:	f04f 31ff 	mov.w	r1, #4294967295	@ 0xffffffff
10005cd4:	4630      	mov	r0, r6
10005cd6:	f00c feb3 	bl	10012a40 <__mutex_enter_timeout_ms_veneer>
10005cda:	782b      	ldrb	r3, [r5, #0]
10005cdc:	f013 0401 	ands.w	r4, r3, #1
10005ce0:	d10b      	bne.n	10005cfa <tu_edpt_claim+0x46>
10005ce2:	782b      	ldrb	r3, [r5, #0]
10005ce4:	075b      	lsls	r3, r3, #29
10005ce6:	d409      	bmi.n	10005cfc <tu_edpt_claim+0x48>
10005ce8:	782b      	ldrb	r3, [r5, #0]
10005cea:	2401      	movs	r4, #1
10005cec:	f043 0304 	orr.w	r3, r3, #4
10005cf0:	702b      	strb	r3, [r5, #0]
10005cf2:	e003      	b.n	10005cfc <tu_edpt_claim+0x48>
10005cf4:	2400      	movs	r4, #0
10005cf6:	4620      	mov	r0, r4
10005cf8:	bdf8      	pop	{r3, r4, r5, r6, r7, pc}
10005cfa:	463c      	mov	r4, r7
10005cfc:	4630      	mov	r0, r6
10005cfe:	f00c febb 	bl	10012a78 <__mutex_exit_veneer>
10005d02:	4620      	mov	r0, r4
10005d04:	bdf8      	pop	{r3, r4, r5, r6, r7, pc}
10005d06:	bf00      	nop

10005d08 <tu_edpt_release>:
10005d08:	b570      	push	{r4, r5, r6, lr}
10005d0a:	460c      	mov	r4, r1
10005d0c:	4605      	mov	r5, r0
10005d0e:	f04f 31ff 	mov.w	r1, #4294967295	@ 0xffffffff
10005d12:	4620      	mov	r0, r4
10005d14:	f00c fe94 	bl	10012a40 <__mutex_enter_timeout_ms_veneer>
10005d18:	782b      	ldrb	r3, [r5, #0]
10005d1a:	f3c3 0680 	ubfx	r6, r3, #2, #1
10005d1e:	075b      	lsls	r3, r3, #29
10005d20:	d508      	bpl.n	10005d34 <tu_edpt_release+0x2c>
10005d22:	782b      	ldrb	r3, [r5, #0]
10005d24:	f013 0301 	ands.w	r3, r3, #1
10005d28:	bf11      	iteee	ne
10005d2a:	2600      	movne	r6, #0
10005d2c:	782a      	ldrbeq	r2, [r5, #0]
10005d2e:	f363 0282 	bfieq	r2, r3, #2, #1
10005d32:	702a      	strbeq	r2, [r5, #0]
10005d34:	4620      	mov	r0, r4
10005d36:	f00c fe9f 	bl	10012a78 <__mutex_exit_veneer>
10005d3a:	4630      	mov	r0, r6
10005d3c:	bd70      	pop	{r4, r5, r6, pc}
10005d3e:	bf00      	nop

10005d40 <tu_edpt_validate>:
10005d40:	78c3      	ldrb	r3, [r0, #3]
10005d42:	8882      	ldrh	r2, [r0, #4]
10005d44:	f003 0003 	and.w	r0, r3, #3
10005d48:	2802      	cmp	r0, #2
10005d4a:	f3c2 020a 	ubfx	r2, r2, #0, #11
10005d4e:	d01f      	beq.n	10005d90 <tu_edpt_validate+0x50>
10005d50:	2803      	cmp	r0, #3
10005d52:	d003      	beq.n	10005d5c <tu_edpt_validate+0x1c>
10005d54:	2801      	cmp	r0, #1
10005d56:	d00a      	beq.n	10005d6e <tu_edpt_validate+0x2e>
10005d58:	2000      	movs	r0, #0
10005d5a:	4770      	bx	lr
10005d5c:	2902      	cmp	r1, #2
10005d5e:	bf14      	ite	ne
10005d60:	2340      	movne	r3, #64	@ 0x40
10005d62:	f44f 6380 	moveq.w	r3, #1024	@ 0x400
10005d66:	4293      	cmp	r3, r2
10005d68:	d309      	bcc.n	10005d7e <tu_edpt_validate+0x3e>
10005d6a:	2001      	movs	r0, #1
10005d6c:	4770      	bx	lr
10005d6e:	2902      	cmp	r1, #2
10005d70:	f240 33ff 	movw	r3, #1023	@ 0x3ff
10005d74:	bf08      	it	eq
10005d76:	f44f 6380 	moveq.w	r3, #1024	@ 0x400
10005d7a:	4293      	cmp	r3, r2
10005d7c:	d2f6      	bcs.n	10005d6c <tu_edpt_validate+0x2c>
10005d7e:	f04f 23e0 	mov.w	r3, #3758153728	@ 0xe000e000
10005d82:	f8d3 3df0 	ldr.w	r3, [r3, #3568]	@ 0xdf0
10005d86:	07db      	lsls	r3, r3, #31
10005d88:	d5e6      	bpl.n	10005d58 <tu_edpt_validate+0x18>
10005d8a:	be00      	bkpt	0x0000
10005d8c:	2000      	movs	r0, #0
10005d8e:	4770      	bx	lr
10005d90:	2902      	cmp	r1, #2
10005d92:	d002      	beq.n	10005d9a <tu_edpt_validate+0x5a>
10005d94:	2a40      	cmp	r2, #64	@ 0x40
10005d96:	d9e8      	bls.n	10005d6a <tu_edpt_validate+0x2a>
10005d98:	e7f1      	b.n	10005d7e <tu_edpt_validate+0x3e>
10005d9a:	f5b2 7f00 	cmp.w	r2, #512	@ 0x200
10005d9e:	d0e4      	beq.n	10005d6a <tu_edpt_validate+0x2a>
10005da0:	e7ed      	b.n	10005d7e <tu_edpt_validate+0x3e>
10005da2:	bf00      	nop

10005da4 <tu_edpt_bind_driver>:
10005da4:	440a      	add	r2, r1
10005da6:	4291      	cmp	r1, r2
10005da8:	d226      	bcs.n	10005df8 <tu_edpt_bind_driver+0x54>
10005daa:	f891 c001 	ldrb.w	ip, [r1, #1]
10005dae:	f1bc 0f05 	cmp.w	ip, #5
10005db2:	d005      	beq.n	10005dc0 <tu_edpt_bind_driver+0x1c>
10005db4:	f891 c000 	ldrb.w	ip, [r1]
10005db8:	4461      	add	r1, ip
10005dba:	428a      	cmp	r2, r1
10005dbc:	d8f5      	bhi.n	10005daa <tu_edpt_bind_driver+0x6>
10005dbe:	4770      	bx	lr
10005dc0:	b500      	push	{lr}
10005dc2:	f891 c002 	ldrb.w	ip, [r1, #2]
10005dc6:	f00c 0e7f 	and.w	lr, ip, #127	@ 0x7f
10005dca:	eb00 0e4e 	add.w	lr, r0, lr, lsl #1
10005dce:	ea4f 1cdc 	mov.w	ip, ip, lsr #7
10005dd2:	f80e 300c 	strb.w	r3, [lr, ip]
10005dd6:	f891 c000 	ldrb.w	ip, [r1]
10005dda:	4461      	add	r1, ip
10005ddc:	428a      	cmp	r2, r1
10005dde:	d909      	bls.n	10005df4 <tu_edpt_bind_driver+0x50>
10005de0:	f891 c001 	ldrb.w	ip, [r1, #1]
10005de4:	f1bc 0f05 	cmp.w	ip, #5
10005de8:	d0eb      	beq.n	10005dc2 <tu_edpt_bind_driver+0x1e>
10005dea:	f891 c000 	ldrb.w	ip, [r1]
10005dee:	4461      	add	r1, ip
10005df0:	428a      	cmp	r2, r1
10005df2:	d8f5      	bhi.n	10005de0 <tu_edpt_bind_driver+0x3c>
10005df4:	f85d fb04 	ldr.w	pc, [sp], #4
10005df8:	4770      	bx	lr
10005dfa:	bf00      	nop

10005dfc <tu_fifo_config>:
10005dfc:	e92d 41f0 	stmdb	sp!, {r4, r5, r6, r7, r8, lr}
10005e00:	f5b2 4f00 	cmp.w	r2, #32768	@ 0x8000
10005e04:	f89d 8018 	ldrb.w	r8, [sp, #24]
10005e08:	d824      	bhi.n	10005e54 <tu_fifo_config+0x58>
10005e0a:	4604      	mov	r4, r0
10005e0c:	68c0      	ldr	r0, [r0, #12]
10005e0e:	4617      	mov	r7, r2
10005e10:	460e      	mov	r6, r1
10005e12:	461d      	mov	r5, r3
10005e14:	b118      	cbz	r0, 10005e1e <tu_fifo_config+0x22>
10005e16:	f04f 31ff 	mov.w	r1, #4294967295	@ 0xffffffff
10005e1a:	f00c fe11 	bl	10012a40 <__mutex_enter_timeout_ms_veneer>
10005e1e:	6920      	ldr	r0, [r4, #16]
10005e20:	b118      	cbz	r0, 10005e2a <tu_fifo_config+0x2e>
10005e22:	f04f 31ff 	mov.w	r1, #4294967295	@ 0xffffffff
10005e26:	f00c fe0b 	bl	10012a40 <__mutex_enter_timeout_ms_veneer>
10005e2a:	2200      	movs	r2, #0
10005e2c:	f3c5 030e 	ubfx	r3, r5, #0, #15
10005e30:	68e0      	ldr	r0, [r4, #12]
10005e32:	ea43 33c8 	orr.w	r3, r3, r8, lsl #15
10005e36:	8162      	strh	r2, [r4, #10]
10005e38:	6026      	str	r6, [r4, #0]
10005e3a:	80a7      	strh	r7, [r4, #4]
10005e3c:	80e3      	strh	r3, [r4, #6]
10005e3e:	8122      	strh	r2, [r4, #8]
10005e40:	b108      	cbz	r0, 10005e46 <tu_fifo_config+0x4a>
10005e42:	f00c fe19 	bl	10012a78 <__mutex_exit_veneer>
10005e46:	6920      	ldr	r0, [r4, #16]
10005e48:	b108      	cbz	r0, 10005e4e <tu_fifo_config+0x52>
10005e4a:	f00c fe15 	bl	10012a78 <__mutex_exit_veneer>
10005e4e:	2001      	movs	r0, #1
10005e50:	e8bd 81f0 	ldmia.w	sp!, {r4, r5, r6, r7, r8, pc}
10005e54:	2000      	movs	r0, #0
10005e56:	e8bd 81f0 	ldmia.w	sp!, {r4, r5, r6, r7, r8, pc}
10005e5a:	bf00      	nop

10005e5c <tu_fifo_count>:
10005e5c:	8903      	ldrh	r3, [r0, #8]
10005e5e:	8942      	ldrh	r2, [r0, #10]
10005e60:	b29b      	uxth	r3, r3
10005e62:	b292      	uxth	r2, r2
10005e64:	8880      	ldrh	r0, [r0, #4]
10005e66:	4293      	cmp	r3, r2
10005e68:	bf36      	itet	cc
10005e6a:	ebc2 0240 	rsbcc	r2, r2, r0, lsl #1
10005e6e:	1a9b      	subcs	r3, r3, r2
10005e70:	189b      	addcc	r3, r3, r2
10005e72:	b29b      	uxth	r3, r3
10005e74:	4298      	cmp	r0, r3
10005e76:	bf28      	it	cs
10005e78:	4618      	movcs	r0, r3
10005e7a:	4770      	bx	lr

10005e7c <tu_fifo_empty>:
10005e7c:	8902      	ldrh	r2, [r0, #8]
10005e7e:	8943      	ldrh	r3, [r0, #10]
10005e80:	b290      	uxth	r0, r2
10005e82:	b29b      	uxth	r3, r3
10005e84:	1ac0      	subs	r0, r0, r3
10005e86:	fab0 f080 	clz	r0, r0
10005e8a:	0940      	lsrs	r0, r0, #5
10005e8c:	4770      	bx	lr
10005e8e:	bf00      	nop

10005e90 <tu_fifo_remaining>:
10005e90:	8903      	ldrh	r3, [r0, #8]
10005e92:	8942      	ldrh	r2, [r0, #10]
10005e94:	b29b      	uxth	r3, r3
10005e96:	8880      	ldrh	r0, [r0, #4]
10005e98:	b292      	uxth	r2, r2
10005e9a:	4293      	cmp	r3, r2
10005e9c:	bf36      	itet	cc
10005e9e:	ebc2 0240 	rsbcc	r2, r2, r0, lsl #1
10005ea2:	1a9b      	subcs	r3, r3, r2
10005ea4:	189b      	addcc	r3, r3, r2
10005ea6:	b29b      	uxth	r3, r3
10005ea8:	4298      	cmp	r0, r3
10005eaa:	bf86      	itte	hi
10005eac:	1ac0      	subhi	r0, r0, r3
10005eae:	b280      	uxthhi	r0, r0
10005eb0:	2000      	movls	r0, #0
10005eb2:	4770      	bx	lr

10005eb4 <tu_fifo_read>:
10005eb4:	b538      	push	{r3, r4, r5, lr}
10005eb6:	4604      	mov	r4, r0
10005eb8:	6900      	ldr	r0, [r0, #16]
10005eba:	460d      	mov	r5, r1
10005ebc:	b118      	cbz	r0, 10005ec6 <tu_fifo_read+0x12>
10005ebe:	f04f 31ff 	mov.w	r1, #4294967295	@ 0xffffffff
10005ec2:	f00c fdbd 	bl	10012a40 <__mutex_enter_timeout_ms_veneer>
10005ec6:	8921      	ldrh	r1, [r4, #8]
10005ec8:	8963      	ldrh	r3, [r4, #10]
10005eca:	b289      	uxth	r1, r1
10005ecc:	b29b      	uxth	r3, r3
10005ece:	88a2      	ldrh	r2, [r4, #4]
10005ed0:	4299      	cmp	r1, r3
10005ed2:	bf36      	itet	cc
10005ed4:	ebc3 0042 	rsbcc	r0, r3, r2, lsl #1
10005ed8:	1ac8      	subcs	r0, r1, r3
10005eda:	1840      	addcc	r0, r0, r1
10005edc:	b280      	uxth	r0, r0
10005ede:	b350      	cbz	r0, 10005f36 <tu_fifo_read+0x82>
10005ee0:	4282      	cmp	r2, r0
10005ee2:	d209      	bcs.n	10005ef8 <tu_fifo_read+0x44>
10005ee4:	4291      	cmp	r1, r2
10005ee6:	bf2c      	ite	cs
10005ee8:	1a89      	subcs	r1, r1, r2
10005eea:	1889      	addcc	r1, r1, r2
10005eec:	b28b      	uxth	r3, r1
10005eee:	429a      	cmp	r2, r3
10005ef0:	8163      	strh	r3, [r4, #10]
10005ef2:	d803      	bhi.n	10005efc <tu_fifo_read+0x48>
10005ef4:	1a9b      	subs	r3, r3, r2
10005ef6:	b29b      	uxth	r3, r3
10005ef8:	429a      	cmp	r2, r3
10005efa:	d9fb      	bls.n	10005ef4 <tu_fifo_read+0x40>
10005efc:	88e2      	ldrh	r2, [r4, #6]
10005efe:	6821      	ldr	r1, [r4, #0]
10005f00:	f3c2 020e 	ubfx	r2, r2, #0, #15
10005f04:	fb02 1103 	mla	r1, r2, r3, r1
10005f08:	4628      	mov	r0, r5
10005f0a:	f00b ffcd 	bl	10011ea8 <memcpy>
10005f0e:	8961      	ldrh	r1, [r4, #10]
10005f10:	2501      	movs	r5, #1
10005f12:	b289      	uxth	r1, r1
10005f14:	1c4b      	adds	r3, r1, #1
10005f16:	b29b      	uxth	r3, r3
10005f18:	4299      	cmp	r1, r3
10005f1a:	88a2      	ldrh	r2, [r4, #4]
10005f1c:	d90e      	bls.n	10005f3c <tu_fifo_read+0x88>
10005f1e:	2300      	movs	r3, #0
10005f20:	fa02 f105 	lsl.w	r1, r2, r5
10005f24:	1a5b      	subs	r3, r3, r1
10005f26:	b29b      	uxth	r3, r3
10005f28:	6920      	ldr	r0, [r4, #16]
10005f2a:	8163      	strh	r3, [r4, #10]
10005f2c:	b108      	cbz	r0, 10005f32 <tu_fifo_read+0x7e>
10005f2e:	f00c fda3 	bl	10012a78 <__mutex_exit_veneer>
10005f32:	4628      	mov	r0, r5
10005f34:	bd38      	pop	{r3, r4, r5, pc}
10005f36:	4605      	mov	r5, r0
10005f38:	8963      	ldrh	r3, [r4, #10]
10005f3a:	b29b      	uxth	r3, r3
10005f3c:	ebb3 0f42 	cmp.w	r3, r2, lsl #1
10005f40:	ea4f 0142 	mov.w	r1, r2, lsl #1
10005f44:	dbf0      	blt.n	10005f28 <tu_fifo_read+0x74>
10005f46:	e7ed      	b.n	10005f24 <tu_fifo_read+0x70>

10005f48 <tu_fifo_read_n>:
10005f48:	e92d 47f0 	stmdb	sp!, {r4, r5, r6, r7, r8, r9, sl, lr}
10005f4c:	4606      	mov	r6, r0
10005f4e:	6900      	ldr	r0, [r0, #16]
10005f50:	4688      	mov	r8, r1
10005f52:	4691      	mov	r9, r2
10005f54:	b118      	cbz	r0, 10005f5e <tu_fifo_read_n+0x16>
10005f56:	f04f 31ff 	mov.w	r1, #4294967295	@ 0xffffffff
10005f5a:	f00c fd71 	bl	10012a40 <__mutex_enter_timeout_ms_veneer>
10005f5e:	8933      	ldrh	r3, [r6, #8]
10005f60:	8974      	ldrh	r4, [r6, #10]
10005f62:	b29b      	uxth	r3, r3
10005f64:	b2a4      	uxth	r4, r4
10005f66:	88b5      	ldrh	r5, [r6, #4]
10005f68:	42a3      	cmp	r3, r4
10005f6a:	bf36      	itet	cc
10005f6c:	ebc4 0745 	rsbcc	r7, r4, r5, lsl #1
10005f70:	1b1f      	subcs	r7, r3, r4
10005f72:	18ff      	addcc	r7, r7, r3
10005f74:	b2bf      	uxth	r7, r7
10005f76:	2f00      	cmp	r7, #0
10005f78:	d04a      	beq.n	10006010 <tu_fifo_read_n+0xc8>
10005f7a:	42bd      	cmp	r5, r7
10005f7c:	d340      	bcc.n	10006000 <tu_fifo_read_n+0xb8>
10005f7e:	45b9      	cmp	r9, r7
10005f80:	bf28      	it	cs
10005f82:	46b9      	movcs	r9, r7
10005f84:	42a5      	cmp	r5, r4
10005f86:	fa1f f789 	uxth.w	r7, r9
10005f8a:	d803      	bhi.n	10005f94 <tu_fifo_read_n+0x4c>
10005f8c:	1b64      	subs	r4, r4, r5
10005f8e:	b2a4      	uxth	r4, r4
10005f90:	42a5      	cmp	r5, r4
10005f92:	d9fb      	bls.n	10005f8c <tu_fifo_read_n+0x44>
10005f94:	f8b6 a006 	ldrh.w	sl, [r6, #6]
10005f98:	1b2b      	subs	r3, r5, r4
10005f9a:	6831      	ldr	r1, [r6, #0]
10005f9c:	b29b      	uxth	r3, r3
10005f9e:	f3ca 020e 	ubfx	r2, sl, #0, #15
10005fa2:	429f      	cmp	r7, r3
10005fa4:	4692      	mov	sl, r2
10005fa6:	fb02 1104 	mla	r1, r2, r4, r1
10005faa:	d923      	bls.n	10005ff4 <tu_fifo_read_n+0xac>
10005fac:	fb13 f302 	smulbb	r3, r3, r2
10005fb0:	fa1f f983 	uxth.w	r9, r3
10005fb4:	464a      	mov	r2, r9
10005fb6:	4640      	mov	r0, r8
10005fb8:	1b7d      	subs	r5, r7, r5
10005fba:	f00b ff75 	bl	10011ea8 <memcpy>
10005fbe:	1962      	adds	r2, r4, r5
10005fc0:	fb12 f20a 	smulbb	r2, r2, sl
10005fc4:	6831      	ldr	r1, [r6, #0]
10005fc6:	eb08 0009 	add.w	r0, r8, r9
10005fca:	b292      	uxth	r2, r2
10005fcc:	f00b ff6c 	bl	10011ea8 <memcpy>
10005fd0:	8972      	ldrh	r2, [r6, #10]
10005fd2:	88b5      	ldrh	r5, [r6, #4]
10005fd4:	b292      	uxth	r2, r2
10005fd6:	19d3      	adds	r3, r2, r7
10005fd8:	b29b      	uxth	r3, r3
10005fda:	429a      	cmp	r2, r3
10005fdc:	d91a      	bls.n	10006014 <tu_fifo_read_n+0xcc>
10005fde:	006a      	lsls	r2, r5, #1
10005fe0:	1a9b      	subs	r3, r3, r2
10005fe2:	b29b      	uxth	r3, r3
10005fe4:	6930      	ldr	r0, [r6, #16]
10005fe6:	8173      	strh	r3, [r6, #10]
10005fe8:	b108      	cbz	r0, 10005fee <tu_fifo_read_n+0xa6>
10005fea:	f00c fd45 	bl	10012a78 <__mutex_exit_veneer>
10005fee:	4638      	mov	r0, r7
10005ff0:	e8bd 87f0 	ldmia.w	sp!, {r4, r5, r6, r7, r8, r9, sl, pc}
10005ff4:	4640      	mov	r0, r8
10005ff6:	fb07 f202 	mul.w	r2, r7, r2
10005ffa:	f00b ff55 	bl	10011ea8 <memcpy>
10005ffe:	e7e7      	b.n	10005fd0 <tu_fifo_read_n+0x88>
10006000:	42ab      	cmp	r3, r5
10006002:	bf2c      	ite	cs
10006004:	1b5b      	subcs	r3, r3, r5
10006006:	195b      	addcc	r3, r3, r5
10006008:	b29c      	uxth	r4, r3
1000600a:	462f      	mov	r7, r5
1000600c:	8174      	strh	r4, [r6, #10]
1000600e:	e7b6      	b.n	10005f7e <tu_fifo_read_n+0x36>
10006010:	8973      	ldrh	r3, [r6, #10]
10006012:	b29b      	uxth	r3, r3
10006014:	ebb3 0f45 	cmp.w	r3, r5, lsl #1
10006018:	ea4f 0245 	mov.w	r2, r5, lsl #1
1000601c:	dbe2      	blt.n	10005fe4 <tu_fifo_read_n+0x9c>
1000601e:	e7df      	b.n	10005fe0 <tu_fifo_read_n+0x98>

10006020 <tu_fifo_write>:
10006020:	b5f8      	push	{r3, r4, r5, r6, r7, lr}
10006022:	4604      	mov	r4, r0
10006024:	68c0      	ldr	r0, [r0, #12]
10006026:	460e      	mov	r6, r1
10006028:	b118      	cbz	r0, 10006032 <tu_fifo_write+0x12>
1000602a:	f04f 31ff 	mov.w	r1, #4294967295	@ 0xffffffff
1000602e:	f00c fd07 	bl	10012a40 <__mutex_enter_timeout_ms_veneer>
10006032:	8925      	ldrh	r5, [r4, #8]
10006034:	8923      	ldrh	r3, [r4, #8]
10006036:	8961      	ldrh	r1, [r4, #10]
10006038:	b29b      	uxth	r3, r3
1000603a:	b289      	uxth	r1, r1
1000603c:	88a2      	ldrh	r2, [r4, #4]
1000603e:	428b      	cmp	r3, r1
10006040:	bf36      	itet	cc
10006042:	ebc1 0142 	rsbcc	r1, r1, r2, lsl #1
10006046:	1a5b      	subcs	r3, r3, r1
10006048:	185b      	addcc	r3, r3, r1
1000604a:	b29b      	uxth	r3, r3
1000604c:	429a      	cmp	r2, r3
1000604e:	b2ad      	uxth	r5, r5
10006050:	d808      	bhi.n	10006064 <tu_fifo_write+0x44>
10006052:	79e7      	ldrb	r7, [r4, #7]
10006054:	09ff      	lsrs	r7, r7, #7
10006056:	d105      	bne.n	10006064 <tu_fifo_write+0x44>
10006058:	68e0      	ldr	r0, [r4, #12]
1000605a:	b108      	cbz	r0, 10006060 <tu_fifo_write+0x40>
1000605c:	f00c fd0c 	bl	10012a78 <__mutex_exit_veneer>
10006060:	4638      	mov	r0, r7
10006062:	bdf8      	pop	{r3, r4, r5, r6, r7, pc}
10006064:	4295      	cmp	r5, r2
10006066:	d319      	bcc.n	1000609c <tu_fifo_write+0x7c>
10006068:	462b      	mov	r3, r5
1000606a:	1a9b      	subs	r3, r3, r2
1000606c:	b29b      	uxth	r3, r3
1000606e:	4293      	cmp	r3, r2
10006070:	d2fb      	bcs.n	1000606a <tu_fifo_write+0x4a>
10006072:	88e2      	ldrh	r2, [r4, #6]
10006074:	6820      	ldr	r0, [r4, #0]
10006076:	f3c2 020e 	ubfx	r2, r2, #0, #15
1000607a:	fb02 0003 	mla	r0, r2, r3, r0
1000607e:	4631      	mov	r1, r6
10006080:	f00b ff12 	bl	10011ea8 <memcpy>
10006084:	1c6b      	adds	r3, r5, #1
10006086:	b29b      	uxth	r3, r3
10006088:	429d      	cmp	r5, r3
1000608a:	88a2      	ldrh	r2, [r4, #4]
1000608c:	d912      	bls.n	100060b4 <tu_fifo_write+0x94>
1000608e:	2300      	movs	r3, #0
10006090:	0051      	lsls	r1, r2, #1
10006092:	1a5b      	subs	r3, r3, r1
10006094:	b29b      	uxth	r3, r3
10006096:	2701      	movs	r7, #1
10006098:	8123      	strh	r3, [r4, #8]
1000609a:	e7dd      	b.n	10006058 <tu_fifo_write+0x38>
1000609c:	88e2      	ldrh	r2, [r4, #6]
1000609e:	6820      	ldr	r0, [r4, #0]
100060a0:	f3c2 020e 	ubfx	r2, r2, #0, #15
100060a4:	fb05 0002 	mla	r0, r5, r2, r0
100060a8:	4631      	mov	r1, r6
100060aa:	f00b fefd 	bl	10011ea8 <memcpy>
100060ae:	3501      	adds	r5, #1
100060b0:	88a2      	ldrh	r2, [r4, #4]
100060b2:	b2ab      	uxth	r3, r5
100060b4:	ebb3 0f42 	cmp.w	r3, r2, lsl #1
100060b8:	ea4f 0142 	mov.w	r1, r2, lsl #1
100060bc:	dbeb      	blt.n	10006096 <tu_fifo_write+0x76>
100060be:	e7e8      	b.n	10006092 <tu_fifo_write+0x72>

100060c0 <tu_fifo_write_n>:
100060c0:	e92d 4ff0 	stmdb	sp!, {r4, r5, r6, r7, r8, r9, sl, fp, lr}
100060c4:	4616      	mov	r6, r2
100060c6:	b083      	sub	sp, #12
100060c8:	2a00      	cmp	r2, #0
100060ca:	d04c      	beq.n	10006166 <tu_fifo_write_n+0xa6>
100060cc:	4605      	mov	r5, r0
100060ce:	68c0      	ldr	r0, [r0, #12]
100060d0:	4688      	mov	r8, r1
100060d2:	b118      	cbz	r0, 100060dc <tu_fifo_write_n+0x1c>
100060d4:	f04f 31ff 	mov.w	r1, #4294967295	@ 0xffffffff
100060d8:	f00c fcb2 	bl	10012a40 <__mutex_enter_timeout_ms_veneer>
100060dc:	79ea      	ldrb	r2, [r5, #7]
100060de:	892f      	ldrh	r7, [r5, #8]
100060e0:	8969      	ldrh	r1, [r5, #10]
100060e2:	09d2      	lsrs	r2, r2, #7
100060e4:	88ab      	ldrh	r3, [r5, #4]
100060e6:	b2bf      	uxth	r7, r7
100060e8:	b289      	uxth	r1, r1
100060ea:	d140      	bne.n	1000616e <tu_fifo_write_n+0xae>
100060ec:	428f      	cmp	r7, r1
100060ee:	bf36      	itet	cc
100060f0:	ebc1 0143 	rsbcc	r1, r1, r3, lsl #1
100060f4:	1a79      	subcs	r1, r7, r1
100060f6:	19c9      	addcc	r1, r1, r7
100060f8:	b289      	uxth	r1, r1
100060fa:	4299      	cmp	r1, r3
100060fc:	d241      	bcs.n	10006182 <tu_fifo_write_n+0xc2>
100060fe:	1a59      	subs	r1, r3, r1
10006100:	b289      	uxth	r1, r1
10006102:	428e      	cmp	r6, r1
10006104:	bf28      	it	cs
10006106:	460e      	movcs	r6, r1
10006108:	f8b5 a006 	ldrh.w	sl, [r5, #6]
1000610c:	eb07 0906 	add.w	r9, r7, r6
10006110:	eba6 0b03 	sub.w	fp, r6, r3
10006114:	f3ca 0a0e 	ubfx	sl, sl, #0, #15
10006118:	fa1f f989 	uxth.w	r9, r9
1000611c:	fa1f fb8b 	uxth.w	fp, fp
10006120:	429f      	cmp	r7, r3
10006122:	463c      	mov	r4, r7
10006124:	d303      	bcc.n	1000612e <tu_fifo_write_n+0x6e>
10006126:	1ae4      	subs	r4, r4, r3
10006128:	b2a4      	uxth	r4, r4
1000612a:	429c      	cmp	r4, r3
1000612c:	d2fb      	bcs.n	10006126 <tu_fifo_write_n+0x66>
1000612e:	1b1b      	subs	r3, r3, r4
10006130:	6828      	ldr	r0, [r5, #0]
10006132:	b29b      	uxth	r3, r3
10006134:	42b3      	cmp	r3, r6
10006136:	fb0a 0004 	mla	r0, sl, r4, r0
1000613a:	d34b      	bcc.n	100061d4 <tu_fifo_write_n+0x114>
1000613c:	4641      	mov	r1, r8
1000613e:	fb0a f206 	mul.w	r2, sl, r6
10006142:	f00b feb1 	bl	10011ea8 <memcpy>
10006146:	88aa      	ldrh	r2, [r5, #4]
10006148:	454f      	cmp	r7, r9
1000614a:	ea4f 0342 	mov.w	r3, r2, lsl #1
1000614e:	d802      	bhi.n	10006156 <tu_fifo_write_n+0x96>
10006150:	ebb9 0f42 	cmp.w	r9, r2, lsl #1
10006154:	db03      	blt.n	1000615e <tu_fifo_write_n+0x9e>
10006156:	eba9 0303 	sub.w	r3, r9, r3
1000615a:	fa1f f983 	uxth.w	r9, r3
1000615e:	68e8      	ldr	r0, [r5, #12]
10006160:	f8a5 9008 	strh.w	r9, [r5, #8]
10006164:	b988      	cbnz	r0, 1000618a <tu_fifo_write_n+0xca>
10006166:	4630      	mov	r0, r6
10006168:	b003      	add	sp, #12
1000616a:	e8bd 8ff0 	ldmia.w	sp!, {r4, r5, r6, r7, r8, r9, sl, fp, pc}
1000616e:	f8b5 a006 	ldrh.w	sl, [r5, #6]
10006172:	429e      	cmp	r6, r3
10006174:	f3ca 0a0e 	ubfx	sl, sl, #0, #15
10006178:	d30d      	bcc.n	10006196 <tu_fifo_write_n+0xd6>
1000617a:	2b00      	cmp	r3, #0
1000617c:	d13f      	bne.n	100061fe <tu_fifo_write_n+0x13e>
1000617e:	461e      	mov	r6, r3
10006180:	e000      	b.n	10006184 <tu_fifo_write_n+0xc4>
10006182:	2600      	movs	r6, #0
10006184:	68e8      	ldr	r0, [r5, #12]
10006186:	2800      	cmp	r0, #0
10006188:	d0ed      	beq.n	10006166 <tu_fifo_write_n+0xa6>
1000618a:	f00c fc75 	bl	10012a78 <__mutex_exit_veneer>
1000618e:	4630      	mov	r0, r6
10006190:	b003      	add	sp, #12
10006192:	e8bd 8ff0 	ldmia.w	sp!, {r4, r5, r6, r7, r8, r9, sl, fp, pc}
10006196:	428f      	cmp	r7, r1
10006198:	bf36      	itet	cc
1000619a:	ebc1 0243 	rsbcc	r2, r1, r3, lsl #1
1000619e:	1a7a      	subcs	r2, r7, r1
100061a0:	19d2      	addcc	r2, r2, r7
100061a2:	b292      	uxth	r2, r2
100061a4:	0058      	lsls	r0, r3, #1
100061a6:	4432      	add	r2, r6
100061a8:	eba6 0b03 	sub.w	fp, r6, r3
100061ac:	4282      	cmp	r2, r0
100061ae:	fa1f fb8b 	uxth.w	fp, fp
100061b2:	db0a      	blt.n	100061ca <tu_fifo_write_n+0x10a>
100061b4:	eb01 0903 	add.w	r9, r1, r3
100061b8:	fa1f f989 	uxth.w	r9, r9
100061bc:	eba9 0706 	sub.w	r7, r9, r6
100061c0:	b2bf      	uxth	r7, r7
100061c2:	42b9      	cmp	r1, r7
100061c4:	d918      	bls.n	100061f8 <tu_fifo_write_n+0x138>
100061c6:	1a38      	subs	r0, r7, r0
100061c8:	b287      	uxth	r7, r0
100061ca:	eb06 0907 	add.w	r9, r6, r7
100061ce:	fa1f f989 	uxth.w	r9, r9
100061d2:	e7a5      	b.n	10006120 <tu_fifo_write_n+0x60>
100061d4:	fb13 f30a 	smulbb	r3, r3, sl
100061d8:	445c      	add	r4, fp
100061da:	fb14 f40a 	smulbb	r4, r4, sl
100061de:	b29a      	uxth	r2, r3
100061e0:	4641      	mov	r1, r8
100061e2:	9201      	str	r2, [sp, #4]
100061e4:	f00b fe60 	bl	10011ea8 <memcpy>
100061e8:	9a01      	ldr	r2, [sp, #4]
100061ea:	6828      	ldr	r0, [r5, #0]
100061ec:	eb08 0102 	add.w	r1, r8, r2
100061f0:	b2a2      	uxth	r2, r4
100061f2:	f00b fe59 	bl	10011ea8 <memcpy>
100061f6:	e7a6      	b.n	10006146 <tu_fifo_write_n+0x86>
100061f8:	42b8      	cmp	r0, r7
100061fa:	dc91      	bgt.n	10006120 <tu_fifo_write_n+0x60>
100061fc:	e7e3      	b.n	100061c6 <tu_fifo_write_n+0x106>
100061fe:	1af6      	subs	r6, r6, r3
10006200:	eb01 0903 	add.w	r9, r1, r3
10006204:	fb0a 8806 	mla	r8, sl, r6, r8
10006208:	460f      	mov	r7, r1
1000620a:	461e      	mov	r6, r3
1000620c:	f04f 0b00 	mov.w	fp, #0
10006210:	fa1f f989 	uxth.w	r9, r9
10006214:	e784      	b.n	10006120 <tu_fifo_write_n+0x60>
10006216:	bf00      	nop

10006218 <tu_fifo_clear>:
10006218:	b510      	push	{r4, lr}
1000621a:	4604      	mov	r4, r0
1000621c:	68c0      	ldr	r0, [r0, #12]
1000621e:	b118      	cbz	r0, 10006228 <tu_fifo_clear+0x10>
10006220:	f04f 31ff 	mov.w	r1, #4294967295	@ 0xffffffff
10006224:	f00c fc0c 	bl	10012a40 <__mutex_enter_timeout_ms_veneer>
10006228:	6920      	ldr	r0, [r4, #16]
1000622a:	b118      	cbz	r0, 10006234 <tu_fifo_clear+0x1c>
1000622c:	f04f 31ff 	mov.w	r1, #4294967295	@ 0xffffffff
10006230:	f00c fc06 	bl	10012a40 <__mutex_enter_timeout_ms_veneer>
10006234:	2300      	movs	r3, #0
10006236:	68e0      	ldr	r0, [r4, #12]
10006238:	8163      	strh	r3, [r4, #10]
1000623a:	8123      	strh	r3, [r4, #8]
1000623c:	b108      	cbz	r0, 10006242 <tu_fifo_clear+0x2a>
1000623e:	f00c fc1b 	bl	10012a78 <__mutex_exit_veneer>
10006242:	6920      	ldr	r0, [r4, #16]
10006244:	b108      	cbz	r0, 1000624a <tu_fifo_clear+0x32>
10006246:	f00c fc17 	bl	10012a78 <__mutex_exit_veneer>
1000624a:	2001      	movs	r0, #1
1000624c:	bd10      	pop	{r4, pc}
1000624e:	bf00      	nop

10006250 <tu_fifo_set_overwritable>:
10006250:	b538      	push	{r3, r4, r5, lr}
10006252:	4604      	mov	r4, r0
10006254:	68c0      	ldr	r0, [r0, #12]
10006256:	460d      	mov	r5, r1
10006258:	b118      	cbz	r0, 10006262 <tu_fifo_set_overwritable+0x12>
1000625a:	f04f 31ff 	mov.w	r1, #4294967295	@ 0xffffffff
1000625e:	f00c fbef 	bl	10012a40 <__mutex_enter_timeout_ms_veneer>
10006262:	6920      	ldr	r0, [r4, #16]
10006264:	b118      	cbz	r0, 1000626e <tu_fifo_set_overwritable+0x1e>
10006266:	f04f 31ff 	mov.w	r1, #4294967295	@ 0xffffffff
1000626a:	f00c fbe9 	bl	10012a40 <__mutex_enter_timeout_ms_veneer>
1000626e:	79e3      	ldrb	r3, [r4, #7]
10006270:	68e0      	ldr	r0, [r4, #12]
10006272:	f365 13c7 	bfi	r3, r5, #7, #1
10006276:	71e3      	strb	r3, [r4, #7]
10006278:	b108      	cbz	r0, 1000627e <tu_fifo_set_overwritable+0x2e>
1000627a:	f00c fbfd 	bl	10012a78 <__mutex_exit_veneer>
1000627e:	6920      	ldr	r0, [r4, #16]
10006280:	b108      	cbz	r0, 10006286 <tu_fifo_set_overwritable+0x36>
10006282:	f00c fbf9 	bl	10012a78 <__mutex_exit_veneer>
10006286:	2001      	movs	r0, #1
10006288:	bd38      	pop	{r3, r4, r5, pc}
1000628a:	bf00      	nop

1000628c <pvPortMalloc>:
1000628c:	b5f8      	push	{r3, r4, r5, r6, r7, lr}
1000628e:	1e43      	subs	r3, r0, #1
10006290:	330a      	adds	r3, #10
10006292:	d811      	bhi.n	100062b8 <pvPortMalloc+0x2c>
10006294:	f010 0307 	ands.w	r3, r0, #7
10006298:	f100 0408 	add.w	r4, r0, #8
1000629c:	d067      	beq.n	1000636e <pvPortMalloc+0xe2>
1000629e:	f1a3 0209 	sub.w	r2, r3, #9
100062a2:	42a2      	cmp	r2, r4
100062a4:	d308      	bcc.n	100062b8 <pvPortMalloc+0x2c>
100062a6:	3010      	adds	r0, #16
100062a8:	1ac4      	subs	r4, r0, r3
100062aa:	f001 fc97 	bl	10007bdc <vTaskSuspendAll>
100062ae:	4935      	ldr	r1, [pc, #212]	@ (10006384 <pvPortMalloc+0xf8>)
100062b0:	4622      	mov	r2, r4
100062b2:	680d      	ldr	r5, [r1, #0]
100062b4:	bb1d      	cbnz	r5, 100062fe <pvPortMalloc+0x72>
100062b6:	e00a      	b.n	100062ce <pvPortMalloc+0x42>
100062b8:	f001 fc90 	bl	10007bdc <vTaskSuspendAll>
100062bc:	4931      	ldr	r1, [pc, #196]	@ (10006384 <pvPortMalloc+0xf8>)
100062be:	680a      	ldr	r2, [r1, #0]
100062c0:	b122      	cbz	r2, 100062cc <pvPortMalloc+0x40>
100062c2:	2500      	movs	r5, #0
100062c4:	f001 fc92 	bl	10007bec <xTaskResumeAll>
100062c8:	4628      	mov	r0, r5
100062ca:	bdf8      	pop	{r3, r4, r5, r6, r7, pc}
100062cc:	4614      	mov	r4, r2
100062ce:	4b2e      	ldr	r3, [pc, #184]	@ (10006388 <pvPortMalloc+0xfc>)
100062d0:	4d2e      	ldr	r5, [pc, #184]	@ (1000638c <pvPortMalloc+0x100>)
100062d2:	0758      	lsls	r0, r3, #29
100062d4:	bf1c      	itt	ne
100062d6:	3307      	addne	r3, #7
100062d8:	f023 0307 	bicne.w	r3, r3, #7
100062dc:	461e      	mov	r6, r3
100062de:	2000      	movs	r0, #0
100062e0:	f025 0507 	bic.w	r5, r5, #7
100062e4:	600d      	str	r5, [r1, #0]
100062e6:	492a      	ldr	r1, [pc, #168]	@ (10006390 <pvPortMalloc+0x104>)
100062e8:	1aeb      	subs	r3, r5, r3
100062ea:	e9c1 6000 	strd	r6, r0, [r1]
100062ee:	4929      	ldr	r1, [pc, #164]	@ (10006394 <pvPortMalloc+0x108>)
100062f0:	e9c5 0000 	strd	r0, r0, [r5]
100062f4:	600b      	str	r3, [r1, #0]
100062f6:	e9c6 5300 	strd	r5, r3, [r6]
100062fa:	4927      	ldr	r1, [pc, #156]	@ (10006398 <pvPortMalloc+0x10c>)
100062fc:	600b      	str	r3, [r1, #0]
100062fe:	2a00      	cmp	r2, #0
10006300:	dddf      	ble.n	100062c2 <pvPortMalloc+0x36>
10006302:	4f25      	ldr	r7, [pc, #148]	@ (10006398 <pvPortMalloc+0x10c>)
10006304:	683e      	ldr	r6, [r7, #0]
10006306:	42a6      	cmp	r6, r4
10006308:	d3db      	bcc.n	100062c2 <pvPortMalloc+0x36>
1000630a:	4b21      	ldr	r3, [pc, #132]	@ (10006390 <pvPortMalloc+0x104>)
1000630c:	4618      	mov	r0, r3
1000630e:	681b      	ldr	r3, [r3, #0]
10006310:	e003      	b.n	1000631a <pvPortMalloc+0x8e>
10006312:	681a      	ldr	r2, [r3, #0]
10006314:	b122      	cbz	r2, 10006320 <pvPortMalloc+0x94>
10006316:	4618      	mov	r0, r3
10006318:	4613      	mov	r3, r2
1000631a:	6859      	ldr	r1, [r3, #4]
1000631c:	42a1      	cmp	r1, r4
1000631e:	d3f8      	bcc.n	10006312 <pvPortMalloc+0x86>
10006320:	42ab      	cmp	r3, r5
10006322:	d0ce      	beq.n	100062c2 <pvPortMalloc+0x36>
10006324:	461d      	mov	r5, r3
10006326:	eba1 0c04 	sub.w	ip, r1, r4
1000632a:	f855 2b08 	ldr.w	r2, [r5], #8
1000632e:	f1bc 0f10 	cmp.w	ip, #16
10006332:	6002      	str	r2, [r0, #0]
10006334:	d907      	bls.n	10006346 <pvPortMalloc+0xba>
10006336:	4621      	mov	r1, r4
10006338:	eb03 0e04 	add.w	lr, r3, r4
1000633c:	f8ce c004 	str.w	ip, [lr, #4]
10006340:	511a      	str	r2, [r3, r4]
10006342:	f8c0 e000 	str.w	lr, [r0]
10006346:	2400      	movs	r4, #0
10006348:	4a12      	ldr	r2, [pc, #72]	@ (10006394 <pvPortMalloc+0x108>)
1000634a:	1a76      	subs	r6, r6, r1
1000634c:	6810      	ldr	r0, [r2, #0]
1000634e:	f041 4100 	orr.w	r1, r1, #2147483648	@ 0x80000000
10006352:	4286      	cmp	r6, r0
10006354:	4811      	ldr	r0, [pc, #68]	@ (1000639c <pvPortMalloc+0x110>)
10006356:	bf38      	it	cc
10006358:	6016      	strcc	r6, [r2, #0]
1000635a:	6802      	ldr	r2, [r0, #0]
1000635c:	6059      	str	r1, [r3, #4]
1000635e:	3201      	adds	r2, #1
10006360:	601c      	str	r4, [r3, #0]
10006362:	603e      	str	r6, [r7, #0]
10006364:	6002      	str	r2, [r0, #0]
10006366:	f001 fc41 	bl	10007bec <xTaskResumeAll>
1000636a:	4628      	mov	r0, r5
1000636c:	bdf8      	pop	{r3, r4, r5, r6, r7, pc}
1000636e:	f001 fc35 	bl	10007bdc <vTaskSuspendAll>
10006372:	4904      	ldr	r1, [pc, #16]	@ (10006384 <pvPortMalloc+0xf8>)
10006374:	4622      	mov	r2, r4
10006376:	680d      	ldr	r5, [r1, #0]
10006378:	2d00      	cmp	r5, #0
1000637a:	d0a8      	beq.n	100062ce <pvPortMalloc+0x42>
1000637c:	2c00      	cmp	r4, #0
1000637e:	dac0      	bge.n	10006302 <pvPortMalloc+0x76>
10006380:	e79f      	b.n	100062c2 <pvPortMalloc+0x36>
10006382:	bf00      	nop
10006384:	200037b8 	.word	0x200037b8
10006388:	20003a60 	.word	0x20003a60
1000638c:	20023a58 	.word	0x20023a58
10006390:	2002503c 	.word	0x2002503c
10006394:	2002500c 	.word	0x2002500c
10006398:	20024f8c 	.word	0x20024f8c
1000639c:	20025018 	.word	0x20025018

100063a0 <vPortFree>:
100063a0:	b390      	cbz	r0, 10006408 <vPortFree+0x68>
100063a2:	b538      	push	{r3, r4, r5, lr}
100063a4:	f850 3c04 	ldr.w	r3, [r0, #-4]
100063a8:	4604      	mov	r4, r0
100063aa:	2b00      	cmp	r3, #0
100063ac:	db00      	blt.n	100063b0 <vPortFree+0x10>
100063ae:	bd38      	pop	{r3, r4, r5, pc}
100063b0:	f850 2c08 	ldr.w	r2, [r0, #-8]
100063b4:	2a00      	cmp	r2, #0
100063b6:	d1fa      	bne.n	100063ae <vPortFree+0xe>
100063b8:	f023 4300 	bic.w	r3, r3, #2147483648	@ 0x80000000
100063bc:	f840 3c04 	str.w	r3, [r0, #-4]
100063c0:	f1a0 0508 	sub.w	r5, r0, #8
100063c4:	f001 fc0a 	bl	10007bdc <vTaskSuspendAll>
100063c8:	481a      	ldr	r0, [pc, #104]	@ (10006434 <vPortFree+0x94>)
100063ca:	f854 1c04 	ldr.w	r1, [r4, #-4]
100063ce:	6802      	ldr	r2, [r0, #0]
100063d0:	4b19      	ldr	r3, [pc, #100]	@ (10006438 <vPortFree+0x98>)
100063d2:	440a      	add	r2, r1
100063d4:	6002      	str	r2, [r0, #0]
100063d6:	461a      	mov	r2, r3
100063d8:	681b      	ldr	r3, [r3, #0]
100063da:	429d      	cmp	r5, r3
100063dc:	d8fb      	bhi.n	100063d6 <vPortFree+0x36>
100063de:	6850      	ldr	r0, [r2, #4]
100063e0:	eb02 0c00 	add.w	ip, r2, r0
100063e4:	4565      	cmp	r5, ip
100063e6:	d010      	beq.n	1000640a <vPortFree+0x6a>
100063e8:	1868      	adds	r0, r5, r1
100063ea:	4283      	cmp	r3, r0
100063ec:	d01d      	beq.n	1000642a <vPortFree+0x8a>
100063ee:	f844 3c08 	str.w	r3, [r4, #-8]
100063f2:	42aa      	cmp	r2, r5
100063f4:	bf18      	it	ne
100063f6:	6015      	strne	r5, [r2, #0]
100063f8:	4a10      	ldr	r2, [pc, #64]	@ (1000643c <vPortFree+0x9c>)
100063fa:	6813      	ldr	r3, [r2, #0]
100063fc:	3301      	adds	r3, #1
100063fe:	6013      	str	r3, [r2, #0]
10006400:	e8bd 4038 	ldmia.w	sp!, {r3, r4, r5, lr}
10006404:	f001 bbf2 	b.w	10007bec <xTaskResumeAll>
10006408:	4770      	bx	lr
1000640a:	4401      	add	r1, r0
1000640c:	1850      	adds	r0, r2, r1
1000640e:	4283      	cmp	r3, r0
10006410:	6051      	str	r1, [r2, #4]
10006412:	d1f1      	bne.n	100063f8 <vPortFree+0x58>
10006414:	480a      	ldr	r0, [pc, #40]	@ (10006440 <vPortFree+0xa0>)
10006416:	6800      	ldr	r0, [r0, #0]
10006418:	4283      	cmp	r3, r0
1000641a:	d0ed      	beq.n	100063f8 <vPortFree+0x58>
1000641c:	4615      	mov	r5, r2
1000641e:	e9d3 4000 	ldrd	r4, r0, [r3]
10006422:	4401      	add	r1, r0
10006424:	e9c5 4100 	strd	r4, r1, [r5]
10006428:	e7e3      	b.n	100063f2 <vPortFree+0x52>
1000642a:	4805      	ldr	r0, [pc, #20]	@ (10006440 <vPortFree+0xa0>)
1000642c:	6800      	ldr	r0, [r0, #0]
1000642e:	4283      	cmp	r3, r0
10006430:	d1f5      	bne.n	1000641e <vPortFree+0x7e>
10006432:	e7dc      	b.n	100063ee <vPortFree+0x4e>
10006434:	20024f8c 	.word	0x20024f8c
10006438:	2002503c 	.word	0x2002503c
1000643c:	2002501c 	.word	0x2002501c
10006440:	200037b8 	.word	0x200037b8

10006444 <vPortGetHeapStats>:
10006444:	b5f8      	push	{r3, r4, r5, r6, r7, lr}
10006446:	4607      	mov	r7, r0
10006448:	f001 fbc8 	bl	10007bdc <vTaskSuspendAll>
1000644c:	4b19      	ldr	r3, [pc, #100]	@ (100064b4 <vPortGetHeapStats+0x70>)
1000644e:	681b      	ldr	r3, [r3, #0]
10006450:	b353      	cbz	r3, 100064a8 <vPortGetHeapStats+0x64>
10006452:	2400      	movs	r4, #0
10006454:	4a18      	ldr	r2, [pc, #96]	@ (100064b8 <vPortGetHeapStats+0x74>)
10006456:	f04f 36ff 	mov.w	r6, #4294967295	@ 0xffffffff
1000645a:	6811      	ldr	r1, [r2, #0]
1000645c:	4625      	mov	r5, r4
1000645e:	428b      	cmp	r3, r1
10006460:	d00b      	beq.n	1000647a <vPortGetHeapStats+0x36>
10006462:	e9d3 3200 	ldrd	r3, r2, [r3]
10006466:	4294      	cmp	r4, r2
10006468:	bf38      	it	cc
1000646a:	4614      	movcc	r4, r2
1000646c:	4296      	cmp	r6, r2
1000646e:	bf28      	it	cs
10006470:	4616      	movcs	r6, r2
10006472:	428b      	cmp	r3, r1
10006474:	f105 0501 	add.w	r5, r5, #1
10006478:	d1f3      	bne.n	10006462 <vPortGetHeapStats+0x1e>
1000647a:	f001 fbb7 	bl	10007bec <xTaskResumeAll>
1000647e:	e9c7 4601 	strd	r4, r6, [r7, #4]
10006482:	60fd      	str	r5, [r7, #12]
10006484:	f000 f93a 	bl	100066fc <vPortEnterCritical>
10006488:	480c      	ldr	r0, [pc, #48]	@ (100064bc <vPortGetHeapStats+0x78>)
1000648a:	490d      	ldr	r1, [pc, #52]	@ (100064c0 <vPortGetHeapStats+0x7c>)
1000648c:	4a0d      	ldr	r2, [pc, #52]	@ (100064c4 <vPortGetHeapStats+0x80>)
1000648e:	4b0e      	ldr	r3, [pc, #56]	@ (100064c8 <vPortGetHeapStats+0x84>)
10006490:	6800      	ldr	r0, [r0, #0]
10006492:	681b      	ldr	r3, [r3, #0]
10006494:	6809      	ldr	r1, [r1, #0]
10006496:	6812      	ldr	r2, [r2, #0]
10006498:	6038      	str	r0, [r7, #0]
1000649a:	e9c7 1205 	strd	r1, r2, [r7, #20]
1000649e:	613b      	str	r3, [r7, #16]
100064a0:	e8bd 40f8 	ldmia.w	sp!, {r3, r4, r5, r6, r7, lr}
100064a4:	f000 b938 	b.w	10006718 <vPortExitCritical>
100064a8:	461c      	mov	r4, r3
100064aa:	f04f 36ff 	mov.w	r6, #4294967295	@ 0xffffffff
100064ae:	461d      	mov	r5, r3
100064b0:	e7e3      	b.n	1000647a <vPortGetHeapStats+0x36>
100064b2:	bf00      	nop
100064b4:	2002503c 	.word	0x2002503c
100064b8:	200037b8 	.word	0x200037b8
100064bc:	20024f8c 	.word	0x20024f8c
100064c0:	20025018 	.word	0x20025018
100064c4:	2002501c 	.word	0x2002501c
100064c8:	2002500c 	.word	0x2002500c

100064cc <prvTaskExitError>:
100064cc:	2300      	movs	r3, #0
100064ce:	b500      	push	{lr}
100064d0:	b083      	sub	sp, #12
100064d2:	9301      	str	r3, [sp, #4]
100064d4:	f000 fb86 	bl	10006be4 <ulSetInterruptMask>
100064d8:	9b01      	ldr	r3, [sp, #4]
100064da:	2b00      	cmp	r3, #0
100064dc:	d0fc      	beq.n	100064d8 <prvTaskExitError+0xc>
100064de:	b003      	add	sp, #12
100064e0:	f85d fb04 	ldr.w	pc, [sp], #4

100064e4 <SysTick_Handler>:
100064e4:	b510      	push	{r4, lr}
100064e6:	f000 fb7d 	bl	10006be4 <ulSetInterruptMask>
100064ea:	4604      	mov	r4, r0
100064ec:	f001 fd36 	bl	10007f5c <xTaskIncrementTick>
100064f0:	b128      	cbz	r0, 100064fe <SysTick_Handler+0x1a>
100064f2:	f04f 23e0 	mov.w	r3, #3758153728	@ 0xe000e000
100064f6:	f04f 5280 	mov.w	r2, #268435456	@ 0x10000000
100064fa:	f8c3 2d04 	str.w	r2, [r3, #3332]	@ 0xd04
100064fe:	4620      	mov	r0, r4
10006500:	e8bd 4010 	ldmia.w	sp!, {r4, lr}
10006504:	f000 bb7a 	b.w	10006bfc <vClearInterruptMask>

10006508 <prvDoorbellInterruptHandler>:
10006508:	4b1f      	ldr	r3, [pc, #124]	@ (10006588 <prvDoorbellInterruptHandler+0x80>)
1000650a:	f993 3000 	ldrsb.w	r3, [r3]
1000650e:	2b00      	cmp	r3, #0
10006510:	db08      	blt.n	10006524 <prvDoorbellInterruptHandler+0x1c>
10006512:	f04f 4150 	mov.w	r1, #3489660928	@ 0xd0000000
10006516:	2201      	movs	r2, #1
10006518:	f8d1 0188 	ldr.w	r0, [r1, #392]	@ 0x188
1000651c:	fa02 f303 	lsl.w	r3, r2, r3
10006520:	4218      	tst	r0, r3
10006522:	d100      	bne.n	10006526 <prvDoorbellInterruptHandler+0x1e>
10006524:	4770      	bx	lr
10006526:	2200      	movs	r2, #0
10006528:	b500      	push	{lr}
1000652a:	4818      	ldr	r0, [pc, #96]	@ (1000658c <prvDoorbellInterruptHandler+0x84>)
1000652c:	b083      	sub	sp, #12
1000652e:	f8c1 318c 	str.w	r3, [r1, #396]	@ 0x18c
10006532:	6803      	ldr	r3, [r0, #0]
10006534:	9201      	str	r2, [sp, #4]
10006536:	f3ef 8c10 	mrs	ip, PRIMASK
1000653a:	b672      	cpsid	i
1000653c:	e8d3 efcf 	ldaexb	lr, [r3]
10006540:	2101      	movs	r1, #1
10006542:	f1be 0f00 	cmp.w	lr, #0
10006546:	d1f9      	bne.n	1000653c <prvDoorbellInterruptHandler+0x34>
10006548:	e8c3 1f4e 	strexb	lr, r1, [r3]
1000654c:	f1be 0f00 	cmp.w	lr, #0
10006550:	d1f4      	bne.n	1000653c <prvDoorbellInterruptHandler+0x34>
10006552:	f3bf 8f5f 	dmb	sy
10006556:	4b0e      	ldr	r3, [pc, #56]	@ (10006590 <prvDoorbellInterruptHandler+0x88>)
10006558:	6800      	ldr	r0, [r0, #0]
1000655a:	6819      	ldr	r1, [r3, #0]
1000655c:	601a      	str	r2, [r3, #0]
1000655e:	e8c0 2f8f 	stlb	r2, [r0]
10006562:	f38c 8810 	msr	PRIMASK, ip
10006566:	4b0b      	ldr	r3, [pc, #44]	@ (10006594 <prvDoorbellInterruptHandler+0x8c>)
10006568:	aa01      	add	r2, sp, #4
1000656a:	6818      	ldr	r0, [r3, #0]
1000656c:	f000 fc6a 	bl	10006e44 <xEventGroupSetBitsFromISR>
10006570:	9b01      	ldr	r3, [sp, #4]
10006572:	b12b      	cbz	r3, 10006580 <prvDoorbellInterruptHandler+0x78>
10006574:	f04f 23e0 	mov.w	r3, #3758153728	@ 0xe000e000
10006578:	f04f 5280 	mov.w	r2, #268435456	@ 0x10000000
1000657c:	f8c3 2d04 	str.w	r2, [r3, #3332]	@ 0xd04
10006580:	b003      	add	sp, #12
10006582:	f85d fb04 	ldr.w	pc, [sp], #4
10006586:	bf00      	nop
10006588:	200022e9 	.word	0x200022e9
1000658c:	200037a8 	.word	0x200037a8
10006590:	20023b20 	.word	0x20023b20
10006594:	20024f88 	.word	0x20024f88

10006598 <vPortSuppressTicksAndSleep>:
10006598:	b5f8      	push	{r3, r4, r5, r6, r7, lr}
1000659a:	4b3c      	ldr	r3, [pc, #240]	@ (1000668c <vPortSuppressTicksAndSleep+0xf4>)
1000659c:	4604      	mov	r4, r0
1000659e:	681e      	ldr	r6, [r3, #0]
100065a0:	b672      	cpsid	i
100065a2:	f3bf 8f4f 	dsb	sy
100065a6:	f3bf 8f6f 	isb	sy
100065aa:	f001 ffd3 	bl	10008554 <eTaskConfirmSleepModeStatus>
100065ae:	2800      	cmp	r0, #0
100065b0:	d064      	beq.n	1000667c <vPortSuppressTicksAndSleep+0xe4>
100065b2:	f04f 23e0 	mov.w	r3, #3758153728	@ 0xe000e000
100065b6:	2206      	movs	r2, #6
100065b8:	611a      	str	r2, [r3, #16]
100065ba:	699a      	ldr	r2, [r3, #24]
100065bc:	4d34      	ldr	r5, [pc, #208]	@ (10006690 <vPortSuppressTicksAndSleep+0xf8>)
100065be:	2a00      	cmp	r2, #0
100065c0:	d05e      	beq.n	10006680 <vPortSuppressTicksAndSleep+0xe8>
100065c2:	682f      	ldr	r7, [r5, #0]
100065c4:	f04f 21e0 	mov.w	r1, #3758153728	@ 0xe000e000
100065c8:	42a6      	cmp	r6, r4
100065ca:	4633      	mov	r3, r6
100065cc:	bf28      	it	cs
100065ce:	4623      	movcs	r3, r4
100065d0:	f8d1 4d04 	ldr.w	r4, [r1, #3332]	@ 0xd04
100065d4:	1e58      	subs	r0, r3, #1
100065d6:	0166      	lsls	r6, r4, #5
100065d8:	fb07 2200 	mla	r2, r7, r0, r2
100065dc:	d505      	bpl.n	100065ea <vPortSuppressTicksAndSleep+0x52>
100065de:	f04f 7400 	mov.w	r4, #33554432	@ 0x2000000
100065e2:	f8c1 4d04 	str.w	r4, [r1, #3332]	@ 0xd04
100065e6:	6829      	ldr	r1, [r5, #0]
100065e8:	1a52      	subs	r2, r2, r1
100065ea:	4e2a      	ldr	r6, [pc, #168]	@ (10006694 <vPortSuppressTicksAndSleep+0xfc>)
100065ec:	2400      	movs	r4, #0
100065ee:	6831      	ldr	r1, [r6, #0]
100065f0:	4291      	cmp	r1, r2
100065f2:	bf38      	it	cc
100065f4:	1a52      	subcc	r2, r2, r1
100065f6:	f04f 21e0 	mov.w	r1, #3758153728	@ 0xe000e000
100065fa:	614a      	str	r2, [r1, #20]
100065fc:	618c      	str	r4, [r1, #24]
100065fe:	690c      	ldr	r4, [r1, #16]
10006600:	f044 0401 	orr.w	r4, r4, #1
10006604:	610c      	str	r4, [r1, #16]
10006606:	b123      	cbz	r3, 10006612 <vPortSuppressTicksAndSleep+0x7a>
10006608:	f3bf 8f4f 	dsb	sy
1000660c:	bf30      	wfi
1000660e:	f3bf 8f6f 	isb	sy
10006612:	b662      	cpsie	i
10006614:	f3bf 8f4f 	dsb	sy
10006618:	f3bf 8f6f 	isb	sy
1000661c:	b672      	cpsid	i
1000661e:	f3bf 8f4f 	dsb	sy
10006622:	f3bf 8f6f 	isb	sy
10006626:	f04f 21e0 	mov.w	r1, #3758153728	@ 0xe000e000
1000662a:	2406      	movs	r4, #6
1000662c:	610c      	str	r4, [r1, #16]
1000662e:	690c      	ldr	r4, [r1, #16]
10006630:	03e4      	lsls	r4, r4, #15
10006632:	d50c      	bpl.n	1000664e <vPortSuppressTicksAndSleep+0xb6>
10006634:	698b      	ldr	r3, [r1, #24]
10006636:	6829      	ldr	r1, [r5, #0]
10006638:	6834      	ldr	r4, [r6, #0]
1000663a:	440b      	add	r3, r1
1000663c:	3b01      	subs	r3, #1
1000663e:	1a9b      	subs	r3, r3, r2
10006640:	429c      	cmp	r4, r3
10006642:	d320      	bcc.n	10006686 <vPortSuppressTicksAndSleep+0xee>
10006644:	1e4b      	subs	r3, r1, #1
10006646:	f04f 22e0 	mov.w	r2, #3758153728	@ 0xe000e000
1000664a:	6153      	str	r3, [r2, #20]
1000664c:	e00b      	b.n	10006666 <vPortSuppressTicksAndSleep+0xce>
1000664e:	682a      	ldr	r2, [r5, #0]
10006650:	698c      	ldr	r4, [r1, #24]
10006652:	fb02 f303 	mul.w	r3, r2, r3
10006656:	1b18      	subs	r0, r3, r4
10006658:	fbb0 f0f2 	udiv	r0, r0, r2
1000665c:	fb00 2202 	mla	r2, r0, r2, r2
10006660:	1ae4      	subs	r4, r4, r3
10006662:	4422      	add	r2, r4
10006664:	614a      	str	r2, [r1, #20]
10006666:	f04f 23e0 	mov.w	r3, #3758153728	@ 0xe000e000
1000666a:	2207      	movs	r2, #7
1000666c:	2100      	movs	r1, #0
1000666e:	6199      	str	r1, [r3, #24]
10006670:	611a      	str	r2, [r3, #16]
10006672:	682a      	ldr	r2, [r5, #0]
10006674:	3a01      	subs	r2, #1
10006676:	615a      	str	r2, [r3, #20]
10006678:	f001 fc50 	bl	10007f1c <vTaskStepTick>
1000667c:	b662      	cpsie	i
1000667e:	bdf8      	pop	{r3, r4, r5, r6, r7, pc}
10006680:	682a      	ldr	r2, [r5, #0]
10006682:	4617      	mov	r7, r2
10006684:	e79e      	b.n	100065c4 <vPortSuppressTicksAndSleep+0x2c>
10006686:	4299      	cmp	r1, r3
10006688:	d2dd      	bcs.n	10006646 <vPortSuppressTicksAndSleep+0xae>
1000668a:	e7db      	b.n	10006644 <vPortSuppressTicksAndSleep+0xac>
1000668c:	20025008 	.word	0x20025008
10006690:	20023b08 	.word	0x20023b08
10006694:	20023b04 	.word	0x20023b04

10006698 <vPortSetupTimerInterrupt>:
10006698:	b570      	push	{r4, r5, r6, lr}
1000669a:	256f      	movs	r5, #111	@ 0x6f
1000669c:	f04f 24e0 	mov.w	r4, #3758153728	@ 0xe000e000
100066a0:	2204      	movs	r2, #4
100066a2:	2300      	movs	r3, #0
100066a4:	205e      	movs	r0, #94	@ 0x5e
100066a6:	490a      	ldr	r1, [pc, #40]	@ (100066d0 <vPortSetupTimerInterrupt+0x38>)
100066a8:	4e0a      	ldr	r6, [pc, #40]	@ (100066d4 <vPortSetupTimerInterrupt+0x3c>)
100066aa:	600e      	str	r6, [r1, #0]
100066ac:	490a      	ldr	r1, [pc, #40]	@ (100066d8 <vPortSetupTimerInterrupt+0x40>)
100066ae:	600d      	str	r5, [r1, #0]
100066b0:	490a      	ldr	r1, [pc, #40]	@ (100066dc <vPortSetupTimerInterrupt+0x44>)
100066b2:	6008      	str	r0, [r1, #0]
100066b4:	6122      	str	r2, [r4, #16]
100066b6:	2005      	movs	r0, #5
100066b8:	61a3      	str	r3, [r4, #24]
100066ba:	f7fb f91b 	bl	100018f4 <clock_get_hz>
100066be:	2107      	movs	r1, #7
100066c0:	4b07      	ldr	r3, [pc, #28]	@ (100066e0 <vPortSetupTimerInterrupt+0x48>)
100066c2:	fba3 2300 	umull	r2, r3, r3, r0
100066c6:	099b      	lsrs	r3, r3, #6
100066c8:	3b01      	subs	r3, #1
100066ca:	6163      	str	r3, [r4, #20]
100066cc:	6121      	str	r1, [r4, #16]
100066ce:	bd70      	pop	{r4, r5, r6, pc}
100066d0:	20023b08 	.word	0x20023b08
100066d4:	000249f0 	.word	0x000249f0
100066d8:	20025008 	.word	0x20025008
100066dc:	20023b04 	.word	0x20023b04
100066e0:	10624dd3 	.word	0x10624dd3

100066e4 <vPortYield>:
100066e4:	f04f 23e0 	mov.w	r3, #3758153728	@ 0xe000e000
100066e8:	f04f 5280 	mov.w	r2, #268435456	@ 0x10000000
100066ec:	f8c3 2d04 	str.w	r2, [r3, #3332]	@ 0xd04
100066f0:	f3bf 8f4f 	dsb	sy
100066f4:	f3bf 8f6f 	isb	sy
100066f8:	4770      	bx	lr
100066fa:	bf00      	nop

100066fc <vPortEnterCritical>:
100066fc:	b508      	push	{r3, lr}
100066fe:	f000 fa71 	bl	10006be4 <ulSetInterruptMask>
10006702:	4a04      	ldr	r2, [pc, #16]	@ (10006714 <vPortEnterCritical+0x18>)
10006704:	6813      	ldr	r3, [r2, #0]
10006706:	3301      	adds	r3, #1
10006708:	6013      	str	r3, [r2, #0]
1000670a:	f3bf 8f4f 	dsb	sy
1000670e:	f3bf 8f6f 	isb	sy
10006712:	bd08      	pop	{r3, pc}
10006714:	200022ec 	.word	0x200022ec

10006718 <vPortExitCritical>:
10006718:	4b04      	ldr	r3, [pc, #16]	@ (1000672c <vPortExitCritical+0x14>)
1000671a:	681a      	ldr	r2, [r3, #0]
1000671c:	3a01      	subs	r2, #1
1000671e:	601a      	str	r2, [r3, #0]
10006720:	6818      	ldr	r0, [r3, #0]
10006722:	b100      	cbz	r0, 10006726 <vPortExitCritical+0xe>
10006724:	4770      	bx	lr
10006726:	f000 ba69 	b.w	10006bfc <vClearInterruptMask>
1000672a:	bf00      	nop
1000672c:	200022ec 	.word	0x200022ec

10006730 <vPortSVCHandler_C>:
10006730:	6983      	ldr	r3, [r0, #24]
10006732:	f813 3c02 	ldrb.w	r3, [r3, #-2]
10006736:	2b66      	cmp	r3, #102	@ 0x66
10006738:	d000      	beq.n	1000673c <vPortSVCHandler_C+0xc>
1000673a:	4770      	bx	lr
1000673c:	f04f 23e0 	mov.w	r3, #3758153728	@ 0xe000e000
10006740:	f8d3 2d88 	ldr.w	r2, [r3, #3464]	@ 0xd88
10006744:	f442 0270 	orr.w	r2, r2, #15728640	@ 0xf00000
10006748:	f8c3 2d88 	str.w	r2, [r3, #3464]	@ 0xd88
1000674c:	f8d3 2f34 	ldr.w	r2, [r3, #3892]	@ 0xf34
10006750:	f042 4240 	orr.w	r2, r2, #3221225472	@ 0xc0000000
10006754:	f8c3 2f34 	str.w	r2, [r3, #3892]	@ 0xf34
10006758:	f000 ba26 	b.w	10006ba8 <vRestoreContextOfFirstTask>

1000675c <pxPortInitialiseStack>:
1000675c:	e92d 4ff0 	stmdb	sp!, {r4, r5, r6, r7, r8, r9, sl, fp, lr}
10006760:	f04f 3e11 	mov.w	lr, #286331153	@ 0x11111111
10006764:	f04f 7480 	mov.w	r4, #16777216	@ 0x1000000
10006768:	e940 e309 	strd	lr, r3, [r0, #-36]	@ 0x24
1000676c:	f04f 3307 	mov.w	r3, #117901063	@ 0x7070707
10006770:	f840 4c04 	str.w	r4, [r0, #-4]
10006774:	4c16      	ldr	r4, [pc, #88]	@ (100067d0 <pxPortInitialiseStack+0x74>)
10006776:	f840 3c34 	str.w	r3, [r0, #-52]
1000677a:	e940 4203 	strd	r4, r2, [r0, #-12]
1000677e:	f04f 3305 	mov.w	r3, #84215045	@ 0x5050505
10006782:	f04f 3206 	mov.w	r2, #101058054	@ 0x6060606
10006786:	f04f 3b12 	mov.w	fp, #303174162	@ 0x12121212
1000678a:	e940 320f 	strd	r3, r2, [r0, #-60]	@ 0x3c
1000678e:	f04f 3a03 	mov.w	sl, #50529027	@ 0x3030303
10006792:	f04f 3902 	mov.w	r9, #33686018	@ 0x2020202
10006796:	f04f 3801 	mov.w	r8, #16843009	@ 0x1010101
1000679a:	f04f 3710 	mov.w	r7, #269488144	@ 0x10101010
1000679e:	f04f 3609 	mov.w	r6, #151587081	@ 0x9090909
100067a2:	f04f 3508 	mov.w	r5, #134744072	@ 0x8080808
100067a6:	f04f 3404 	mov.w	r4, #67372036	@ 0x4040404
100067aa:	f06f 0302 	mvn.w	r3, #2
100067ae:	e940 ab05 	strd	sl, fp, [r0, #-20]
100067b2:	e940 8907 	strd	r8, r9, [r0, #-28]
100067b6:	e940 670b 	strd	r6, r7, [r0, #-44]	@ 0x2c
100067ba:	f840 5c30 	str.w	r5, [r0, #-48]
100067be:	f840 4c40 	str.w	r4, [r0, #-64]
100067c2:	f840 3c44 	str.w	r3, [r0, #-68]
100067c6:	f840 1d48 	str.w	r1, [r0, #-72]!
100067ca:	e8bd 8ff0 	ldmia.w	sp!, {r4, r5, r6, r7, r8, r9, sl, fp, pc}
100067ce:	bf00      	nop
100067d0:	100064cd 	.word	0x100064cd

100067d4 <xPortStartScheduler>:
100067d4:	f04f 23e0 	mov.w	r3, #3758153728	@ 0xe000e000
100067d8:	f04f 427f 	mov.w	r2, #4278190080	@ 0xff000000
100067dc:	2100      	movs	r1, #0
100067de:	b570      	push	{r4, r5, r6, lr}
100067e0:	b084      	sub	sp, #16
100067e2:	9102      	str	r1, [sp, #8]
100067e4:	f8c3 2d1c 	str.w	r2, [r3, #3356]	@ 0xd1c
100067e8:	f8d3 3d1c 	ldr.w	r3, [r3, #3356]	@ 0xd1c
100067ec:	0e1b      	lsrs	r3, r3, #24
100067ee:	f88d 3007 	strb.w	r3, [sp, #7]
100067f2:	f89d 3007 	ldrb.w	r3, [sp, #7]
100067f6:	f89d 3007 	ldrb.w	r3, [sp, #7]
100067fa:	061a      	lsls	r2, r3, #24
100067fc:	d50c      	bpl.n	10006818 <xPortStartScheduler+0x44>
100067fe:	9b02      	ldr	r3, [sp, #8]
10006800:	3301      	adds	r3, #1
10006802:	9302      	str	r3, [sp, #8]
10006804:	f89d 3007 	ldrb.w	r3, [sp, #7]
10006808:	005b      	lsls	r3, r3, #1
1000680a:	b2db      	uxtb	r3, r3
1000680c:	f88d 3007 	strb.w	r3, [sp, #7]
10006810:	f89d 3007 	ldrb.w	r3, [sp, #7]
10006814:	061b      	lsls	r3, r3, #24
10006816:	d4f2      	bmi.n	100067fe <xPortStartScheduler+0x2a>
10006818:	9b02      	ldr	r3, [sp, #8]
1000681a:	2b08      	cmp	r3, #8
1000681c:	d055      	beq.n	100068ca <xPortStartScheduler+0xf6>
1000681e:	9a02      	ldr	r2, [sp, #8]
10006820:	f1c2 0207 	rsb	r2, r2, #7
10006824:	0212      	lsls	r2, r2, #8
10006826:	f402 62e0 	and.w	r2, r2, #1792	@ 0x700
1000682a:	f04f 23e0 	mov.w	r3, #3758153728	@ 0xe000e000
1000682e:	2400      	movs	r4, #0
10006830:	f04f 4550 	mov.w	r5, #3489660928	@ 0xd0000000
10006834:	4926      	ldr	r1, [pc, #152]	@ (100068d0 <xPortStartScheduler+0xfc>)
10006836:	200e      	movs	r0, #14
10006838:	600a      	str	r2, [r1, #0]
1000683a:	f8d3 2d20 	ldr.w	r2, [r3, #3360]	@ 0xd20
1000683e:	4925      	ldr	r1, [pc, #148]	@ (100068d4 <xPortStartScheduler+0x100>)
10006840:	f442 027f 	orr.w	r2, r2, #16711680	@ 0xff0000
10006844:	f8c3 2d20 	str.w	r2, [r3, #3360]	@ 0xd20
10006848:	f8d3 2d20 	ldr.w	r2, [r3, #3360]	@ 0xd20
1000684c:	2601      	movs	r6, #1
1000684e:	f042 427f 	orr.w	r2, r2, #4278190080	@ 0xff000000
10006852:	f8c3 2d20 	str.w	r2, [r3, #3360]	@ 0xd20
10006856:	f8c3 4d1c 	str.w	r4, [r3, #3356]	@ 0xd1c
1000685a:	f002 fba5 	bl	10008fa8 <exception_set_exclusive_handler>
1000685e:	491e      	ldr	r1, [pc, #120]	@ (100068d8 <xPortStartScheduler+0x104>)
10006860:	200f      	movs	r0, #15
10006862:	f002 fba1 	bl	10008fa8 <exception_set_exclusive_handler>
10006866:	491d      	ldr	r1, [pc, #116]	@ (100068dc <xPortStartScheduler+0x108>)
10006868:	200b      	movs	r0, #11
1000686a:	f002 fb9d 	bl	10008fa8 <exception_set_exclusive_handler>
1000686e:	f7ff ff13 	bl	10006698 <vPortSetupTimerInterrupt>
10006872:	4a1b      	ldr	r2, [pc, #108]	@ (100068e0 <xPortStartScheduler+0x10c>)
10006874:	4b1b      	ldr	r3, [pc, #108]	@ (100068e4 <xPortStartScheduler+0x110>)
10006876:	6014      	str	r4, [r2, #0]
10006878:	682a      	ldr	r2, [r5, #0]
1000687a:	2101      	movs	r1, #1
1000687c:	2003      	movs	r0, #3
1000687e:	701a      	strb	r2, [r3, #0]
10006880:	f002 fbb8 	bl	10008ff4 <multicore_doorbell_claim_unused>
10006884:	4603      	mov	r3, r0
10006886:	4a18      	ldr	r2, [pc, #96]	@ (100068e8 <xPortStartScheduler+0x114>)
10006888:	b25b      	sxtb	r3, r3
1000688a:	7013      	strb	r3, [r2, #0]
1000688c:	fa06 f303 	lsl.w	r3, r6, r3
10006890:	f8c5 318c 	str.w	r3, [r5, #396]	@ 0x18c
10006894:	21ff      	movs	r1, #255	@ 0xff
10006896:	f8c5 3184 	str.w	r3, [r5, #388]	@ 0x184
1000689a:	201a      	movs	r0, #26
1000689c:	f7fa f9de 	bl	10000c5c <irq_set_priority>
100068a0:	201a      	movs	r0, #26
100068a2:	4912      	ldr	r1, [pc, #72]	@ (100068ec <xPortStartScheduler+0x118>)
100068a4:	f7f9 ffb8 	bl	10000818 <irq_set_exclusive_handler>
100068a8:	4631      	mov	r1, r6
100068aa:	201a      	movs	r0, #26
100068ac:	f7f9 ff70 	bl	10000790 <irq_set_enabled>
100068b0:	f000 f990 	bl	10006bd4 <vStartFirstTask>
100068b4:	f001 fb62 	bl	10007f7c <vTaskSwitchContext>
100068b8:	9403      	str	r4, [sp, #12]
100068ba:	f000 f993 	bl	10006be4 <ulSetInterruptMask>
100068be:	9b03      	ldr	r3, [sp, #12]
100068c0:	2b00      	cmp	r3, #0
100068c2:	d0fc      	beq.n	100068be <xPortStartScheduler+0xea>
100068c4:	2000      	movs	r0, #0
100068c6:	b004      	add	sp, #16
100068c8:	bd70      	pop	{r4, r5, r6, pc}
100068ca:	2200      	movs	r2, #0
100068cc:	e7ad      	b.n	1000682a <xPortStartScheduler+0x56>
100068ce:	bf00      	nop
100068d0:	20023b00 	.word	0x20023b00
100068d4:	10006c0d 	.word	0x10006c0d
100068d8:	100064e5 	.word	0x100064e5
100068dc:	10006c8d 	.word	0x10006c8d
100068e0:	200022ec 	.word	0x200022ec
100068e4:	200022ea 	.word	0x200022ea
100068e8:	200022e9 	.word	0x200022e9
100068ec:	10006509 	.word	0x10006509

100068f0 <vPortValidateInterruptPriority>:
100068f0:	f3ef 8305 	mrs	r3, IPSR
100068f4:	2b0f      	cmp	r3, #15
100068f6:	bf84      	itt	hi
100068f8:	4a01      	ldrhi	r2, [pc, #4]	@ (10006900 <vPortValidateInterruptPriority+0x10>)
100068fa:	5c9b      	ldrbhi	r3, [r3, r2]
100068fc:	4770      	bx	lr
100068fe:	bf00      	nop
10006900:	e000e3f0 	.word	0xe000e3f0

10006904 <ulPortLockGetCurrentOwnerId>:
10006904:	f04f 4250 	mov.w	r2, #3489660928	@ 0xd0000000
10006908:	4b07      	ldr	r3, [pc, #28]	@ (10006928 <ulPortLockGetCurrentOwnerId+0x24>)
1000690a:	6810      	ldr	r0, [r2, #0]
1000690c:	781b      	ldrb	r3, [r3, #0]
1000690e:	4283      	cmp	r3, r0
10006910:	d000      	beq.n	10006914 <ulPortLockGetCurrentOwnerId+0x10>
10006912:	4770      	bx	lr
10006914:	f3ef 8305 	mrs	r3, IPSR
10006918:	b2db      	uxtb	r3, r3
1000691a:	b113      	cbz	r3, 10006922 <ulPortLockGetCurrentOwnerId+0x1e>
1000691c:	eb00 0043 	add.w	r0, r0, r3, lsl #1
10006920:	4770      	bx	lr
10006922:	f002 b8cd 	b.w	10008ac0 <xTaskGetCurrentTaskHandle>
10006926:	bf00      	nop
10006928:	200022ea 	.word	0x200022ea

1000692c <vPortLockInternalSpinUnlockWithWait>:
1000692c:	f04f 4350 	mov.w	r3, #3489660928	@ 0xd0000000
10006930:	b510      	push	{r4, lr}
10006932:	4a15      	ldr	r2, [pc, #84]	@ (10006988 <vPortLockInternalSpinUnlockWithWait+0x5c>)
10006934:	681b      	ldr	r3, [r3, #0]
10006936:	7812      	ldrb	r2, [r2, #0]
10006938:	6804      	ldr	r4, [r0, #0]
1000693a:	429a      	cmp	r2, r3
1000693c:	b082      	sub	sp, #8
1000693e:	f04f 0300 	mov.w	r3, #0
10006942:	d006      	beq.n	10006952 <vPortLockInternalSpinUnlockWithWait+0x26>
10006944:	e8c4 3f8f 	stlb	r3, [r4]
10006948:	f381 8810 	msr	PRIMASK, r1
1000694c:	bf20      	wfe
1000694e:	b002      	add	sp, #8
10006950:	bd10      	pop	{r4, pc}
10006952:	e8c4 3f8f 	stlb	r3, [r4]
10006956:	f381 8810 	msr	PRIMASK, r1
1000695a:	f04f 34ff 	mov.w	r4, #4294967295	@ 0xffffffff
1000695e:	2201      	movs	r2, #1
10006960:	6801      	ldr	r1, [r0, #0]
10006962:	480a      	ldr	r0, [pc, #40]	@ (1000698c <vPortLockInternalSpinUnlockWithWait+0x60>)
10006964:	9400      	str	r4, [sp, #0]
10006966:	1a09      	subs	r1, r1, r0
10006968:	4809      	ldr	r0, [pc, #36]	@ (10006990 <vPortLockInternalSpinUnlockWithWait+0x64>)
1000696a:	fba0 c001 	umull	ip, r0, r0, r1
1000696e:	0900      	lsrs	r0, r0, #4
10006970:	eb00 0040 	add.w	r0, r0, r0, lsl #1
10006974:	eba1 01c0 	sub.w	r1, r1, r0, lsl #3
10006978:	4806      	ldr	r0, [pc, #24]	@ (10006994 <vPortLockInternalSpinUnlockWithWait+0x68>)
1000697a:	fa02 f101 	lsl.w	r1, r2, r1
1000697e:	6800      	ldr	r0, [r0, #0]
10006980:	f000 f9d2 	bl	10006d28 <xEventGroupWaitBits>
10006984:	b002      	add	sp, #8
10006986:	bd10      	pop	{r4, pc}
10006988:	200022ea 	.word	0x200022ea
1000698c:	20003154 	.word	0x20003154
10006990:	aaaaaaab 	.word	0xaaaaaaab
10006994:	20024f88 	.word	0x20024f88

10006998 <vPortLockInternalSpinUnlockWithNotify>:
10006998:	f04f 4250 	mov.w	r2, #3489660928	@ 0xd0000000
1000699c:	b570      	push	{r4, r5, r6, lr}
1000699e:	2501      	movs	r5, #1
100069a0:	4c34      	ldr	r4, [pc, #208]	@ (10006a74 <vPortLockInternalSpinUnlockWithNotify+0xdc>)
100069a2:	4e35      	ldr	r6, [pc, #212]	@ (10006a78 <vPortLockInternalSpinUnlockWithNotify+0xe0>)
100069a4:	f894 e000 	ldrb.w	lr, [r4]
100069a8:	6814      	ldr	r4, [r2, #0]
100069aa:	6802      	ldr	r2, [r0, #0]
100069ac:	4b33      	ldr	r3, [pc, #204]	@ (10006a7c <vPortLockInternalSpinUnlockWithNotify+0xe4>)
100069ae:	1b92      	subs	r2, r2, r6
100069b0:	468c      	mov	ip, r1
100069b2:	fba3 1302 	umull	r1, r3, r3, r2
100069b6:	091b      	lsrs	r3, r3, #4
100069b8:	eb03 0343 	add.w	r3, r3, r3, lsl #1
100069bc:	eba2 02c3 	sub.w	r2, r2, r3, lsl #3
100069c0:	45a6      	cmp	lr, r4
100069c2:	b082      	sub	sp, #8
100069c4:	fa05 f102 	lsl.w	r1, r5, r2
100069c8:	d02c      	beq.n	10006a24 <vPortLockInternalSpinUnlockWithNotify+0x8c>
100069ca:	bf40      	sev
100069cc:	4c2c      	ldr	r4, [pc, #176]	@ (10006a80 <vPortLockInternalSpinUnlockWithNotify+0xe8>)
100069ce:	6803      	ldr	r3, [r0, #0]
100069d0:	6822      	ldr	r2, [r4, #0]
100069d2:	4293      	cmp	r3, r2
100069d4:	d041      	beq.n	10006a5a <vPortLockInternalSpinUnlockWithNotify+0xc2>
100069d6:	e8d2 5fcf 	ldaexb	r5, [r2]
100069da:	2301      	movs	r3, #1
100069dc:	2d00      	cmp	r5, #0
100069de:	d1fa      	bne.n	100069d6 <vPortLockInternalSpinUnlockWithNotify+0x3e>
100069e0:	e8c2 3f45 	strexb	r5, r3, [r2]
100069e4:	2d00      	cmp	r5, #0
100069e6:	d1f6      	bne.n	100069d6 <vPortLockInternalSpinUnlockWithNotify+0x3e>
100069e8:	f3bf 8f5f 	dmb	sy
100069ec:	4a25      	ldr	r2, [pc, #148]	@ (10006a84 <vPortLockInternalSpinUnlockWithNotify+0xec>)
100069ee:	6824      	ldr	r4, [r4, #0]
100069f0:	6813      	ldr	r3, [r2, #0]
100069f2:	430b      	orrs	r3, r1
100069f4:	6013      	str	r3, [r2, #0]
100069f6:	2300      	movs	r3, #0
100069f8:	e8c4 3f8f 	stlb	r3, [r4]
100069fc:	6803      	ldr	r3, [r0, #0]
100069fe:	4a22      	ldr	r2, [pc, #136]	@ (10006a88 <vPortLockInternalSpinUnlockWithNotify+0xf0>)
10006a00:	f992 2000 	ldrsb.w	r2, [r2]
10006a04:	2a00      	cmp	r2, #0
10006a06:	db06      	blt.n	10006a16 <vPortLockInternalSpinUnlockWithNotify+0x7e>
10006a08:	2101      	movs	r1, #1
10006a0a:	f04f 4050 	mov.w	r0, #3489660928	@ 0xd0000000
10006a0e:	fa01 f202 	lsl.w	r2, r1, r2
10006a12:	f8c0 2180 	str.w	r2, [r0, #384]	@ 0x180
10006a16:	2200      	movs	r2, #0
10006a18:	e8c3 2f8f 	stlb	r2, [r3]
10006a1c:	f38c 8810 	msr	PRIMASK, ip
10006a20:	b002      	add	sp, #8
10006a22:	bd70      	pop	{r4, r5, r6, pc}
10006a24:	bf40      	sev
10006a26:	2400      	movs	r4, #0
10006a28:	6803      	ldr	r3, [r0, #0]
10006a2a:	e8c3 4f8f 	stlb	r4, [r3]
10006a2e:	f38c 8810 	msr	PRIMASK, ip
10006a32:	f3ef 8305 	mrs	r3, IPSR
10006a36:	b2db      	uxtb	r3, r3
10006a38:	b1a3      	cbz	r3, 10006a64 <vPortLockInternalSpinUnlockWithNotify+0xcc>
10006a3a:	4b14      	ldr	r3, [pc, #80]	@ (10006a8c <vPortLockInternalSpinUnlockWithNotify+0xf4>)
10006a3c:	aa01      	add	r2, sp, #4
10006a3e:	6818      	ldr	r0, [r3, #0]
10006a40:	9401      	str	r4, [sp, #4]
10006a42:	f000 f9ff 	bl	10006e44 <xEventGroupSetBitsFromISR>
10006a46:	9b01      	ldr	r3, [sp, #4]
10006a48:	2b00      	cmp	r3, #0
10006a4a:	d0e9      	beq.n	10006a20 <vPortLockInternalSpinUnlockWithNotify+0x88>
10006a4c:	f04f 23e0 	mov.w	r3, #3758153728	@ 0xe000e000
10006a50:	f04f 5280 	mov.w	r2, #268435456	@ 0x10000000
10006a54:	f8c3 2d04 	str.w	r2, [r3, #3332]	@ 0xd04
10006a58:	e7e2      	b.n	10006a20 <vPortLockInternalSpinUnlockWithNotify+0x88>
10006a5a:	480a      	ldr	r0, [pc, #40]	@ (10006a84 <vPortLockInternalSpinUnlockWithNotify+0xec>)
10006a5c:	6802      	ldr	r2, [r0, #0]
10006a5e:	430a      	orrs	r2, r1
10006a60:	6002      	str	r2, [r0, #0]
10006a62:	e7cc      	b.n	100069fe <vPortLockInternalSpinUnlockWithNotify+0x66>
10006a64:	4b09      	ldr	r3, [pc, #36]	@ (10006a8c <vPortLockInternalSpinUnlockWithNotify+0xf4>)
10006a66:	6818      	ldr	r0, [r3, #0]
10006a68:	b002      	add	sp, #8
10006a6a:	e8bd 4070 	ldmia.w	sp!, {r4, r5, r6, lr}
10006a6e:	f000 b9b5 	b.w	10006ddc <xEventGroupSetBits>
10006a72:	bf00      	nop
10006a74:	200022ea 	.word	0x200022ea
10006a78:	20003154 	.word	0x20003154
10006a7c:	aaaaaaab 	.word	0xaaaaaaab
10006a80:	200037a8 	.word	0x200037a8
10006a84:	20023b20 	.word	0x20023b20
10006a88:	200022e9 	.word	0x200022e9
10006a8c:	20024f88 	.word	0x20024f88

10006a90 <xPortLockInternalSpinUnlockWithBestEffortWaitOrTimeout>:
10006a90:	b5f0      	push	{r4, r5, r6, r7, lr}
10006a92:	f04f 4e50 	mov.w	lr, #3489660928	@ 0xd0000000
10006a96:	4c34      	ldr	r4, [pc, #208]	@ (10006b68 <xPortLockInternalSpinUnlockWithBestEffortWaitOrTimeout+0xd8>)
10006a98:	461d      	mov	r5, r3
10006a9a:	f894 c000 	ldrb.w	ip, [r4]
10006a9e:	f8de 3000 	ldr.w	r3, [lr]
10006aa2:	4606      	mov	r6, r0
10006aa4:	459c      	cmp	ip, r3
10006aa6:	460f      	mov	r7, r1
10006aa8:	4614      	mov	r4, r2
10006aaa:	b083      	sub	sp, #12
10006aac:	d00c      	beq.n	10006ac8 <xPortLockInternalSpinUnlockWithBestEffortWaitOrTimeout+0x38>
10006aae:	2300      	movs	r3, #0
10006ab0:	6802      	ldr	r2, [r0, #0]
10006ab2:	e8c2 3f8f 	stlb	r3, [r2]
10006ab6:	f381 8810 	msr	PRIMASK, r1
10006aba:	4620      	mov	r0, r4
10006abc:	4629      	mov	r1, r5
10006abe:	b003      	add	sp, #12
10006ac0:	e8bd 40f0 	ldmia.w	sp!, {r4, r5, r6, r7, lr}
10006ac4:	f7fa bd30 	b.w	10001528 <best_effort_wfe_or_timeout>
10006ac8:	f7fa fddc 	bl	10001684 <time_us_64>
10006acc:	f240 33e7 	movw	r3, #999	@ 0x3e7
10006ad0:	1a22      	subs	r2, r4, r0
10006ad2:	eb65 0101 	sbc.w	r1, r5, r1
10006ad6:	18d0      	adds	r0, r2, r3
10006ad8:	f141 0100 	adc.w	r1, r1, #0
10006adc:	f5b0 7f7a 	cmp.w	r0, #1000	@ 0x3e8
10006ae0:	f171 0300 	sbcs.w	r3, r1, #0
10006ae4:	da1e      	bge.n	10006b24 <xPortLockInternalSpinUnlockWithBestEffortWaitOrTimeout+0x94>
10006ae6:	2300      	movs	r3, #0
10006ae8:	6832      	ldr	r2, [r6, #0]
10006aea:	e8c2 3f8f 	stlb	r3, [r2]
10006aee:	f387 8810 	msr	PRIMASK, r7
10006af2:	4b1e      	ldr	r3, [pc, #120]	@ (10006b6c <xPortLockInternalSpinUnlockWithBestEffortWaitOrTimeout+0xdc>)
10006af4:	6a5a      	ldr	r2, [r3, #36]	@ 0x24
10006af6:	4295      	cmp	r5, r2
10006af8:	d807      	bhi.n	10006b0a <xPortLockInternalSpinUnlockWithBestEffortWaitOrTimeout+0x7a>
10006afa:	6a9b      	ldr	r3, [r3, #40]	@ 0x28
10006afc:	42a3      	cmp	r3, r4
10006afe:	d302      	bcc.n	10006b06 <xPortLockInternalSpinUnlockWithBestEffortWaitOrTimeout+0x76>
10006b00:	2001      	movs	r0, #1
10006b02:	b003      	add	sp, #12
10006b04:	bdf0      	pop	{r4, r5, r6, r7, pc}
10006b06:	4295      	cmp	r5, r2
10006b08:	d1fa      	bne.n	10006b00 <xPortLockInternalSpinUnlockWithBestEffortWaitOrTimeout+0x70>
10006b0a:	f04f 23e0 	mov.w	r3, #3758153728	@ 0xe000e000
10006b0e:	f04f 5280 	mov.w	r2, #268435456	@ 0x10000000
10006b12:	f8c3 2d04 	str.w	r2, [r3, #3332]	@ 0xd04
10006b16:	f3bf 8f4f 	dsb	sy
10006b1a:	f3bf 8f6f 	isb	sy
10006b1e:	2000      	movs	r0, #0
10006b20:	b003      	add	sp, #12
10006b22:	bdf0      	pop	{r4, r5, r6, r7, pc}
10006b24:	f44f 727a 	mov.w	r2, #1000	@ 0x3e8
10006b28:	2300      	movs	r3, #0
10006b2a:	f00b ffa9 	bl	10012a80 <____aeabi_ldivmod_veneer>
10006b2e:	2800      	cmp	r0, #0
10006b30:	d0d9      	beq.n	10006ae6 <xPortLockInternalSpinUnlockWithBestEffortWaitOrTimeout+0x56>
10006b32:	2300      	movs	r3, #0
10006b34:	6832      	ldr	r2, [r6, #0]
10006b36:	e8c2 3f8f 	stlb	r3, [r2]
10006b3a:	f387 8810 	msr	PRIMASK, r7
10006b3e:	2201      	movs	r2, #1
10006b40:	9000      	str	r0, [sp, #0]
10006b42:	6831      	ldr	r1, [r6, #0]
10006b44:	480a      	ldr	r0, [pc, #40]	@ (10006b70 <xPortLockInternalSpinUnlockWithBestEffortWaitOrTimeout+0xe0>)
10006b46:	1a09      	subs	r1, r1, r0
10006b48:	480a      	ldr	r0, [pc, #40]	@ (10006b74 <xPortLockInternalSpinUnlockWithBestEffortWaitOrTimeout+0xe4>)
10006b4a:	fba0 6001 	umull	r6, r0, r0, r1
10006b4e:	0900      	lsrs	r0, r0, #4
10006b50:	eb00 0040 	add.w	r0, r0, r0, lsl #1
10006b54:	eba1 01c0 	sub.w	r1, r1, r0, lsl #3
10006b58:	4807      	ldr	r0, [pc, #28]	@ (10006b78 <xPortLockInternalSpinUnlockWithBestEffortWaitOrTimeout+0xe8>)
10006b5a:	fa02 f101 	lsl.w	r1, r2, r1
10006b5e:	6800      	ldr	r0, [r0, #0]
10006b60:	f000 f8e2 	bl	10006d28 <xEventGroupWaitBits>
10006b64:	e7c5      	b.n	10006af2 <xPortLockInternalSpinUnlockWithBestEffortWaitOrTimeout+0x62>
10006b66:	bf00      	nop
10006b68:	200022ea 	.word	0x200022ea
10006b6c:	400b0000 	.word	0x400b0000
10006b70:	20003154 	.word	0x20003154
10006b74:	aaaaaaab 	.word	0xaaaaaaab
10006b78:	20024f88 	.word	0x20024f88

10006b7c <prvRuntimeInitializer>:
10006b7c:	b508      	push	{r3, lr}
10006b7e:	f7f9 fdb7 	bl	100006f0 <next_striped_spin_lock_num>
10006b82:	4601      	mov	r1, r0
10006b84:	4b04      	ldr	r3, [pc, #16]	@ (10006b98 <prvRuntimeInitializer+0x1c>)
10006b86:	4a05      	ldr	r2, [pc, #20]	@ (10006b9c <prvRuntimeInitializer+0x20>)
10006b88:	440b      	add	r3, r1
10006b8a:	4805      	ldr	r0, [pc, #20]	@ (10006ba0 <prvRuntimeInitializer+0x24>)
10006b8c:	6013      	str	r3, [r2, #0]
10006b8e:	f000 f8bb 	bl	10006d08 <xEventGroupCreateStatic>
10006b92:	4b04      	ldr	r3, [pc, #16]	@ (10006ba4 <prvRuntimeInitializer+0x28>)
10006b94:	6018      	str	r0, [r3, #0]
10006b96:	bd08      	pop	{r3, pc}
10006b98:	20003154 	.word	0x20003154
10006b9c:	200037a8 	.word	0x200037a8
10006ba0:	20025044 	.word	0x20025044
10006ba4:	20024f88 	.word	0x20024f88

10006ba8 <vRestoreContextOfFirstTask>:
10006ba8:	4a09      	ldr	r2, [pc, #36]	@ (10006bd0 <vRestoreContextOfFirstTask+0x28>)
10006baa:	6811      	ldr	r1, [r2, #0]
10006bac:	6808      	ldr	r0, [r1, #0]
10006bae:	c806      	ldmia	r0!, {r1, r2}
10006bb0:	f381 880b 	msr	PSPLIM, r1
10006bb4:	2102      	movs	r1, #2
10006bb6:	f381 8814 	msr	CONTROL, r1
10006bba:	3020      	adds	r0, #32
10006bbc:	f380 8809 	msr	PSP, r0
10006bc0:	f3bf 8f6f 	isb	sy
10006bc4:	f04f 0000 	mov.w	r0, #0
10006bc8:	f380 8811 	msr	BASEPRI, r0
10006bcc:	4710      	bx	r2
10006bce:	0000      	.short	0x0000
10006bd0:	200037ac 	.word	0x200037ac

10006bd4 <vStartFirstTask>:
10006bd4:	b662      	cpsie	i
10006bd6:	b661      	cpsie	f
10006bd8:	f3bf 8f4f 	dsb	sy
10006bdc:	f3bf 8f6f 	isb	sy
10006be0:	df66      	svc	102	@ 0x66
10006be2:	bf00      	nop

10006be4 <ulSetInterruptMask>:
10006be4:	f3ef 8011 	mrs	r0, BASEPRI
10006be8:	f04f 0110 	mov.w	r1, #16
10006bec:	f381 8811 	msr	BASEPRI, r1
10006bf0:	f3bf 8f4f 	dsb	sy
10006bf4:	f3bf 8f6f 	isb	sy
10006bf8:	4770      	bx	lr
10006bfa:	bf00      	nop

10006bfc <vClearInterruptMask>:
10006bfc:	f380 8811 	msr	BASEPRI, r0
10006c00:	f3bf 8f4f 	dsb	sy
10006c04:	f3bf 8f6f 	isb	sy
10006c08:	4770      	bx	lr
10006c0a:	bf00      	nop

10006c0c <PendSV_Handler>:
10006c0c:	f3ef 8109 	mrs	r1, PSP
10006c10:	f01e 0f10 	tst.w	lr, #16
10006c14:	bf08      	it	eq
10006c16:	ed21 8a10 	vstmdbeq	r1!, {s16-s31}
10006c1a:	f3ef 820b 	mrs	r2, PSPLIM
10006c1e:	4673      	mov	r3, lr
10006c20:	e921 0ffc 	stmdb	r1!, {r2, r3, r4, r5, r6, r7, r8, r9, sl, fp}
10006c24:	fc55 4408 	dcp_pxmd r4, r5
10006c28:	fc57 6409 	dcp_pymd r6, r7
10006c2c:	fc59 840a 	dcp_pefd r8, r9
10006c30:	e901 03f0 	stmdb	r1, {r4, r5, r6, r7, r8, r9}
10006c34:	4a14      	ldr	r2, [pc, #80]	@ (10006c88 <PendSV_Handler+0x7c>)
10006c36:	6813      	ldr	r3, [r2, #0]
10006c38:	6019      	str	r1, [r3, #0]
10006c3a:	f04f 0110 	mov.w	r1, #16
10006c3e:	f381 8811 	msr	BASEPRI, r1
10006c42:	f3bf 8f4f 	dsb	sy
10006c46:	f3bf 8f6f 	isb	sy
10006c4a:	f001 f997 	bl	10007f7c <vTaskSwitchContext>
10006c4e:	f04f 0000 	mov.w	r0, #0
10006c52:	f380 8811 	msr	BASEPRI, r0
10006c56:	4a0c      	ldr	r2, [pc, #48]	@ (10006c88 <PendSV_Handler+0x7c>)
10006c58:	6811      	ldr	r1, [r2, #0]
10006c5a:	6808      	ldr	r0, [r1, #0]
10006c5c:	3818      	subs	r0, #24
10006c5e:	e8b0 03f0 	ldmia.w	r0!, {r4, r5, r6, r7, r8, r9}
10006c62:	ec45 4400 	dcp_wxmd r4, r5
10006c66:	ec47 6401 	dcp_wymd r6, r7
